(dp0
S'FUN_0000ee24'
p1
(S'\n__stdcall FUN_0000ee24(undefined param_1, undefined param_2, undefined param_3, undefined param_4, undefined4 param_5, undefined4 param_6, undefined4 param_7)\n'
p2
V\u000aundefined4\u000aFUN_0000ee24(sbyte *param_1,byte *param_2,int param_3,byte **param_4,int param_5,sbyte *param_6,\u000a            sbyte **param_7)\u000a\u000a{\u000a  sbyte sVar1;\u000a  sbyte sVar2;\u000a  sbyte sVar3;\u000a  sbyte sVar4;\u000a  sbyte *psVar5;\u000a  uint uVar6;\u000a  uint uVar7;\u000a  ushort *puVar8;\u000a  ushort *puVar9;\u000a  int iVar10;\u000a  byte *pbVar11;\u000a  sbyte *psVar12;\u000a  sbyte *psVar13;\u000a  ushort uVar14;\u000a  uint uVar15;\u000a  int iVar16;\u000a  sbyte *psVar17;\u000a  uint uVar18;\u000a  uint uVar19;\u000a  uint uVar20;\u000a  uint uVar21;\u000a  int iVar22;\u000a  sbyte *psVar23;\u000a  sbyte *psVar24;\u000a  byte *pbVar25;\u000a  uint uVar26;\u000a  int iVar27;\u000a  sbyte *psVar28;\u000a  byte *pbVar29;\u000a  byte *pbVar30;\u000a  bool bVar31;\u000a  sbyte *local_3c;\u000a  sbyte *local_38;\u000a  sbyte *local_34;\u000a  sbyte *local_30;\u000a  sbyte *local_28;\u000a  \u000a  sVar1 = *param_1;\u000a  sVar2 = param_1[2];\u000a  sVar3 = param_1[1];\u000a  iVar16 = 0;\u000a  *param_4 = (byte *)0x0;\u000a  *param_7 = (sbyte *)0x0;\u000a  sVar4 = param_1[1];\u000a  psVar5 = param_1 + 4;\u000a  while( true ) {\u000a    bVar31 = iVar16 == (0x300 << (uint)(byte)(sVar1 + sVar4)) + 0x736;\u000a    iVar27 = iVar16 * 2;\u000a    iVar16 = iVar16 + 1;\u000a    if (bVar31) break;\u000a    *(undefined2 *)(psVar5 + iVar27) = 0x400;\u000a  }\u000a  uVar19 = 0;\u000a  pbVar25 = param_2 + param_3;\u000a  pbVar11 = (byte *)0x0;\u000a  pbVar29 = param_2;\u000a  do {\u000a    pbVar29 = pbVar29 + 1;\u000a    if (pbVar11 == pbVar25 + -(int)param_2) {\u000a      return 1;\u000a    }\u000a    pbVar30 = pbVar11 + (int)param_2;\u000a    pbVar11 = pbVar11 + 1;\u000a    uVar19 = (uint)*pbVar30 | uVar19 << 8;\u000a  } while (pbVar11 != (byte *)0x5);\u000a  psVar28 = (sbyte *)0x0;\u000a  uVar20 = 0;\u000a  uVar6 = 0xffffffff;\u000a  local_28 = (sbyte *)0x1;\u000a  local_3c = (sbyte *)0x0;\u000a  local_38 = (sbyte *)0x1;\u000a  local_34 = (sbyte *)0x1;\u000a  local_30 = (sbyte *)0x1;\u000a  psVar12 = local_3c;\u000a  while (local_3c = psVar12, psVar12 = local_30, psVar28 < param_6) {\u000a    uVar21 = uVar6;\u000a    pbVar11 = pbVar29;\u000a    if (uVar6 < 0x1000000) {\u000a      if (pbVar29 == pbVar25) {\u000a        return 1;\u000a      }\u000a      pbVar11 = pbVar29 + 1;\u000a      uVar21 = uVar6 << 8;\u000a      uVar19 = (uint)*pbVar29 | uVar19 << 8;\u000a    }\u000a    uVar26 = (uint)psVar28 & (1 << sVar2) - 1U;\u000a    iVar16 = (uVar26 + (int)local_3c * 0x10) * 2;\u000a    uVar14 = *(ushort *)(psVar5 + iVar16);\u000a    uVar6 = (uint)uVar14 * (uVar21 >> 0xb);\u000a    if (uVar19 < uVar6) {\u000a      psVar12 = psVar5 + (((int)uVar20 >> (uint)(byte)(8 - sVar1)) +\u000a                         (((uint)psVar28 & (1 << sVar3) - 1U) << sVar1)) * 0x600;\u000a      *(ushort *)(psVar5 + iVar16) = uVar14 + (short)((int)(0x800 - (uint)uVar14) >> 5);\u000a      psVar24 = psVar12 + 0xe6c;\u000a      if ((int)local_3c < 7) {\u000a        uVar20 = 1;\u000a        pbVar29 = pbVar11;\u000aLAB_0000f0bc:\u000a        while( true ) {\u000a          uVar21 = uVar20 * 2;\u000a          iVar16 = uVar20 * 2;\u000a          if (0xff < (int)uVar20) break;\u000a          uVar26 = uVar6;\u000a          pbVar11 = pbVar29;\u000a          if (uVar6 < 0x1000000) {\u000a            uVar26 = uVar6 << 8;\u000a            if (pbVar29 == pbVar25) {\u000a              return 1;\u000a            }\u000a            pbVar11 = pbVar29 + 1;\u000a            uVar19 = (uint)*pbVar29 | uVar19 << 8;\u000a          }\u000a          uVar14 = *(ushort *)(psVar24 + uVar21);\u000a          uVar6 = (uint)uVar14 * (uVar26 >> 0xb);\u000a          psVar12 = (sbyte *)(0x800 - (uint)uVar14);\u000a          if (uVar19 < uVar6) {\u000a            *(ushort *)(psVar24 + uVar21) = uVar14 + (short)((int)psVar12 >> 5);\u000a          }\u000a          else {\u000a            *(ushort *)(psVar24 + uVar21) = uVar14 - (uVar14 >> 5);\u000a          }\u000a          uVar20 = uVar21;\u000a          pbVar29 = pbVar11;\u000a          if (uVar19 >= uVar6) {\u000a            uVar19 = uVar19 - uVar6;\u000a            uVar6 = uVar26 - uVar6;\u000a            uVar20 = iVar16 + 1;\u000a            pbVar29 = pbVar11;\u000a          }\u000a        }\u000a      }\u000a      else {\u000a        uVar21 = (uint)(byte)psVar28[param_5 - (int)local_28];\u000a        uVar20 = 1;\u000a        do {\u000a          uVar21 = uVar21 << 1;\u000a          uVar18 = uVar21 & 0x100;\u000a          uVar26 = uVar20 * 2;\u000a          puVar8 = (ushort *)(psVar24 + uVar26 + uVar18 * 2 + 0x200);\u000a          uVar20 = uVar20 * 2 + 1;\u000a          uVar7 = uVar6;\u000a          pbVar29 = pbVar11;\u000a          if (uVar6 < 0x1000000) {\u000a            uVar7 = uVar6 << 8;\u000a            if (pbVar11 == pbVar25) {\u000a              return 1;\u000a            }\u000a            pbVar29 = pbVar11 + 1;\u000a            uVar19 = (uint)*pbVar11 | uVar19 << 8;\u000a          }\u000a          uVar14 = *puVar8;\u000a          uVar15 = (uint)uVar14;\u000a          uVar6 = uVar15 * (uVar7 >> 0xb);\u000a          psVar12 = (sbyte *)(uVar15 + ((int)(0x800 - uVar15) >> 5));\u000a          if (uVar19 < uVar6) {\u000a            *puVar8 = (ushort)psVar12;\u000a            uVar20 = uVar26;\u000a            if (uVar18 != 0) goto LAB_0000f0bc;\u000a          }\u000a          else {\u000a            *puVar8 = uVar14 - (uVar14 >> 5);\u000a            uVar19 = uVar19 - uVar6;\u000a            uVar6 = uVar7 - uVar6;\u000a            if (uVar18 == 0) goto LAB_0000f0bc;\u000a          }\u000a          pbVar11 = pbVar29;\u000a        } while ((int)uVar20 < 0x100);\u000a      }\u000a      uVar20 = uVar20 & 0xff;\u000a      if ((int)local_3c < 4) {\u000a        psVar12 = (sbyte *)0x0;\u000a      }\u000a      psVar28[param_5] = (sbyte)uVar20;\u000a      psVar28 = psVar28 + 1;\u000a      if (3 < (int)local_3c) {\u000a        if ((int)local_3c < 10) {\u000a          psVar12 = local_3c + -3;\u000a        }\u000a        else {\u000a          psVar12 = local_3c + -6;\u000a        }\u000a      }\u000a    }\u000a    else {\u000a      uVar21 = uVar21 - uVar6;\u000a      *(ushort *)(psVar5 + iVar16) = uVar14 - (uVar14 >> 5);\u000a      uVar19 = uVar19 - uVar6;\u000a      pbVar29 = pbVar11;\u000a      if (uVar21 < 0x1000000) {\u000a        if (pbVar11 == pbVar25) {\u000a          return 1;\u000a        }\u000a        pbVar29 = pbVar11 + 1;\u000a        uVar21 = uVar21 * 0x100;\u000a        uVar19 = (uint)*pbVar11 | uVar19 * 0x100;\u000a      }\u000a      psVar24 = psVar5 + (int)local_3c * 2;\u000a      puVar8 = (ushort *)(psVar24 + 0x180);\u000a      uVar14 = *puVar8;\u000a      uVar20 = (uint)uVar14 * (uVar21 >> 0xb);\u000a      if (uVar19 < uVar20) {\u000a        if ((int)local_3c < 7) {\u000a          local_3c = (sbyte *)0x0;\u000a        }\u000a        else {\u000a          local_3c = (sbyte *)0x3;\u000a        }\u000a        local_30 = local_34;\u000a        puVar9 = (ushort *)(param_1 + 0x668);\u000a        local_34 = local_38;\u000a        local_38 = local_28;\u000a        *puVar8 = uVar14 + (short)((int)(0x800 - (uint)uVar14) >> 5);\u000aLAB_0000f3b4:\u000a        pbVar11 = pbVar29;\u000a        if (uVar20 < 0x1000000) {\u000a          if (pbVar29 == pbVar25) {\u000a            return 1;\u000a          }\u000a          pbVar11 = pbVar29 + 1;\u000a          uVar20 = uVar20 << 8;\u000a          uVar19 = (uint)*pbVar29 | uVar19 << 8;\u000a        }\u000a        uVar14 = *puVar9;\u000a        uVar6 = (uint)uVar14 * (uVar20 >> 0xb);\u000a        if (uVar19 < uVar6) {\u000a          puVar8 = puVar9 + uVar26 * 8 + 2;\u000a          iVar27 = 3;\u000a          iVar16 = 0;\u000a          *puVar9 = uVar14 + (short)((int)(0x800 - (uint)uVar14) >> 5);\u000a          pbVar30 = pbVar11;\u000a        }\u000a        else {\u000a          uVar20 = uVar20 - uVar6;\u000a          uVar19 = uVar19 - uVar6;\u000a          *puVar9 = uVar14 - (uVar14 >> 5);\u000a          pbVar30 = pbVar11;\u000a          if (uVar20 < 0x1000000) {\u000a            if (pbVar11 == pbVar25) {\u000a              return 1;\u000a            }\u000a            pbVar30 = pbVar11 + 1;\u000a            uVar20 = uVar20 * 0x100;\u000a            uVar19 = (uint)*pbVar11 | uVar19 * 0x100;\u000a          }\u000a          uVar14 = puVar9[1];\u000a          uVar6 = (uint)uVar14 * (uVar20 >> 0xb);\u000a          if (uVar19 < uVar6) {\u000a            puVar8 = puVar9 + uVar26 * 8 + 0x82;\u000a            iVar27 = 3;\u000a            iVar16 = 8;\u000a            puVar9[1] = uVar14 + (short)((int)(0x800 - (uint)uVar14) >> 5);\u000a          }\u000a          else {\u000a            puVar9[1] = uVar14 - (uVar14 >> 5);\u000a            uVar19 = uVar19 - uVar6;\u000a            uVar6 = uVar20 - uVar6;\u000a            puVar8 = puVar9 + 0x102;\u000a            iVar27 = 8;\u000a            iVar16 = 0x10;\u000a          }\u000a        }\u000a        iVar10 = 1;\u000a        iVar22 = iVar27;\u000a        do {\u000a          pbVar29 = pbVar30;\u000a          if (uVar6 < 0x1000000) {\u000a            uVar6 = uVar6 << 8;\u000a            if (pbVar30 == pbVar25) {\u000a              return 1;\u000a            }\u000a            pbVar29 = pbVar30 + 1;\u000a            uVar19 = (uint)*pbVar30 | uVar19 << 8;\u000a          }\u000a          uVar14 = puVar8[iVar10];\u000a          uVar20 = (uint)uVar14 * (uVar6 >> 0xb);\u000a          uVar6 = uVar6 - uVar20;\u000a          if (uVar19 < uVar20) {\u000a            puVar8[iVar10] = uVar14 + (short)((int)(0x800 - (uint)uVar14) >> 5);\u000a            iVar10 = iVar10 * 2;\u000a            uVar6 = uVar20;\u000a          }\u000a          else {\u000a            uVar19 = uVar19 - uVar20;\u000a            puVar8[iVar10] = uVar14 - (uVar14 >> 5);\u000a            iVar10 = iVar10 * 2 + 1;\u000a          }\u000a          iVar22 = iVar22 + -1;\u000a          pbVar30 = pbVar29;\u000a        } while (iVar22 != 0);\u000a        iVar16 = (iVar10 - (1 << iVar27)) + iVar16;\u000a        if (local_3c < (sbyte *)0x4) {\u000a          iVar27 = iVar16;\u000a          if (2 < iVar16) {\u000a            iVar27 = 3;\u000a          }\u000a          local_28 = psVar5 + iVar27 * 0x80 + 0x360;\u000a          iVar27 = 1;\u000a          psVar12 = (sbyte *)0x6;\u000a          pbVar11 = pbVar29;\u000a          do {\u000a            iVar10 = iVar27 * 2;\u000a            pbVar29 = pbVar11;\u000a            if (uVar6 < 0x1000000) {\u000a              uVar6 = uVar6 << 8;\u000a              if (pbVar11 == pbVar25) {\u000a                return 1;\u000a              }\u000a              pbVar29 = pbVar11 + 1;\u000a              uVar19 = (uint)*pbVar11 | uVar19 << 8;\u000a            }\u000a            uVar14 = *(ushort *)(local_28 + iVar10);\u000a            uVar20 = (uint)uVar14 * (uVar6 >> 0xb);\u000a            uVar6 = uVar6 - uVar20;\u000a            if (uVar19 < uVar20) {\u000a              *(ushort *)(local_28 + iVar10) = uVar14 + (short)((int)(0x800 - (uint)uVar14) >> 5);\u000a              iVar27 = iVar10;\u000a              uVar6 = uVar20;\u000a            }\u000a            else {\u000a              uVar19 = uVar19 - uVar20;\u000a              *(ushort *)(local_28 + iVar10) = uVar14 - (uVar14 >> 5);\u000a              iVar27 = iVar27 * 2 + 1;\u000a            }\u000a            psVar12 = psVar12 + -1;\u000a            pbVar11 = pbVar29;\u000a          } while (psVar12 != (sbyte *)0x0);\u000a          psVar24 = (sbyte *)(iVar27 + -0x40);\u000a          if ((int)psVar24 < 4) {\u000a            local_28 = psVar24;\u000a          }\u000a          if (psVar24 != (sbyte *)0x3 && iVar27 + -0x43 < 0 == SBORROW4((int)psVar24,3)) {\u000a            psVar17 = (sbyte *)((int)psVar24 >> 1);\u000a            bVar31 = iVar27 + -0x4d < 0;\u000a            psVar23 = psVar17 + -1;\u000a            uVar20 = (uint)psVar24 & 1 | 2;\u000a            if (0xd < (int)psVar24) {\u000a              psVar17 = psVar17 + -5;\u000a            }\u000a            psVar13 = psVar24;\u000a            if (psVar24 != (sbyte *)0xd && bVar31 == SBORROW4((int)psVar24,0xd)) {\u000a              psVar13 = psVar12;\u000a            }\u000a            pbVar11 = pbVar29;\u000a            if (psVar24 != (sbyte *)0xd && bVar31 == SBORROW4((int)psVar24,0xd)) {\u000a              do {\u000a                psVar13 = psVar13 + 1;\u000a                pbVar29 = pbVar11;\u000a                if (uVar6 < 0x1000000) {\u000a                  uVar6 = uVar6 << 8;\u000a                  if (pbVar11 == pbVar25) {\u000a                    return 1;\u000a                  }\u000a                  pbVar29 = pbVar11 + 1;\u000a                  uVar19 = (uint)*pbVar11 | uVar19 << 8;\u000a                }\u000a                uVar6 = uVar6 >> 1;\u000a                uVar20 = uVar20 << 1;\u000a                if (uVar6 <= uVar19) {\u000a                  uVar19 = uVar19 - uVar6;\u000a                  uVar20 = uVar20 | 1;\u000a                }\u000a                pbVar11 = pbVar29;\u000a              } while (psVar13 != psVar17);\u000a              psVar12 = param_1 + 0x648;\u000a              local_28 = (sbyte *)(uVar20 << 4);\u000a              psVar23 = (sbyte *)0x4;\u000a            }\u000a            else {\u000a              local_28 = (sbyte *)(uVar20 << ((uint)psVar23 & 0xff));\u000a              psVar12 = psVar5 + (int)psVar13 * -2 + (int)local_28 * 2 + 0x55e;\u000a            }\u000a            uVar20 = 1;\u000a            iVar27 = 1;\u000a            pbVar11 = pbVar29;\u000a            do {\u000a              iVar10 = iVar27 * 2;\u000a              iVar27 = iVar27 * 2 + 1;\u000a              uVar21 = uVar6;\u000a              pbVar29 = pbVar11;\u000a              if (uVar6 < 0x1000000) {\u000a                uVar21 = uVar6 << 8;\u000a                if (pbVar11 == pbVar25) {\u000a                  return 1;\u000a                }\u000a                pbVar29 = pbVar11 + 1;\u000a                uVar19 = (uint)*pbVar11 | uVar19 << 8;\u000a              }\u000a              uVar14 = *(ushort *)(psVar12 + iVar10);\u000a              uVar6 = (uint)uVar14 * (uVar21 >> 0xb);\u000a              if (uVar19 < uVar6) {\u000a                *(ushort *)(psVar12 + iVar10) = uVar14 + (short)((int)(0x800 - (uint)uVar14) >> 5);\u000a                iVar27 = iVar10;\u000a              }\u000a              else {\u000a                local_28 = (sbyte *)((uint)local_28 | uVar20);\u000a                *(ushort *)(psVar12 + iVar10) = uVar14 - (uVar14 >> 5);\u000a                uVar19 = uVar19 - uVar6;\u000a                uVar6 = uVar21 - uVar6;\u000a              }\u000a              psVar23 = psVar23 + -1;\u000a              uVar20 = uVar20 << 1;\u000a              pbVar11 = pbVar29;\u000a            } while (psVar23 != (sbyte *)0x0);\u000a          }\u000a          local_28 = local_28 + 1;\u000a          if (local_28 == (sbyte *)0x0) break;\u000a          local_3c = local_3c + 7;\u000a        }\u000a        if (psVar28 < local_28) {\u000a          return 1;\u000a        }\u000a        iVar16 = iVar16 + 2;\u000a        pbVar11 = (byte *)(psVar28 + (param_5 - (int)local_28));\u000a        pbVar30 = (byte *)(psVar28 + param_5);\u000a        do {\u000a          iVar16 = iVar16 + -1;\u000a          psVar28 = psVar28 + 1;\u000a          uVar20 = (uint)*pbVar11;\u000a          *pbVar30 = *pbVar11;\u000a          pbVar11 = pbVar11 + 1;\u000a          pbVar30 = pbVar30 + 1;\u000a          psVar12 = local_3c;\u000a        } while (psVar28 < param_6 && iVar16 != 0);\u000a      }\u000a      else {\u000a        uVar21 = uVar21 - uVar20;\u000a        *puVar8 = uVar14 - (uVar14 >> 5);\u000a        uVar19 = uVar19 - uVar20;\u000a        pbVar11 = pbVar29;\u000a        if (uVar21 < 0x1000000) {\u000a          if (pbVar29 == pbVar25) {\u000a            return 1;\u000a          }\u000a          pbVar11 = pbVar29 + 1;\u000a          uVar21 = uVar21 * 0x100;\u000a          uVar19 = (uint)*pbVar29 | uVar19 * 0x100;\u000a        }\u000a        puVar8 = (ushort *)(psVar24 + 0x198);\u000a        uVar14 = *puVar8;\u000a        uVar20 = (uint)uVar14 * (uVar21 >> 0xb);\u000a        if (uVar20 <= uVar19) {\u000a          uVar21 = uVar21 - uVar20;\u000a          *puVar8 = uVar14 - (uVar14 >> 5);\u000a          uVar19 = uVar19 - uVar20;\u000a          pbVar30 = pbVar11;\u000a          if (uVar21 < 0x1000000) {\u000a            if (pbVar11 == pbVar25) {\u000a              return 1;\u000a            }\u000a            pbVar30 = pbVar11 + 1;\u000a            uVar21 = uVar21 * 0x100;\u000a            uVar19 = (uint)*pbVar11 | uVar19 * 0x100;\u000a          }\u000a          puVar8 = (ushort *)(psVar24 + 0x1b0);\u000a          uVar14 = *puVar8;\u000a          uVar6 = (uint)uVar14 * (uVar21 >> 0xb);\u000a          if (uVar19 < uVar6) {\u000a            uVar14 = uVar14 + (short)((int)(0x800 - (uint)uVar14) >> 5);\u000a            psVar12 = local_38;\u000a            pbVar29 = pbVar30;\u000aLAB_0000f2f0:\u000a            local_38 = local_28;\u000a            uVar20 = uVar6;\u000a            local_28 = psVar12;\u000a            goto LAB_0000f2f4;\u000a          }\u000a          uVar21 = uVar21 - uVar6;\u000a          *puVar8 = uVar14 - (uVar14 >> 5);\u000a          uVar19 = uVar19 - uVar6;\u000a          pbVar29 = pbVar30;\u000a          if (uVar21 < 0x1000000) {\u000a            if (pbVar30 == pbVar25) {\u000a              return 1;\u000a            }\u000a            pbVar29 = pbVar30 + 1;\u000a            uVar21 = uVar21 * 0x100;\u000a            uVar19 = (uint)*pbVar30 | uVar19 * 0x100;\u000a          }\u000a          puVar8 = (ushort *)(psVar24 + 0x1c8);\u000a          uVar14 = *puVar8;\u000a          uVar6 = (uint)uVar14 * (uVar21 >> 0xb);\u000a          if (uVar19 < uVar6) {\u000a            uVar14 = uVar14 + (short)((int)(0x800 - (uint)uVar14) >> 5);\u000a            psVar12 = local_34;\u000a            local_34 = local_38;\u000a            goto LAB_0000f2f0;\u000a          }\u000a          *puVar8 = uVar14 - (uVar14 >> 5);\u000a          uVar20 = uVar21 - uVar6;\u000a          local_30 = local_34;\u000a          local_34 = local_38;\u000a          local_38 = local_28;\u000a          local_28 = psVar12;\u000a          uVar19 = uVar19 - uVar6;\u000aLAB_0000f394:\u000a          if ((int)local_3c < 7) {\u000a            local_3c = (sbyte *)0x8;\u000a          }\u000a          else {\u000a            local_3c = (sbyte *)0xb;\u000a          }\u000a          puVar9 = (ushort *)(param_1 + 0xa6c);\u000a          goto LAB_0000f3b4;\u000a        }\u000a        *puVar8 = uVar14 + (short)((int)(0x800 - (uint)uVar14) >> 5);\u000a        pbVar29 = pbVar11;\u000a        if (uVar20 < 0x1000000) {\u000a          if (pbVar11 == pbVar25) {\u000a            return 1;\u000a          }\u000a          pbVar29 = pbVar11 + 1;\u000a          uVar20 = uVar20 * 0x100;\u000a          uVar19 = (uint)*pbVar11 | uVar19 << 8;\u000a        }\u000a        puVar8 = (ushort *)(psVar5 + uVar26 * 2 + (int)local_3c * 0x20 + 0x1e0);\u000a        uVar14 = *puVar8;\u000a        uVar6 = (uint)uVar14 * (uVar20 >> 0xb);\u000a        if (uVar6 <= uVar19) {\u000a          uVar19 = uVar19 - uVar6;\u000a          uVar14 = uVar14 - (uVar14 >> 5);\u000a          uVar20 = uVar20 - uVar6;\u000aLAB_0000f2f4:\u000a          *puVar8 = uVar14;\u000a          goto LAB_0000f394;\u000a        }\u000a        *puVar8 = uVar14 + (short)((int)(0x800 - (uint)uVar14) >> 5);\u000a        if (psVar28 == (sbyte *)0x0) {\u000a          return 1;\u000a        }\u000a        uVar20 = (uint)(byte)psVar28[param_5 - (int)local_28];\u000a        if ((int)local_3c < 7) {\u000a          psVar12 = (sbyte *)0x9;\u000a        }\u000a        else {\u000a          psVar12 = (sbyte *)0xb;\u000a        }\u000a        psVar28[param_5] = psVar28[param_5 - (int)local_28];\u000a        psVar28 = psVar28 + 1;\u000a      }\u000a    }\u000a  }\u000a  if (uVar6 < 0x1000000) {\u000a    if (pbVar29 == pbVar25) {\u000a      return 1;\u000a    }\u000a    pbVar29 = pbVar29 + 1;\u000a  }\u000a  *param_4 = pbVar29 + -(int)param_2;\u000a  *param_7 = psVar28;\u000a  return 0;\u000a}\u000a\u000a
p3
S'stmdb sp!,{ r4 r5 r6 r7 r8 r9 r10 r11 lr }\nsub sp,sp,#0x30\nstr r3,[sp,#0x0]\nldrb r3,[r0,#0x0]\nldrb r5,[r0,#0x2]\nldrb lr,[r0,#0x1]\nldr r12,[sp,#0x0]\nstr r3,[sp,#0x14]\nldr r3,[sp,#0x5c]\nmov r4,#0x0\nstr r4,[r12,#0x0]\nstr r4,[r3,#0x0]\nldr r12,[sp,#0x14]\nldrb r3,[r0,#0x1]\nadd r3,r12,r3\nmov r12,#0x300\nmov r12,r12, lsl r3\nmov r3,#0x1\nmov lr,r3, lsl lr\nmov r3,r3, lsl r5\nadd r12,r12,#0x730\nsub r3,r3,#0x1\nsub lr,lr,#0x1\nadd r0,r0,#0x4\nadd r12,r12,#0x6\nstr r1,[sp,#0x4]\nstr r3,[sp,#0xc]\nstr lr,[sp,#0x10]\nstr r0,[sp,#0x8]\nb 0x0000eea8\nldr r0,[sp,#0x8]\nmov r1,#0x400\nstrh r1,[r3,r0]\ncmp r4,r12\nmov r3,r4, lsl #0x1\nadd r4,r4,#0x1\nbne 0x0000ee9c\nldr r3,[sp,#0x4]\nmov r6,#0x0\nadd r9,r3,r2\ncpy lr,r3\ncpy r2,r6\nldr r5,[sp,#0x4]\nrsb r3,r5,r9\ncmp r2,r3\nadd lr,lr,#0x1\nbeq 0x0000f750\nldrb r3,[r2,r5]\nadd r2,r2,#0x1\ncmp r2,#0x5\norr r6,r3,r6, lsl #0x8\nbne 0x0000eecc\nmov r11,#0x0\nmov r12,#0x1\ncpy r7,r11\nmvn r0,#0x0\nstr r12,[sp,#0x2c]\nstr r11,[sp,#0x18]\nstr r12,[sp,#0x1c]\nstr r12,[sp,#0x20]\nstr r12,[sp,#0x24]\nb 0x0000f710\nmvn r8,#0xff000000\ncmp r0,r8\nbhi 0x0000ef3c\ncmp lr,r9\nbeq 0x0000f750\nldrb r3,[lr],#0x1\nmov r0,r0, lsl #0x8\norr r6,r3,r6, lsl #0x8\nldr r1,[sp,#0xc]\nldr r2,[sp,#0x18]\nand r10,r11,r1\nmov r1,r2, lsl #0x4\nadd r3,r10,r1\nmov r5,r3, lsl #0x1\nldr r3,[sp,#0x8]\nldrh r12,[r3,r5]\nmov r3,r0, lsr #0xb\nmul r4,r12,r3\ncmp r6,r4\nbcs 0x0000f110\nldr r0,[sp,#0x14]\nrsb r3,r0,#0x8\nmov r3,r7, asr r3\nldr r1,[sp,#0x10]\nand r2,r11,r1\nadd r3,r3,r2, lsl r0\nldr r0,[sp,#0x8]\nmov r2,#0x600\nmla r2,r3,r2,r0\nldr r1,[sp,#0x18]\nrsb r3,r12,#0x800\ncmp r1,#0x6\nadd r3,r12,r3, asr #0x5\nadd r8,r2,#0xe60\nstrh r3,[r0,r5]\nadd r8,r8,#0xc\ncpyle r0,r4\nmovle r1,#0x1\nble 0x0000f0bc\nldr r2,[sp,#0x2c]\nldr r5,[sp,#0x54]\nrsb r3,r2,r11\nldrb r7,[r5,r3]\ncpy r0,r4\nmov r1,#0x1\nmov r7,r7, lsl #0x1\nand r5,r7,#0x100\nmov r10,r1, lsl #0x1\nadd r3,r8,r5, lsl #0x1\nadd r3,r3,r10\ncmp r0,#0x1000000\nadd r4,r3,#0x200\nadd r12,r1,#0x1\nbcs 0x0000f008\ncmp lr,r9\nmov r0,r0, lsl #0x8\nbeq 0x0000f750\nldrb r3,[lr],#0x1\norr r6,r3,r6, lsl #0x8\nldrh r3,[r4,#0x0]\nmov r2,r0, lsr #0xb\nadd r1,r1,r12\nmul r12,r3,r2\nrsb r2,r3,#0x800\ncmp r6,r12\nadd r2,r3,r2, asr #0x5\nsub r3,r3,r3, lsr #0x5\nbcs 0x0000f048\ncmp r5,#0x0\ncpy r0,r12\nstrh r2,[r4,#0x0]\ncpy r1,r10\nbeq 0x0000f05c\ncpy r0,r12\nb 0x0000f0bc\ncmp r5,#0x0\nstrh r3,[r4,#0x0]\nrsb r6,r12,r6\nrsb r0,r12,r0\nbeq 0x0000f0bc\ncmp r1,#0xff\nbgt 0x0000f0cc\nb 0x0000efd0\ncmp r0,#0x1000000\nadd r1,r1,r3\nbcs 0x0000f088\ncmp lr,r9\nmov r0,r0, lsl #0x8\nbeq 0x0000f750\nldrb r3,[lr],#0x1\norr r6,r3,r6, lsl #0x8\nldrh r3,[r8,r4]\nmov r2,r0, lsr #0xb\nmul r12,r3,r2\nrsb r2,r3,#0x800\ncmp r6,r12\nsub r5,r3,r3, lsr #0x5\nadd r3,r3,r2, asr #0x5\nstrhcc r3,[r8,r4]\nstrhcs r5,[r8,r4]\nrsb r0,r12,r0\ncpycc r1,r4\ncpycc r0,r12\nrsbcs r6,r12,r6\ncmp r1,#0xff\nmov r4,r1, lsl #0x1\nadd r3,r1,#0x1\nble 0x0000f068\nldr r12,[sp,#0x18]\nand r7,r1,#0xff\ncmp r12,#0x3\nldr r1,[sp,#0x54]\nmovle r2,#0x0\nstrb r7,[r1,r11]\nadd r11,r11,#0x1\nstrle r2,[sp,#0x18]\nble 0x0000f710\nldr r3,[sp,#0x18]\ncmp r3,#0x9\nldrgt r5,[sp,#0x18]\nsuble r3,r3,#0x3\nsubgt r5,r5,#0x6\nstrle r3,[sp,#0x18]\nstrgt r5,[sp,#0x18]\nb 0x0000f710\nsub r3,r12,r12, lsr #0x5\nrsb r2,r4,r0\nldr r12,[sp,#0x8]\ncmp r2,r8\nstrh r3,[r12,r5]\nrsb r6,r4,r6\nbhi 0x0000f140\ncmp lr,r9\nbeq 0x0000f750\nldrb r3,[lr],#0x1\nmov r2,r2, lsl #0x8\norr r6,r3,r6, lsl #0x8\nldr r0,[sp,#0x8]\nldr r3,[sp,#0x18]\nadd r7,r0,r3, lsl #0x1\nadd r0,r7,#0x180\nldrh r12,[r0,#0x0]\nmov r3,r2, lsr #0xb\nmul r4,r12,r3\ncmp r6,r4\nbcs 0x0000f1b0\nldr r2,[sp,#0x18]\nldr r5,[sp,#0x8]\ncmp r2,#0x6\nrsb r3,r12,#0x800\nadd r1,r5,#0x660\nmovgt r2,#0x3\nldr r5,[sp,#0x20]\nmovle r2,#0x0\nadd r3,r12,r3, asr #0x5\nstr r2,[sp,#0x18]\nldr r12,[sp,#0x1c]\nldr r2,[sp,#0x2c]\nstr r5,[sp,#0x24]\nadd r1,r1,#0x4\ncpy r5,r4\nstr r12,[sp,#0x20]\nstr r2,[sp,#0x1c]\nstrh r3,[r0,#0x0]\nb 0x0000f3b4\nrsb r2,r4,r2\nsub r3,r12,r12, lsr #0x5\ncmp r2,r8\nstrh r3,[r0,#0x0]\nrsb r6,r4,r6\nbhi 0x0000f1dc\ncmp lr,r9\nbeq 0x0000f750\nldrb r3,[lr],#0x1\nmov r2,r2, lsl #0x8\norr r6,r3,r6, lsl #0x8\nadd r5,r7,#0x198\nldrh r12,[r5,#0x0]\nmov r3,r2, lsr #0xb\nmul r4,r12,r3\ncmp r6,r4\nbcs 0x0000f294\nrsb r3,r12,#0x800\nadd r3,r12,r3, asr #0x5\ncmp r4,r8\nstrh r3,[r5,#0x0]\nbhi 0x0000f21c\ncmp lr,r9\nbeq 0x0000f750\nldrb r3,[lr],#0x1\nmov r4,r4, lsl #0x8\norr r6,r3,r6, lsl #0x8\nldr r5,[sp,#0x8]\nadd r3,r5,r1, lsl #0x1\nadd r3,r3,r10, lsl #0x1\nadd r1,r3,#0x1e0\nldrh r12,[r1,#0x0]\nmov r3,r4, lsr #0xb\nmul r2,r12,r3\ncmp r6,r2\nrsbcs r6,r2,r6\nsubcs r3,r12,r12, lsr #0x5\nrsbcs r5,r2,r4\nbcs 0x0000f2f4\nrsb r3,r12,#0x800\nadd r3,r12,r3, asr #0x5\ncmp r11,#0x0\nstrh r3,[r1,#0x0]\nbeq 0x0000f750\nldr r12,[sp,#0x2c]\nldr r1,[sp,#0x18]\nldr r0,[sp,#0x54]\nrsb r3,r12,r11\nldrb r7,[r0,r3]\ncmp r1,#0x6\nmovgt r1,#0xb\nmovle r1,#0x9\nstr r1,[sp,#0x18]\nstrb r7,[r0,r11]\ncpy r0,r2\nadd r11,r11,#0x1\nb 0x0000f710\nrsb r2,r4,r2\nsub r3,r12,r12, lsr #0x5\ncmp r2,r8\nstrh r3,[r5,#0x0]\nrsb r6,r4,r6\nbhi 0x0000f2c0\ncmp lr,r9\nbeq 0x0000f750\nldrb r3,[lr],#0x1\nmov r2,r2, lsl #0x8\norr r6,r3,r6, lsl #0x8\nadd r1,r7,#0x1b0\nldrh r12,[r1,#0x0]\nmov r3,r2, lsr #0xb\nmul r4,r12,r3\ncmp r6,r4\nbcs 0x0000f2fc\nldr r5,[sp,#0x2c]\nrsb r3,r12,#0x800\nldr r2,[sp,#0x1c]\nadd r3,r12,r3, asr #0x5\nstr r5,[sp,#0x1c]\ncpy r5,r4\nstr r2,[sp,#0x2c]\nstrh r3,[r1,#0x0]\nb 0x0000f394\nrsb r2,r4,r2\nsub r3,r12,r12, lsr #0x5\ncmp r2,r8\nstrh r3,[r1,#0x0]\nrsb r6,r4,r6\nbhi 0x0000f328\ncmp lr,r9\nbeq 0x0000f750\nldrb r3,[lr],#0x1\nmov r2,r2, lsl #0x8\norr r6,r3,r6, lsl #0x8\nadd r1,r7,#0x1c8\nldrh r12,[r1,#0x0]\nmov r3,r2, lsr #0xb\nmul r4,r12,r3\ncmp r6,r4\nbcs 0x0000f364\nrsb r3,r12,#0x800\nldr r2,[sp,#0x20]\nadd r3,r12,r3, asr #0x5\nldr r0,[sp,#0x2c]\nldr r12,[sp,#0x1c]\ncpy r5,r4\nstr r12,[sp,#0x20]\nstr r0,[sp,#0x1c]\nb 0x0000f2f0\nsub r3,r12,r12, lsr #0x5\nstrh r3,[r1,#0x0]\nldr r12,[sp,#0x2c]\nadd r1,sp,#0x20\nldmia r1,{ r1 r3 }\nrsb r5,r4,r2\nldr r2,[sp,#0x1c]\nstr r1,[sp,#0x24]\nstr r2,[sp,#0x20]\nstr r12,[sp,#0x1c]\nstr r3,[sp,#0x2c]\nrsb r6,r4,r6\nldr r2,[sp,#0x18]\nldr r0,[sp,#0x8]\ncmp r2,#0x6\nmovgt r2,#0xb\nmovle r2,#0x8\nadd r1,r0,#0xa60\nstr r2,[sp,#0x18]\nadd r1,r1,#0x8\nmvn r7,#0xff000000\ncmp r5,r7\nbhi 0x0000f3d4\ncmp lr,r9\nbeq 0x0000f750\nldrb r3,[lr],#0x1\nmov r5,r5, lsl #0x8\norr r6,r3,r6, lsl #0x8\nldrh r12,[r1,#0x0]\nmov r3,r5, lsr #0xb\nmul r4,r12,r3\ncmp r6,r4\nbcs 0x0000f40c\nadd r2,r1,r10, lsl #0x4\nrsb r3,r12,#0x800\nadd r3,r12,r3, asr #0x5\nadd r5,r2,#0x4\ncpy r0,r4\nmov r10,#0x3\nmov r8,#0x0\nstrh r3,[r1,#0x0]\nb 0x0000f48c\nrsb r2,r4,r5\nsub r3,r12,r12, lsr #0x5\ncmp r2,r7\nrsb r6,r4,r6\nstrh r3,[r1,#0x0]\nbhi 0x0000f438\ncmp lr,r9\nbeq 0x0000f750\nldrb r3,[lr],#0x1\nmov r2,r2, lsl #0x8\norr r6,r3,r6, lsl #0x8\nldrh r12,[r1,#0x2]\nmov r3,r2, lsr #0xb\nmul r4,r12,r3\ncmp r6,r4\nbcs 0x0000f470\nadd r2,r1,r10, lsl #0x4\nrsb r3,r12,#0x800\nadd r3,r12,r3, asr #0x5\nadd r5,r2,#0x104\ncpy r0,r4\nmov r10,#0x3\nmov r8,#0x8\nstrh r3,[r1,#0x2]\nb 0x0000f48c\nsub r3,r12,r12, lsr #0x5\nstrh r3,[r1,#0x2]\nrsb r6,r4,r6\nrsb r0,r4,r2\nadd r5,r1,#0x204\nmov r10,#0x8\nmov r8,#0x10\ncpy r7,r10\nmov r1,#0x1\nadd r3,r1,#0x1\ncmp r0,#0x1000000\nmov r4,r1, lsl #0x1\nadd r1,r1,r3\nbcs 0x0000f4bc\ncmp lr,r9\nmov r0,r0, lsl #0x8\nbeq 0x0000f750\nldrb r3,[lr],#0x1\norr r6,r3,r6, lsl #0x8\nldrh r3,[r5,r4]\nmov r2,r0, lsr #0xb\nmul r12,r3,r2\nrsb r2,r3,#0x800\ncmp r6,r12\nadd r2,r3,r2, asr #0x5\nsub r3,r3,r3, lsr #0x5\nrsb r0,r12,r0\ncpycc r1,r4\ncpycc r0,r12\nstrhcc r2,[r5,r4]\nrsbcs r6,r12,r6\nstrhcs r3,[r5,r4]\nsubs r7,r7,#0x1\nbne 0x0000f494\nmov r2,#0x1\nsub r3,r1,r2, lsl r10\nldr r5,[sp,#0x18]\nadd r3,r3,r8\ncmp r5,#0x3\nstr r3,[sp,#0x28]\nbgt 0x0000f6bc\nldr r12,[sp,#0x8]\ncmp r3,#0x3\nmovge r3,#0x3\nadd r3,r12,r3, lsl #0x7\nadd r5,r3,#0x360\ncpy r7,r2\nmov r8,#0x6\nadd r3,r7,#0x1\ncmp r0,#0x1000000\nmov r4,r7, lsl #0x1\nadd r7,r7,r3\nbcs 0x0000f558\ncmp lr,r9\nmov r0,r0, lsl #0x8\nbeq 0x0000f750\nldrb r3,[lr],#0x1\norr r6,r3,r6, lsl #0x8\nldrh r3,[r5,r4]\nmov r2,r0, lsr #0xb\nmul r12,r3,r2\nrsb r2,r3,#0x800\ncmp r6,r12\nadd r2,r3,r2, asr #0x5\nsub r3,r3,r3, lsr #0x5\nrsb r0,r12,r0\ncpycc r7,r4\ncpycc r0,r12\nstrhcc r2,[r5,r4]\nrsbcs r6,r12,r6\nstrhcs r3,[r5,r4]\nsubs r8,r8,#0x1\nbne 0x0000f530\nsub r2,r7,#0x40\ncmp r2,#0x3\ncpyle r5,r2\nble 0x0000f6a4\nmov r4,r2, asr #0x1\ncmp r2,#0xd\nand r3,r2,#0x1\nsub r7,r4,#0x1\norr r12,r3,#0x2\nsubgt r4,r4,#0x5\ncpygt r2,r8\nbgt 0x0000f5e0\nmov r5,r12, lsl r7\nldr r1,[sp,#0x8]\nadd r3,r1,r5, lsl #0x1\nsub r3,r3,r2, lsl #0x1\nadd r4,r3,#0x550\nadd r4,r4,#0xe\nb 0x0000f630\ncmp r0,#0x1000000\nadd r2,r2,#0x1\nbcs 0x0000f600\ncmp lr,r9\nmov r0,r0, lsl #0x8\nbeq 0x0000f750\nldrb r3,[lr],#0x1\norr r6,r3,r6, lsl #0x8\nmov r0,r0, lsr #0x1\ncmp r6,r0\nmov r12,r12, lsl #0x1\nrsbcs r6,r0,r6\norrcs r12,r12,#0x1\ncmp r2,r4\nbne 0x0000f5e0\nldr r2,[sp,#0x8]\nadd r4,r2,#0x640\nadd r4,r4,#0x4\nmov r5,r12, lsl #0x4\nmov r7,#0x4\nmov r10,#0x1\ncpy r8,r10\ncmp r0,#0x1000000\nmov r1,r8, lsl #0x1\nadd r12,r8,#0x1\nbcs 0x0000f65c\ncmp lr,r9\nmov r0,r0, lsl #0x8\nbeq 0x0000f750\nldrb r3,[lr],#0x1\norr r6,r3,r6, lsl #0x8\nldrh r3,[r4,r1]\nmov r2,r0, lsr #0xb\nadd r8,r8,r12\nmul r12,r3,r2\nrsb r2,r3,#0x800\ncmp r6,r12\nadd r2,r3,r2, asr #0x5\nsub r3,r3,r3, lsr #0x5\norrcs r5,r5,r10\ncpycc r8,r1\ncpycc r0,r12\nstrhcc r2,[r4,r1]\nstrhcs r3,[r4,r1]\nrsbcs r6,r12,r6\nrsbcs r0,r12,r0\nsubs r7,r7,#0x1\nmov r10,r10, lsl #0x1\nbne 0x0000f638\nadds r5,r5,#0x1\nstr r5,[sp,#0x2c]\nbeq 0x0000f71c\nldr r3,[sp,#0x18]\nadd r3,r3,#0x7\nstr r3,[sp,#0x18]\nldr r5,[sp,#0x2c]\ncmp r5,r11\nbhi 0x0000f750\nldr r12,[sp,#0x28]\nldr r1,[sp,#0x54]\nrsb r3,r5,r11\nadd r2,r12,#0x2\nadd r4,r1,r3\nadd r12,r1,r11\nsubs r2,r2,#0x1\nldr r5,[sp,#0x58]\nmoveq r3,#0x0\nmovne r3,#0x1\nadd r11,r11,#0x1\ncmp r11,r5\nmovcs r3,#0x0\nandcc r3,r3,#0x1\nldrb r7,[r4],#0x1\ncmp r3,#0x0\nstrb r7,[r12],#0x1\nbne 0x0000f6e0\nldr r12,[sp,#0x58]\ncmp r11,r12\nbcc 0x0000ef1c\ncmp r0,#0x1000000\nbcs 0x0000f730\ncmp lr,r9\nbeq 0x0000f750\nadd lr,lr,#0x1\nldr r0,[sp,#0x4]\nldr r1,[sp,#0x0]\nldr r2,[sp,#0x5c]\nrsb r3,r0,lr\nmov r0,#0x0\nstr r3,[r1,#0x0]\nstr r11,[r2,#0x0]\nb 0x0000f754\nmov r0,#0x1\nadd sp,sp,#0x30\nldmia sp!,{ r4 r5 r6 r7 r8 r9 r10 r11 pc }\n'
p4
S'f0 4f 2d e9\n30 d0 4d e2\n00 30 8d e5\n00 30 d0 e5\n02 50 d0 e5\n01 e0 d0 e5\n00 c0 9d e5\n14 30 8d e5\n5c 30 9d e5\n00 40 a0 e3\n00 40 8c e5\n00 40 83 e5\n14 c0 9d e5\n01 30 d0 e5\n03 30 8c e0\n03 cc a0 e3\n1c c3 a0 e1\n01 30 a0 e3\n13 ee a0 e1\n13 35 a0 e1\n73 ce 8c e2\n01 30 43 e2\n01 e0 4e e2\n04 00 80 e2\n06 c0 8c e2\n04 10 8d e5\n0c 30 8d e5\n10 e0 8d e5\n08 00 8d e5\n02 00 00 ea\n08 00 9d e5\n01 1b a0 e3\nb0 10 83 e1\n0c 00 54 e1\n84 30 a0 e1\n01 40 84 e2\nf8 ff ff 1a\n04 30 9d e5\n00 60 a0 e3\n02 90 83 e0\n03 e0 a0 e1\n06 20 a0 e1\n04 50 9d e5\n09 30 65 e0\n03 00 52 e1\n01 e0 8e e2\n1b 02 00 0a\n05 30 d2 e7\n01 20 82 e2\n05 00 52 e3\n06 64 83 e1\nf5 ff ff 1a\n00 b0 a0 e3\n01 c0 a0 e3\n0b 70 a0 e1\n00 00 e0 e3\n2c c0 8d e5\n18 b0 8d e5\n1c c0 8d e5\n20 c0 8d e5\n24 c0 8d e5\nfc 01 00 ea\nff 84 e0 e3\n08 00 50 e1\n04 00 00 8a\n09 00 5e e1\n07 02 00 0a\n01 30 de e4\n00 04 a0 e1\n06 64 83 e1\n0c 10 9d e5\n18 20 9d e5\n01 a0 0b e0\n02 12 a0 e1\n01 30 8a e0\n83 50 a0 e1\n08 30 9d e5\nb5 c0 93 e1\na0 35 a0 e1\n9c 03 04 e0\n04 00 56 e1\n68 00 00 2a\n14 00 9d e5\n08 30 60 e2\n57 33 a0 e1\n10 10 9d e5\n01 20 0b e0\n12 30 83 e0\n08 00 9d e5\n06 2c a0 e3\n93 02 22 e0\n18 10 9d e5\n02 3b 6c e2\n06 00 51 e3\nc3 32 8c e0\ne6 8e 82 e2\nb5 30 80 e1\n0c 80 88 e2\n04 00 a0 d1\n01 10 a0 d3\n40 00 00 da\n2c 20 9d e5\n54 50 9d e5\n0b 30 62 e0\n03 70 d5 e7\n04 00 a0 e1\n01 10 a0 e3\n87 70 a0 e1\n01 5c 07 e2\n81 a0 a0 e1\n85 30 88 e0\n0a 30 83 e0\n01 04 50 e3\n02 4c 83 e2\n01 c0 81 e2\n04 00 00 2a\n09 00 5e e1\n00 04 a0 e1\nd3 01 00 0a\n01 30 de e4\n06 64 83 e1\nb0 30 d4 e1\na0 25 a0 e1\n0c 10 81 e0\n93 02 0c e0\n02 2b 63 e2\n0c 00 56 e1\nc2 22 83 e0\na3 32 43 e0\n06 00 00 2a\n00 00 55 e3\n0c 00 a0 e1\nb0 20 c4 e1\n0a 10 a0 e1\n06 00 00 0a\n0c 00 a0 e1\n1c 00 00 ea\n00 00 55 e3\nb0 30 c4 e1\n06 60 6c e0\n00 00 6c e0\n17 00 00 0a\nff 00 51 e3\n19 00 00 ca\nd9 ff ff ea\n01 04 50 e3\n03 10 81 e0\n04 00 00 2a\n09 00 5e e1\n00 04 a0 e1\nb3 01 00 0a\n01 30 de e4\n06 64 83 e1\nb4 30 98 e1\na0 25 a0 e1\n93 02 0c e0\n02 2b 63 e2\n0c 00 56 e1\na3 52 43 e0\nc2 32 83 e0\nb4 30 88 31\nb4 50 88 21\n00 00 6c e0\n04 10 a0 31\n0c 00 a0 31\n06 60 6c 20\nff 00 51 e3\n81 40 a0 e1\n01 30 81 e2\ne6 ff ff da\n18 c0 9d e5\nff 70 01 e2\n03 00 5c e3\n54 10 9d e5\n00 20 a0 d3\n0b 70 c1 e7\n01 b0 8b e2\n18 20 8d d5\n87 01 00 da\n18 30 9d e5\n09 00 53 e3\n18 50 9d c5\n03 30 43 d2\n06 50 45 c2\n18 30 8d d5\n18 50 8d c5\n7f 01 00 ea\nac 32 4c e0\n00 20 64 e0\n08 c0 9d e5\n08 00 52 e1\nb5 30 8c e1\n06 60 64 e0\n04 00 00 8a\n09 00 5e e1\n86 01 00 0a\n01 30 de e4\n02 24 a0 e1\n06 64 83 e1\n08 00 9d e5\n18 30 9d e5\n83 70 80 e0\n06 0d 87 e2\nb0 c0 d0 e1\na2 35 a0 e1\n9c 03 04 e0\n04 00 56 e1\n12 00 00 2a\n18 20 9d e5\n08 50 9d e5\n06 00 52 e3\n02 3b 6c e2\n66 1e 85 e2\n03 20 a0 c3\n20 50 9d e5\n00 20 a0 d3\nc3 32 8c e0\n18 20 8d e5\n1c c0 9d e5\n2c 20 9d e5\n24 50 8d e5\n04 10 81 e2\n04 50 a0 e1\n20 c0 8d e5\n1c 20 8d e5\nb0 30 c0 e1\n80 00 00 ea\n02 20 64 e0\nac 32 4c e0\n08 00 52 e1\nb0 30 c0 e1\n06 60 64 e0\n04 00 00 8a\n09 00 5e e1\n5f 01 00 0a\n01 30 de e4\n02 24 a0 e1\n06 64 83 e1\n66 5f 87 e2\nb0 c0 d5 e1\na2 35 a0 e1\n9c 03 04 e0\n04 00 56 e1\n27 00 00 2a\n02 3b 6c e2\nc3 32 8c e0\n08 00 54 e1\nb0 30 c5 e1\n04 00 00 8a\n09 00 5e e1\n4f 01 00 0a\n01 30 de e4\n04 44 a0 e1\n06 64 83 e1\n08 50 9d e5\n81 30 85 e0\n8a 30 83 e0\n1e 1e 83 e2\nb0 c0 d1 e1\na4 35 a0 e1\n9c 03 02 e0\n02 00 56 e1\n06 60 62 20\nac 32 4c 20\n04 50 62 20\n29 00 00 2a\n02 3b 6c e2\nc3 32 8c e0\n00 00 5b e3\nb0 30 c1 e1\n3b 01 00 0a\n2c c0 9d e5\n18 10 9d e5\n54 00 9d e5\n0b 30 6c e0\n03 70 d0 e7\n06 00 51 e3\n0b 10 a0 c3\n09 10 a0 d3\n18 10 8d e5\n0b 70 c0 e7\n02 00 a0 e1\n01 b0 8b e2\n1e 01 00 ea\n02 20 64 e0\nac 32 4c e0\n08 00 52 e1\nb0 30 c5 e1\n06 60 64 e0\n04 00 00 8a\n09 00 5e e1\n26 01 00 0a\n01 30 de e4\n02 24 a0 e1\n06 64 83 e1\n1b 1e 87 e2\nb0 c0 d1 e1\na2 35 a0 e1\n9c 03 04 e0\n04 00 56 e1\n08 00 00 2a\n2c 50 9d e5\n02 3b 6c e2\n1c 20 9d e5\nc3 32 8c e0\n1c 50 8d e5\n04 50 a0 e1\n2c 20 8d e5\nb0 30 c1 e1\n25 00 00 ea\n02 20 64 e0\nac 32 4c e0\n08 00 52 e1\nb0 30 c1 e1\n06 60 64 e0\n04 00 00 8a\n09 00 5e e1\n0c 01 00 0a\n01 30 de e4\n02 24 a0 e1\n06 64 83 e1\n72 1f 87 e2\nb0 c0 d1 e1\na2 35 a0 e1\n9c 03 04 e0\n04 00 56 e1\n08 00 00 2a\n02 3b 6c e2\n20 20 9d e5\nc3 32 8c e0\n2c 00 9d e5\n1c c0 9d e5\n04 50 a0 e1\n20 c0 8d e5\n1c 00 8d e5\ne2 ff ff ea\nac 32 4c e0\nb0 30 c1 e1\n2c c0 9d e5\n20 10 8d e2\n0a 00 91 e8\n02 50 64 e0\n1c 20 9d e5\n24 10 8d e5\n20 20 8d e5\n1c c0 8d e5\n2c 30 8d e5\n06 60 64 e0\n18 20 9d e5\n08 00 9d e5\n06 00 52 e3\n0b 20 a0 c3\n08 20 a0 d3\na6 1e 80 e2\n18 20 8d e5\n08 10 81 e2\nff 74 e0 e3\n07 00 55 e1\n04 00 00 8a\n09 00 5e e1\ne1 00 00 0a\n01 30 de e4\n05 54 a0 e1\n06 64 83 e1\nb0 c0 d1 e1\na5 35 a0 e1\n9c 03 04 e0\n04 00 56 e1\n08 00 00 2a\n0a 22 81 e0\n02 3b 6c e2\nc3 32 8c e0\n04 50 82 e2\n04 00 a0 e1\n03 a0 a0 e3\n00 80 a0 e3\nb0 30 c1 e1\n1f 00 00 ea\n05 20 64 e0\nac 32 4c e0\n07 00 52 e1\n06 60 64 e0\nb0 30 c1 e1\n04 00 00 8a\n09 00 5e e1\nc8 00 00 0a\n01 30 de e4\n02 24 a0 e1\n06 64 83 e1\nb2 c0 d1 e1\na2 35 a0 e1\n9c 03 04 e0\n04 00 56 e1\n08 00 00 2a\n0a 22 81 e0\n02 3b 6c e2\nc3 32 8c e0\n41 5f 82 e2\n04 00 a0 e1\n03 a0 a0 e3\n08 80 a0 e3\nb2 30 c1 e1\n06 00 00 ea\nac 32 4c e0\nb2 30 c1 e1\n06 60 64 e0\n02 00 64 e0\n81 5f 81 e2\n08 a0 a0 e3\n10 80 a0 e3\n0a 70 a0 e1\n01 10 a0 e3\n01 30 81 e2\n01 04 50 e3\n81 40 a0 e1\n03 10 81 e0\n04 00 00 2a\n09 00 5e e1\n00 04 a0 e1\na6 00 00 0a\n01 30 de e4\n06 64 83 e1\nb4 30 95 e1\na0 25 a0 e1\n93 02 0c e0\n02 2b 63 e2\n0c 00 56 e1\nc2 22 83 e0\na3 32 43 e0\n00 00 6c e0\n04 10 a0 31\n0c 00 a0 31\nb4 20 85 31\n06 60 6c 20\nb4 30 85 21\n01 70 57 e2\ne6 ff ff 1a\n01 20 a0 e3\n12 3a 41 e0\n18 50 9d e5\n08 30 83 e0\n03 00 55 e3\n28 30 8d e5\n69 00 00 ca\n08 c0 9d e5\n03 00 53 e3\n03 30 a0 a3\n83 33 8c e0\n36 5e 83 e2\n02 70 a0 e1\n06 80 a0 e3\n01 30 87 e2\n01 04 50 e3\n87 40 a0 e1\n03 70 87 e0\n04 00 00 2a\n09 00 5e e1\n00 04 a0 e1\n7f 00 00 0a\n01 30 de e4\n06 64 83 e1\nb4 30 95 e1\na0 25 a0 e1\n93 02 0c e0\n02 2b 63 e2\n0c 00 56 e1\nc2 22 83 e0\na3 32 43 e0\n00 00 6c e0\n04 70 a0 31\n0c 00 a0 31\nb4 20 85 31\n06 60 6c 20\nb4 30 85 21\n01 80 58 e2\ne6 ff ff 1a\n40 20 47 e2\n03 00 52 e3\n02 50 a0 d1\n3f 00 00 da\nc2 40 a0 e1\n0d 00 52 e3\n01 30 02 e2\n01 70 44 e2\n02 c0 83 e3\n05 40 44 c2\n08 20 a0 c1\n06 00 00 ca\n1c 57 a0 e1\n08 10 9d e5\n85 30 81 e0\n82 30 43 e0\n55 4e 83 e2\n0e 40 84 e2\n13 00 00 ea\n01 04 50 e3\n01 20 82 e2\n04 00 00 2a\n09 00 5e e1\n00 04 a0 e1\n55 00 00 0a\n01 30 de e4\n06 64 83 e1\na0 00 a0 e1\n00 00 56 e1\n8c c0 a0 e1\n06 60 60 20\n01 c0 8c 23\n04 00 52 e1\nf0 ff ff 1a\n08 20 9d e5\n19 4d 82 e2\n04 40 84 e2\n0c 52 a0 e1\n04 70 a0 e3\n01 a0 a0 e3\n0a 80 a0 e1\n01 04 50 e3\n88 10 a0 e1\n01 c0 88 e2\n04 00 00 2a\n09 00 5e e1\n00 04 a0 e1\n3e 00 00 0a\n01 30 de e4\n06 64 83 e1\nb1 30 94 e1\na0 25 a0 e1\n0c 80 88 e0\n93 02 0c e0\n02 2b 63 e2\n0c 00 56 e1\nc2 22 83 e0\na3 32 43 e0\n0a 50 85 21\n01 80 a0 31\n0c 00 a0 31\nb1 20 84 31\nb1 30 84 21\n06 60 6c 20\n00 00 6c 20\n01 70 57 e2\n8a a0 a0 e1\ne4 ff ff 1a\n01 50 95 e2\n2c 50 8d e5\n1a 00 00 0a\n18 30 9d e5\n07 30 83 e2\n18 30 8d e5\n2c 50 9d e5\n0b 00 55 e1\n21 00 00 8a\n28 c0 9d e5\n54 10 9d e5\n0b 30 65 e0\n02 20 8c e2\n03 40 81 e0\n0b c0 81 e0\n01 20 52 e2\n58 50 9d e5\n00 30 a0 03\n01 30 a0 13\n01 b0 8b e2\n05 00 5b e1\n00 30 a0 23\n01 30 03 32\n01 70 d4 e4\n00 00 53 e3\n01 70 cc e4\nf3 ff ff 1a\n58 c0 9d e5\n0c 00 5b e1\nff fd ff 3a\n01 04 50 e3\n02 00 00 2a\n09 00 5e e1\n08 00 00 0a\n01 e0 8e e2\n04 00 9d e5\n00 10 9d e5\n5c 20 9d e5\n0e 30 60 e0\n00 00 a0 e3\n00 30 81 e5\n00 b0 82 e5\n00 00 00 ea\n01 00 a0 e3\n30 d0 8d e2\nf0 8f bd e8\n'
p5
S'segment_0:0000ee24\nsegment_0:0000ee28\nsegment_0:0000ee2c\nsegment_0:0000ee30\nsegment_0:0000ee34\nsegment_0:0000ee38\nsegment_0:0000ee3c\nsegment_0:0000ee40\nsegment_0:0000ee44\nsegment_0:0000ee48\nsegment_0:0000ee4c\nsegment_0:0000ee50\nsegment_0:0000ee54\nsegment_0:0000ee58\nsegment_0:0000ee5c\nsegment_0:0000ee60\nsegment_0:0000ee64\nsegment_0:0000ee68\nsegment_0:0000ee6c\nsegment_0:0000ee70\nsegment_0:0000ee74\nsegment_0:0000ee78\nsegment_0:0000ee7c\nsegment_0:0000ee80\nsegment_0:0000ee84\nsegment_0:0000ee88\nsegment_0:0000ee8c\nsegment_0:0000ee90\nsegment_0:0000ee94\nsegment_0:0000ee98\nsegment_0:0000ee9c\nsegment_0:0000eea0\nsegment_0:0000eea4\nsegment_0:0000eea8\nsegment_0:0000eeac\nsegment_0:0000eeb0\nsegment_0:0000eeb4\nsegment_0:0000eeb8\nsegment_0:0000eebc\nsegment_0:0000eec0\nsegment_0:0000eec4\nsegment_0:0000eec8\nsegment_0:0000eecc\nsegment_0:0000eed0\nsegment_0:0000eed4\nsegment_0:0000eed8\nsegment_0:0000eedc\nsegment_0:0000eee0\nsegment_0:0000eee4\nsegment_0:0000eee8\nsegment_0:0000eeec\nsegment_0:0000eef0\nsegment_0:0000eef4\nsegment_0:0000eef8\nsegment_0:0000eefc\nsegment_0:0000ef00\nsegment_0:0000ef04\nsegment_0:0000ef08\nsegment_0:0000ef0c\nsegment_0:0000ef10\nsegment_0:0000ef14\nsegment_0:0000ef18\nsegment_0:0000ef1c\nsegment_0:0000ef20\nsegment_0:0000ef24\nsegment_0:0000ef28\nsegment_0:0000ef2c\nsegment_0:0000ef30\nsegment_0:0000ef34\nsegment_0:0000ef38\nsegment_0:0000ef3c\nsegment_0:0000ef40\nsegment_0:0000ef44\nsegment_0:0000ef48\nsegment_0:0000ef4c\nsegment_0:0000ef50\nsegment_0:0000ef54\nsegment_0:0000ef58\nsegment_0:0000ef5c\nsegment_0:0000ef60\nsegment_0:0000ef64\nsegment_0:0000ef68\nsegment_0:0000ef6c\nsegment_0:0000ef70\nsegment_0:0000ef74\nsegment_0:0000ef78\nsegment_0:0000ef7c\nsegment_0:0000ef80\nsegment_0:0000ef84\nsegment_0:0000ef88\nsegment_0:0000ef8c\nsegment_0:0000ef90\nsegment_0:0000ef94\nsegment_0:0000ef98\nsegment_0:0000ef9c\nsegment_0:0000efa0\nsegment_0:0000efa4\nsegment_0:0000efa8\nsegment_0:0000efac\nsegment_0:0000efb0\nsegment_0:0000efb4\nsegment_0:0000efb8\nsegment_0:0000efbc\nsegment_0:0000efc0\nsegment_0:0000efc4\nsegment_0:0000efc8\nsegment_0:0000efcc\nsegment_0:0000efd0\nsegment_0:0000efd4\nsegment_0:0000efd8\nsegment_0:0000efdc\nsegment_0:0000efe0\nsegment_0:0000efe4\nsegment_0:0000efe8\nsegment_0:0000efec\nsegment_0:0000eff0\nsegment_0:0000eff4\nsegment_0:0000eff8\nsegment_0:0000effc\nsegment_0:0000f000\nsegment_0:0000f004\nsegment_0:0000f008\nsegment_0:0000f00c\nsegment_0:0000f010\nsegment_0:0000f014\nsegment_0:0000f018\nsegment_0:0000f01c\nsegment_0:0000f020\nsegment_0:0000f024\nsegment_0:0000f028\nsegment_0:0000f02c\nsegment_0:0000f030\nsegment_0:0000f034\nsegment_0:0000f038\nsegment_0:0000f03c\nsegment_0:0000f040\nsegment_0:0000f044\nsegment_0:0000f048\nsegment_0:0000f04c\nsegment_0:0000f050\nsegment_0:0000f054\nsegment_0:0000f058\nsegment_0:0000f05c\nsegment_0:0000f060\nsegment_0:0000f064\nsegment_0:0000f068\nsegment_0:0000f06c\nsegment_0:0000f070\nsegment_0:0000f074\nsegment_0:0000f078\nsegment_0:0000f07c\nsegment_0:0000f080\nsegment_0:0000f084\nsegment_0:0000f088\nsegment_0:0000f08c\nsegment_0:0000f090\nsegment_0:0000f094\nsegment_0:0000f098\nsegment_0:0000f09c\nsegment_0:0000f0a0\nsegment_0:0000f0a4\nsegment_0:0000f0a8\nsegment_0:0000f0ac\nsegment_0:0000f0b0\nsegment_0:0000f0b4\nsegment_0:0000f0b8\nsegment_0:0000f0bc\nsegment_0:0000f0c0\nsegment_0:0000f0c4\nsegment_0:0000f0c8\nsegment_0:0000f0cc\nsegment_0:0000f0d0\nsegment_0:0000f0d4\nsegment_0:0000f0d8\nsegment_0:0000f0dc\nsegment_0:0000f0e0\nsegment_0:0000f0e4\nsegment_0:0000f0e8\nsegment_0:0000f0ec\nsegment_0:0000f0f0\nsegment_0:0000f0f4\nsegment_0:0000f0f8\nsegment_0:0000f0fc\nsegment_0:0000f100\nsegment_0:0000f104\nsegment_0:0000f108\nsegment_0:0000f10c\nsegment_0:0000f110\nsegment_0:0000f114\nsegment_0:0000f118\nsegment_0:0000f11c\nsegment_0:0000f120\nsegment_0:0000f124\nsegment_0:0000f128\nsegment_0:0000f12c\nsegment_0:0000f130\nsegment_0:0000f134\nsegment_0:0000f138\nsegment_0:0000f13c\nsegment_0:0000f140\nsegment_0:0000f144\nsegment_0:0000f148\nsegment_0:0000f14c\nsegment_0:0000f150\nsegment_0:0000f154\nsegment_0:0000f158\nsegment_0:0000f15c\nsegment_0:0000f160\nsegment_0:0000f164\nsegment_0:0000f168\nsegment_0:0000f16c\nsegment_0:0000f170\nsegment_0:0000f174\nsegment_0:0000f178\nsegment_0:0000f17c\nsegment_0:0000f180\nsegment_0:0000f184\nsegment_0:0000f188\nsegment_0:0000f18c\nsegment_0:0000f190\nsegment_0:0000f194\nsegment_0:0000f198\nsegment_0:0000f19c\nsegment_0:0000f1a0\nsegment_0:0000f1a4\nsegment_0:0000f1a8\nsegment_0:0000f1ac\nsegment_0:0000f1b0\nsegment_0:0000f1b4\nsegment_0:0000f1b8\nsegment_0:0000f1bc\nsegment_0:0000f1c0\nsegment_0:0000f1c4\nsegment_0:0000f1c8\nsegment_0:0000f1cc\nsegment_0:0000f1d0\nsegment_0:0000f1d4\nsegment_0:0000f1d8\nsegment_0:0000f1dc\nsegment_0:0000f1e0\nsegment_0:0000f1e4\nsegment_0:0000f1e8\nsegment_0:0000f1ec\nsegment_0:0000f1f0\nsegment_0:0000f1f4\nsegment_0:0000f1f8\nsegment_0:0000f1fc\nsegment_0:0000f200\nsegment_0:0000f204\nsegment_0:0000f208\nsegment_0:0000f20c\nsegment_0:0000f210\nsegment_0:0000f214\nsegment_0:0000f218\nsegment_0:0000f21c\nsegment_0:0000f220\nsegment_0:0000f224\nsegment_0:0000f228\nsegment_0:0000f22c\nsegment_0:0000f230\nsegment_0:0000f234\nsegment_0:0000f238\nsegment_0:0000f23c\nsegment_0:0000f240\nsegment_0:0000f244\nsegment_0:0000f248\nsegment_0:0000f24c\nsegment_0:0000f250\nsegment_0:0000f254\nsegment_0:0000f258\nsegment_0:0000f25c\nsegment_0:0000f260\nsegment_0:0000f264\nsegment_0:0000f268\nsegment_0:0000f26c\nsegment_0:0000f270\nsegment_0:0000f274\nsegment_0:0000f278\nsegment_0:0000f27c\nsegment_0:0000f280\nsegment_0:0000f284\nsegment_0:0000f288\nsegment_0:0000f28c\nsegment_0:0000f290\nsegment_0:0000f294\nsegment_0:0000f298\nsegment_0:0000f29c\nsegment_0:0000f2a0\nsegment_0:0000f2a4\nsegment_0:0000f2a8\nsegment_0:0000f2ac\nsegment_0:0000f2b0\nsegment_0:0000f2b4\nsegment_0:0000f2b8\nsegment_0:0000f2bc\nsegment_0:0000f2c0\nsegment_0:0000f2c4\nsegment_0:0000f2c8\nsegment_0:0000f2cc\nsegment_0:0000f2d0\nsegment_0:0000f2d4\nsegment_0:0000f2d8\nsegment_0:0000f2dc\nsegment_0:0000f2e0\nsegment_0:0000f2e4\nsegment_0:0000f2e8\nsegment_0:0000f2ec\nsegment_0:0000f2f0\nsegment_0:0000f2f4\nsegment_0:0000f2f8\nsegment_0:0000f2fc\nsegment_0:0000f300\nsegment_0:0000f304\nsegment_0:0000f308\nsegment_0:0000f30c\nsegment_0:0000f310\nsegment_0:0000f314\nsegment_0:0000f318\nsegment_0:0000f31c\nsegment_0:0000f320\nsegment_0:0000f324\nsegment_0:0000f328\nsegment_0:0000f32c\nsegment_0:0000f330\nsegment_0:0000f334\nsegment_0:0000f338\nsegment_0:0000f33c\nsegment_0:0000f340\nsegment_0:0000f344\nsegment_0:0000f348\nsegment_0:0000f34c\nsegment_0:0000f350\nsegment_0:0000f354\nsegment_0:0000f358\nsegment_0:0000f35c\nsegment_0:0000f360\nsegment_0:0000f364\nsegment_0:0000f368\nsegment_0:0000f36c\nsegment_0:0000f370\nsegment_0:0000f374\nsegment_0:0000f378\nsegment_0:0000f37c\nsegment_0:0000f380\nsegment_0:0000f384\nsegment_0:0000f388\nsegment_0:0000f38c\nsegment_0:0000f390\nsegment_0:0000f394\nsegment_0:0000f398\nsegment_0:0000f39c\nsegment_0:0000f3a0\nsegment_0:0000f3a4\nsegment_0:0000f3a8\nsegment_0:0000f3ac\nsegment_0:0000f3b0\nsegment_0:0000f3b4\nsegment_0:0000f3b8\nsegment_0:0000f3bc\nsegment_0:0000f3c0\nsegment_0:0000f3c4\nsegment_0:0000f3c8\nsegment_0:0000f3cc\nsegment_0:0000f3d0\nsegment_0:0000f3d4\nsegment_0:0000f3d8\nsegment_0:0000f3dc\nsegment_0:0000f3e0\nsegment_0:0000f3e4\nsegment_0:0000f3e8\nsegment_0:0000f3ec\nsegment_0:0000f3f0\nsegment_0:0000f3f4\nsegment_0:0000f3f8\nsegment_0:0000f3fc\nsegment_0:0000f400\nsegment_0:0000f404\nsegment_0:0000f408\nsegment_0:0000f40c\nsegment_0:0000f410\nsegment_0:0000f414\nsegment_0:0000f418\nsegment_0:0000f41c\nsegment_0:0000f420\nsegment_0:0000f424\nsegment_0:0000f428\nsegment_0:0000f42c\nsegment_0:0000f430\nsegment_0:0000f434\nsegment_0:0000f438\nsegment_0:0000f43c\nsegment_0:0000f440\nsegment_0:0000f444\nsegment_0:0000f448\nsegment_0:0000f44c\nsegment_0:0000f450\nsegment_0:0000f454\nsegment_0:0000f458\nsegment_0:0000f45c\nsegment_0:0000f460\nsegment_0:0000f464\nsegment_0:0000f468\nsegment_0:0000f46c\nsegment_0:0000f470\nsegment_0:0000f474\nsegment_0:0000f478\nsegment_0:0000f47c\nsegment_0:0000f480\nsegment_0:0000f484\nsegment_0:0000f488\nsegment_0:0000f48c\nsegment_0:0000f490\nsegment_0:0000f494\nsegment_0:0000f498\nsegment_0:0000f49c\nsegment_0:0000f4a0\nsegment_0:0000f4a4\nsegment_0:0000f4a8\nsegment_0:0000f4ac\nsegment_0:0000f4b0\nsegment_0:0000f4b4\nsegment_0:0000f4b8\nsegment_0:0000f4bc\nsegment_0:0000f4c0\nsegment_0:0000f4c4\nsegment_0:0000f4c8\nsegment_0:0000f4cc\nsegment_0:0000f4d0\nsegment_0:0000f4d4\nsegment_0:0000f4d8\nsegment_0:0000f4dc\nsegment_0:0000f4e0\nsegment_0:0000f4e4\nsegment_0:0000f4e8\nsegment_0:0000f4ec\nsegment_0:0000f4f0\nsegment_0:0000f4f4\nsegment_0:0000f4f8\nsegment_0:0000f4fc\nsegment_0:0000f500\nsegment_0:0000f504\nsegment_0:0000f508\nsegment_0:0000f50c\nsegment_0:0000f510\nsegment_0:0000f514\nsegment_0:0000f518\nsegment_0:0000f51c\nsegment_0:0000f520\nsegment_0:0000f524\nsegment_0:0000f528\nsegment_0:0000f52c\nsegment_0:0000f530\nsegment_0:0000f534\nsegment_0:0000f538\nsegment_0:0000f53c\nsegment_0:0000f540\nsegment_0:0000f544\nsegment_0:0000f548\nsegment_0:0000f54c\nsegment_0:0000f550\nsegment_0:0000f554\nsegment_0:0000f558\nsegment_0:0000f55c\nsegment_0:0000f560\nsegment_0:0000f564\nsegment_0:0000f568\nsegment_0:0000f56c\nsegment_0:0000f570\nsegment_0:0000f574\nsegment_0:0000f578\nsegment_0:0000f57c\nsegment_0:0000f580\nsegment_0:0000f584\nsegment_0:0000f588\nsegment_0:0000f58c\nsegment_0:0000f590\nsegment_0:0000f594\nsegment_0:0000f598\nsegment_0:0000f59c\nsegment_0:0000f5a0\nsegment_0:0000f5a4\nsegment_0:0000f5a8\nsegment_0:0000f5ac\nsegment_0:0000f5b0\nsegment_0:0000f5b4\nsegment_0:0000f5b8\nsegment_0:0000f5bc\nsegment_0:0000f5c0\nsegment_0:0000f5c4\nsegment_0:0000f5c8\nsegment_0:0000f5cc\nsegment_0:0000f5d0\nsegment_0:0000f5d4\nsegment_0:0000f5d8\nsegment_0:0000f5dc\nsegment_0:0000f5e0\nsegment_0:0000f5e4\nsegment_0:0000f5e8\nsegment_0:0000f5ec\nsegment_0:0000f5f0\nsegment_0:0000f5f4\nsegment_0:0000f5f8\nsegment_0:0000f5fc\nsegment_0:0000f600\nsegment_0:0000f604\nsegment_0:0000f608\nsegment_0:0000f60c\nsegment_0:0000f610\nsegment_0:0000f614\nsegment_0:0000f618\nsegment_0:0000f61c\nsegment_0:0000f620\nsegment_0:0000f624\nsegment_0:0000f628\nsegment_0:0000f62c\nsegment_0:0000f630\nsegment_0:0000f634\nsegment_0:0000f638\nsegment_0:0000f63c\nsegment_0:0000f640\nsegment_0:0000f644\nsegment_0:0000f648\nsegment_0:0000f64c\nsegment_0:0000f650\nsegment_0:0000f654\nsegment_0:0000f658\nsegment_0:0000f65c\nsegment_0:0000f660\nsegment_0:0000f664\nsegment_0:0000f668\nsegment_0:0000f66c\nsegment_0:0000f670\nsegment_0:0000f674\nsegment_0:0000f678\nsegment_0:0000f67c\nsegment_0:0000f680\nsegment_0:0000f684\nsegment_0:0000f688\nsegment_0:0000f68c\nsegment_0:0000f690\nsegment_0:0000f694\nsegment_0:0000f698\nsegment_0:0000f69c\nsegment_0:0000f6a0\nsegment_0:0000f6a4\nsegment_0:0000f6a8\nsegment_0:0000f6ac\nsegment_0:0000f6b0\nsegment_0:0000f6b4\nsegment_0:0000f6b8\nsegment_0:0000f6bc\nsegment_0:0000f6c0\nsegment_0:0000f6c4\nsegment_0:0000f6c8\nsegment_0:0000f6cc\nsegment_0:0000f6d0\nsegment_0:0000f6d4\nsegment_0:0000f6d8\nsegment_0:0000f6dc\nsegment_0:0000f6e0\nsegment_0:0000f6e4\nsegment_0:0000f6e8\nsegment_0:0000f6ec\nsegment_0:0000f6f0\nsegment_0:0000f6f4\nsegment_0:0000f6f8\nsegment_0:0000f6fc\nsegment_0:0000f700\nsegment_0:0000f704\nsegment_0:0000f708\nsegment_0:0000f70c\nsegment_0:0000f710\nsegment_0:0000f714\nsegment_0:0000f718\nsegment_0:0000f71c\nsegment_0:0000f720\nsegment_0:0000f724\nsegment_0:0000f728\nsegment_0:0000f72c\nsegment_0:0000f730\nsegment_0:0000f734\nsegment_0:0000f738\nsegment_0:0000f73c\nsegment_0:0000f740\nsegment_0:0000f744\nsegment_0:0000f748\nsegment_0:0000f74c\nsegment_0:0000f750\nsegment_0:0000f754\nsegment_0:0000f758\n'
p6
tp7
sS'entry'
p8
(S'\n__stdcall entry()\n'
p9
V\u000a/* WARNING: Control flow encountered bad instruction data */\u000a\u000aundefined8 entry(undefined4 uParm1,undefined4 uParm2,undefined4 *puParm3,int **ppiParm4)\u000a\u000a{\u000a  byte bVar1;\u000a  byte *pbVar2;\u000a  undefined4 uVar3;\u000a  uint *puVar4;\u000a  undefined4 **ppuVar5;\u000a  int unaff_r4;\u000a  uint unaff_r6;\u000a  int *piVar6;\u000a  int iVar7;\u000a  int **ppiVar8;\u000a  undefined4 *puVar9;\u000a  undefined8 uVar10;\u000a  undefined4 *local_28;\u000a  int **ppiStack36;\u000a  undefined4 *puStack28;\u000a  byte local_18 [8];\u000a  undefined4 uStack16;\u000a  int iStack12;\u000a  code *pcStack8;\u000a  int **ppiStack4;\u000a  \u000a  puVar9 = (undefined4 *)0xed6c;\u000a  uVar10 = FUN_0000f858();\u000a  pbVar2 = (byte *)((ulonglong)uVar10 >> 0x20);\u000a  if (local_18[0] == 0xe) {\u000a    iVar7 = -((0x600 << (uint)(*pbVar2 >> 3)) + 0xe80);\u000a    ppiVar8 = (int **)*ppiParm4;\u000a    *(int ***)(&stack0xffffffe0 + iVar7) = ppiParm4;\u000a    *(int ***)((int)&ppiStack36 + iVar7) = ppiVar8;\u000a    *(undefined4 **)((int)&local_28 + iVar7) = puParm3;\u000a    ppuVar5 = (undefined4 **)((int)&puStack28 + iVar7);\u000a    do {\u000a      ppuVar5 = ppuVar5 + 1;\u000a      *ppuVar5 = (undefined4 *)0x0;\u000a      ppuVar5 = ppuVar5;\u000a    } while (ppuVar5 != &local_28);\u000a    local_18[iVar7 + 2] = *pbVar2 & 7;\u000a    bVar1 = pbVar2[1];\u000a    local_18[iVar7 + 1] = bVar1 >> 4;\u000a    local_18[iVar7] = bVar1 & 0xf;\u000a    local_28 = puParm3;\u000a    ppiStack36 = ppiParm4;\u000a    puStack28 = puVar9;\u000a    uVar3 = FUN_0000ee24(local_18 + iVar7,pbVar2 + 2,(int)uVar10 + -2,\u000a                         (undefined4 **)((int)&puStack28 + iVar7));\u000a    software_interrupt(0);\u000a    return CONCAT44(uVar3,(int)*ppiStack36 + (int)local_28);\u000a  }\u000a  if ((int)((uint)local_18[0] - 0xe) < 0) {\u000a    *(int ***)(unaff_r4 + -4) = ppiParm4;\u000a    *(int *)(unaff_r4 + -8) = (int)uVar10;\u000a  }\u000a  if (0xd < local_18[0]) {\u000a    iVar7 = ~unaff_r6 + 1;\u000a    piVar6 = puVar9 + 1;\u000a    iStack12 = (int)piVar6 + *piVar6 + iVar7;\u000a    software_interrupt(0);\u000a    uStack16 = 0;\u000a    software_interrupt(0);\u000a    puStack28 = (undefined4 *)*piVar6;\u000a    puVar4 = (uint *)((int)piVar6 + iVar7);\u000a    ppiStack4 = ppiParm4;\u000a    (*pcStack8)(puVar9 + 4,puVar9[2],puVar4,&puStack28);\u000a    *puVar4 = *puVar4 | (uint)ppiStack4;\u000a    pcStack8 = pcStack8 + iVar7;\u000a    software_interrupt(0);\u000a                    /* WARNING: Could not recover jumptable at 0x0000f844. Too many branches */\u000a                    /* WARNING: Treating indirect jump as call */\u000a    uVar10 = (*(code *)((int)puVar9 + ~unaff_r6 + 0xd))(uStack16,*puVar9,5,puStack28);\u000a    return uVar10;\u000a  }\u000a                    /* WARNING: Bad instruction - Truncating control flow here */\u000a  halt_baddata();\u000a}\u000a\u000a
p10
S'sub sp,sp,#0x18\nbl 0x0000f858\nldrb r12,[sp,#0x0]\ncmp r12,#0xe\nbne 0x0000f75c\nstmdb sp!,{ r2 r3 r11 lr }\nldrb r11,[r0,#0x0]\nmov r12,#0x600\nmov r11,r11, lsr #0x3\nmov r12,r12, lsl r11\ncpy r11,sp\nadd r12,r12,#0xe80\nsub sp,sp,r12\nldr r12,[r3,#0x0]\nstr r3,[sp,#0x8]\nstr r12,[sp,#0x4]\nstr r2,[sp,#0x0]\nadd r3,sp,#0xc\nmov r12,#0x0\nstr r12,[r3],#0x4\ncmp r3,r11\nbne 0x0000edb0\nadd r3,sp,#0xc\nsub r2,r1,#0x2\ncpy r1,r0\nldrb r12,[r1],#0x1\nand r12,r12,#0x7\nstrb r12,[sp,#0x12]\nldrb r12,[r1],#0x1\nmov r0,r12, lsr #0x4\nstrb r0,[sp,#0x11]\nand r12,r12,#0xf\nstrb r12,[sp,#0x10]\nadd r0,sp,#0x10\nbl 0x0000ee24\ncpy sp,r11\ncpy r3,r0\nldmia sp!,{r0 r1 }\nldr r1,[r1,#0x0]\nadd r1,r1,r0\nmov r2,#0x0\ncpy r12,r7\nmov r7,#0x2\norr r7,r7,#0xf0000\nswi 0x0\ncpy r7,r12\ncpy r0,r3\nldmia sp!,{ r11 pc }\n'
p11
S'18 d0 4d e2\nba 02 00 eb\n00 c0 dd e5\n0e 00 5c e3\n78 02 00 1a\n0c 48 2d e9\n00 b0 d0 e5\n06 cc a0 e3\nab b1 a0 e1\n1c cb a0 e1\n0d b0 a0 e1\n3a cd 8c e2\n0c d0 4d e0\n00 c0 93 e5\n08 30 8d e5\n04 c0 8d e5\n00 20 8d e5\n0c 30 8d e2\n00 c0 a0 e3\n04 c0 83 e4\n0b 00 53 e1\nfc ff ff 1a\n0c 30 8d e2\n02 20 41 e2\n00 10 a0 e1\n01 c0 d1 e4\n07 c0 0c e2\n12 c0 cd e5\n01 c0 d1 e4\n2c 02 a0 e1\n11 00 cd e5\n0f c0 0c e2\n10 c0 cd e5\n10 00 8d e2\n0c 00 00 eb\n0b d0 a0 e1\n00 30 a0 e1\n03 00 bd e8\n00 10 91 e5\n00 10 81 e0\n00 20 a0 e3\n07 c0 a0 e1\n02 70 a0 e3\n0f 78 87 e3\n00 00 00 ef\n0c 70 a0 e1\n03 00 a0 e1\n00 88 bd e8\n'
p12
S'segment_0:0000ed64\nsegment_0:0000ed68\nsegment_0:0000ed6c\nsegment_0:0000ed70\nsegment_0:0000ed74\nsegment_0:0000ed78\nsegment_0:0000ed7c\nsegment_0:0000ed80\nsegment_0:0000ed84\nsegment_0:0000ed88\nsegment_0:0000ed8c\nsegment_0:0000ed90\nsegment_0:0000ed94\nsegment_0:0000ed98\nsegment_0:0000ed9c\nsegment_0:0000eda0\nsegment_0:0000eda4\nsegment_0:0000eda8\nsegment_0:0000edac\nsegment_0:0000edb0\nsegment_0:0000edb4\nsegment_0:0000edb8\nsegment_0:0000edbc\nsegment_0:0000edc0\nsegment_0:0000edc4\nsegment_0:0000edc8\nsegment_0:0000edcc\nsegment_0:0000edd0\nsegment_0:0000edd4\nsegment_0:0000edd8\nsegment_0:0000eddc\nsegment_0:0000ede0\nsegment_0:0000ede4\nsegment_0:0000ede8\nsegment_0:0000edec\nsegment_0:0000edf0\nsegment_0:0000edf4\nsegment_0:0000edf8\nsegment_0:0000edfc\nsegment_0:0000ee00\nsegment_0:0000ee04\nsegment_0:0000ee08\nsegment_0:0000ee0c\nsegment_0:0000ee10\nsegment_0:0000ee14\nsegment_0:0000ee18\nsegment_0:0000ee1c\nsegment_0:0000ee20\n'
p13
tp14
sS'FUN_0000f858'
p15
(S'\n__stdcall FUN_0000f858(undefined param_1, undefined param_2, undefined param_3, undefined param_4, undefined4 param_5, undefined4 param_6, undefined param_7, undefined param_8, undefined4 param_9)\n'
p16
V\u000avoid FUN_0000f858(undefined4 param_1,undefined4 param_2,undefined4 param_3)\u000a\u000a{\u000a  uint uVar1;\u000a  uint uVar2;\u000a  uint uVar3;\u000a  uint unaff_r10;\u000a  int unaff_r11;\u000a  uint in_r12;\u000a  int in_lr;\u000a  bool in_ZR;\u000a  byte in_CY;\u000a  uint param_5;\u000a  char *param_6;\u000a  \u000a  uVar3 = (in_lr + -0x10) - *(int *)(in_lr + -0x10);\u000a  software_interrupt(0);\u000a  param_6 = "/proc/self/exe";\u000a  uVar2 = *(uint *)(in_lr + -0xc);\u000a  param_5 = uVar3;\u000a  uVar1 = FUN_0000f768("/proc/self/exe",0,param_3,uVar2);\u000a  if (in_ZR) {\u000a    uVar1 = uVar1 & in_r12 >> 1 & (int)in_r12 >> (unaff_r10 & 0xff) & 5U >> (uVar3 & 0xff) &\u000a            unaff_r10 << (uVar2 & 0xff);\u000a  }\u000a                    /* WARNING: Could not recover jumptable at 0x0000f8a0. Too many branches */\u000a                    /* WARNING: Treating indirect jump as call */\u000a  (*(code *)(unaff_r11 + (uint)in_CY + 0x3000000))(uVar1);\u000a  return;\u000a}\u000a\u000a
p17
S'ldr r0,[lr,#-0x10]\nsub r6,lr,#0x10\nstr lr,[sp,#0x10]\nsub r6,r6,r0\nstr r6,[sp,#0x0]\ncpy r9,r0\nadr r0,0xf848\nmov r1,#0x0\nmov r7,#0x5\nswi 0x0\nstr r0,[sp,#0x4]\nldr r3,[lr,#-0xc]\nbl 0x0000f768\nandeq r0,r0,r12, lsr #0x1\nandeq r0,r0,r12, asr r10\nandeq r0,r0,r7, lsr r6\nandeq r5,r0,lr\nandeq r0,r0,r10, lsl r3\nadcs pc,r11,#0x3000000\n'
p18
S'10 00 1e e5\n10 60 4e e2\n10 e0 8d e5\n00 60 46 e0\n00 60 8d e5\n00 90 a0 e1\n30 00 4f e2\n00 10 a0 e3\n05 70 a0 e3\n00 00 00 ef\n04 00 8d e5\n0c 30 1e e5\nb6 ff ff eb\nac 00 00 00\n5c 0a 00 00\n37 06 00 00\n0e 50 00 00\n1a 03 00 00\n0c f5 bb e2\n'
p19
S'segment_0:0000f858\nsegment_0:0000f85c\nsegment_0:0000f860\nsegment_0:0000f864\nsegment_0:0000f868\nsegment_0:0000f86c\nsegment_0:0000f870\nsegment_0:0000f874\nsegment_0:0000f878\nsegment_0:0000f87c\nsegment_0:0000f880\nsegment_0:0000f884\nsegment_0:0000f888\nsegment_0:0000f88c\nsegment_0:0000f890\nsegment_0:0000f894\nsegment_0:0000f898\nsegment_0:0000f89c\nsegment_0:0000f8a0\n'
p20
tp21
sS'FUN_0000f768'
p22
(S'\n__stdcall FUN_0000f768(undefined param_1, undefined param_2, undefined param_3, undefined param_4, undefined param_5, undefined4 param_6, undefined4 param_7, undefined4 param_8, undefined4 param_9, undefined4 param_10)\n'
p23
V\u000avoid FUN_0000f768(void)\u000a\u000a{\u000a  uint *puVar1;\u000a  uint param_4;\u000a  uint unaff_r6;\u000a  int *piVar2;\u000a  int iVar3;\u000a  undefined4 *in_lr;\u000a  undefined4 param_7;\u000a  int param_8;\u000a  code *param_9;\u000a  uint param_10;\u000a  int local_4;\u000a  \u000a  iVar3 = ~unaff_r6 + 1;\u000a  piVar2 = in_lr + 1;\u000a  param_8 = (int)piVar2 + *piVar2 + iVar3;\u000a  software_interrupt(0);\u000a  param_7 = 0;\u000a  software_interrupt(0);\u000a  local_4 = *piVar2;\u000a  puVar1 = (uint *)((int)piVar2 + iVar3);\u000a  param_10 = param_4;\u000a  (*param_9)(in_lr + 4,in_lr[2],puVar1,&local_4,(uint)*(byte *)(in_lr + 3));\u000a  *puVar1 = *puVar1 | param_10;\u000a  software_interrupt(0);\u000a                    /* WARNING: Could not recover jumptable at 0x0000f844. Too many branches */\u000a                    /* WARNING: Treating indirect jump as call */\u000a  (*(code *)((int)in_lr + ~unaff_r6 + 0xd))(param_7,*in_lr,5,local_4);\u000a  return;\u000a}\u000a\u000a
p24
S'str r3,[sp,#0x14]\nmvn r10,r6\nadd r10,r10,#0x1\nadd r6,lr,#0x4\nadd lr,r6,r10\nldr r1,[r6,#0x0]\nmov r5,#0x0\nmvn r4,#0x0\nmov r2,#0x3\nadd r1,r1,lr\nmov r0,#0x0\nstr r1,[sp,#0xc]\nmov r7,#0xc0\nswi 0x0\nstr r0,[sp,#0x8]\nldr r1,[r6,#0x4]\nldr r4,[sp,#0x4]\nmov r3,#0x12\nadd r1,r1,lr\nmov r7,#0xc0\nswi 0x0\nadd r10,r0,r10\nldr r3,[r6,#0x0]\nstr r3,[sp,#-0x4]!\ncpy r3,sp\nldrb r0,[r6,#0x8]\nstr r0,[sp,#-0x4]!\nadd r2,r6,r10\nldr r1,[r6,#0x4]\nadd r0,r6,#0xc\ncpy r4,r2\nmov lr,pc\nldr pc,[sp,#0x18]\nadd sp,sp,#0x4\nldr r3,[sp],#0x4\nldr r1,[sp,#0x14]\nldr r0,[r4,#0x0]\norr r0,r0,r1\nstr r0,[r4,#0x0]\nldr r0,[sp,#0x10]\nadd r1,r3,r6\nadd r0,r0,r10\nadd r1,r1,r10\nstr r0,[sp,#0x10]\nmov r0,r0, lsr #0xc\nmov r2,#0x5\nmov r0,r0, lsl #0xc\nsub r1,r1,r0\nmov r7,#0x7d\nswi 0x0\nldr r1,[r6,#-0x4]\nldr r0,[sp,#0x8]\nsub r4,r9,r1\nadd r5,r0,r1\nadd r6,r6,#0x8\nadd pc,r6,r10\n'
p25
S'14 30 8d e5\n06 a0 e0 e1\n01 a0 8a e2\n04 60 8e e2\n0a e0 86 e0\n00 10 96 e5\n00 50 a0 e3\n00 40 e0 e3\n03 20 a0 e3\n0e 10 81 e0\n00 00 a0 e3\n0c 10 8d e5\nc0 70 a0 e3\n00 00 00 ef\n08 00 8d e5\n04 10 96 e5\n04 40 9d e5\n12 30 a0 e3\n0e 10 81 e0\nc0 70 a0 e3\n00 00 00 ef\n0a a0 80 e0\n00 30 96 e5\n04 30 2d e5\n0d 30 a0 e1\n08 00 d6 e5\n04 00 2d e5\n0a 20 86 e0\n04 10 96 e5\n0c 00 86 e2\n02 40 a0 e1\n0f e0 a0 e1\n18 f0 9d e5\n04 d0 8d e2\n04 30 9d e4\n14 10 9d e5\n00 00 94 e5\n01 00 80 e1\n00 00 84 e5\n10 00 9d e5\n06 10 83 e0\n0a 00 80 e0\n0a 10 81 e0\n10 00 8d e5\n20 06 a0 e1\n05 20 a0 e3\n00 06 a0 e1\n00 10 41 e0\n7d 70 a0 e3\n00 00 00 ef\n04 10 16 e5\n08 00 9d e5\n01 40 49 e0\n01 50 80 e0\n08 60 86 e2\n0a f0 86 e0\n'
p26
S'segment_0:0000f768\nsegment_0:0000f76c\nsegment_0:0000f770\nsegment_0:0000f774\nsegment_0:0000f778\nsegment_0:0000f77c\nsegment_0:0000f780\nsegment_0:0000f784\nsegment_0:0000f788\nsegment_0:0000f78c\nsegment_0:0000f790\nsegment_0:0000f794\nsegment_0:0000f798\nsegment_0:0000f79c\nsegment_0:0000f7a0\nsegment_0:0000f7a4\nsegment_0:0000f7a8\nsegment_0:0000f7ac\nsegment_0:0000f7b0\nsegment_0:0000f7b4\nsegment_0:0000f7b8\nsegment_0:0000f7bc\nsegment_0:0000f7c0\nsegment_0:0000f7c4\nsegment_0:0000f7c8\nsegment_0:0000f7cc\nsegment_0:0000f7d0\nsegment_0:0000f7d4\nsegment_0:0000f7d8\nsegment_0:0000f7dc\nsegment_0:0000f7e0\nsegment_0:0000f7e4\nsegment_0:0000f7e8\nsegment_0:0000f7ec\nsegment_0:0000f7f0\nsegment_0:0000f7f4\nsegment_0:0000f7f8\nsegment_0:0000f7fc\nsegment_0:0000f800\nsegment_0:0000f804\nsegment_0:0000f808\nsegment_0:0000f80c\nsegment_0:0000f810\nsegment_0:0000f814\nsegment_0:0000f818\nsegment_0:0000f81c\nsegment_0:0000f820\nsegment_0:0000f824\nsegment_0:0000f828\nsegment_0:0000f82c\nsegment_0:0000f830\nsegment_0:0000f834\nsegment_0:0000f838\nsegment_0:0000f83c\nsegment_0:0000f840\nsegment_0:0000f844\n'
p27
tp28
s.