(dp0
S'FUN_00015880'
p1
(S'\n__stdcall FUN_00015880(undefined param_1, undefined param_2, undefined param_3, undefined param_4, undefined4 param_5, undefined4 param_6, undefined4 param_7)\n'
p2
V\u000aundefined4\u000aFUN_00015880(sbyte *param_1,byte *param_2,int param_3,byte **param_4,int param_5,sbyte *param_6,\u000a            sbyte **param_7)\u000a\u000a{\u000a  sbyte sVar1;\u000a  sbyte sVar2;\u000a  sbyte sVar3;\u000a  sbyte sVar4;\u000a  sbyte *psVar5;\u000a  uint uVar6;\u000a  uint uVar7;\u000a  ushort *puVar8;\u000a  ushort *puVar9;\u000a  int iVar10;\u000a  byte *pbVar11;\u000a  sbyte *psVar12;\u000a  sbyte *psVar13;\u000a  ushort uVar14;\u000a  uint uVar15;\u000a  int iVar16;\u000a  sbyte *psVar17;\u000a  uint uVar18;\u000a  uint uVar19;\u000a  uint uVar20;\u000a  uint uVar21;\u000a  int iVar22;\u000a  sbyte *psVar23;\u000a  sbyte *psVar24;\u000a  byte *pbVar25;\u000a  uint uVar26;\u000a  int iVar27;\u000a  sbyte *psVar28;\u000a  byte *pbVar29;\u000a  byte *pbVar30;\u000a  bool bVar31;\u000a  sbyte *local_3c;\u000a  sbyte *local_38;\u000a  sbyte *local_34;\u000a  sbyte *local_30;\u000a  sbyte *local_28;\u000a  \u000a  sVar1 = *param_1;\u000a  sVar2 = param_1[2];\u000a  sVar3 = param_1[1];\u000a  iVar16 = 0;\u000a  *param_4 = (byte *)0x0;\u000a  *param_7 = (sbyte *)0x0;\u000a  sVar4 = param_1[1];\u000a  psVar5 = param_1 + 4;\u000a  while( true ) {\u000a    bVar31 = iVar16 == (0x300 << (uint)(byte)(sVar1 + sVar4)) + 0x736;\u000a    iVar27 = iVar16 * 2;\u000a    iVar16 = iVar16 + 1;\u000a    if (bVar31) break;\u000a    *(undefined2 *)(psVar5 + iVar27) = 0x400;\u000a  }\u000a  uVar19 = 0;\u000a  pbVar25 = param_2 + param_3;\u000a  pbVar11 = (byte *)0x0;\u000a  pbVar29 = param_2;\u000a  do {\u000a    pbVar29 = pbVar29 + 1;\u000a    if (pbVar11 == pbVar25 + -(int)param_2) {\u000a      return 1;\u000a    }\u000a    pbVar30 = pbVar11 + (int)param_2;\u000a    pbVar11 = pbVar11 + 1;\u000a    uVar19 = (uint)*pbVar30 | uVar19 << 8;\u000a  } while (pbVar11 != (byte *)0x5);\u000a  psVar28 = (sbyte *)0x0;\u000a  uVar20 = 0;\u000a  uVar6 = 0xffffffff;\u000a  local_28 = (sbyte *)0x1;\u000a  local_3c = (sbyte *)0x0;\u000a  local_38 = (sbyte *)0x1;\u000a  local_34 = (sbyte *)0x1;\u000a  local_30 = (sbyte *)0x1;\u000a  psVar12 = local_3c;\u000a  while (local_3c = psVar12, psVar12 = local_30, psVar28 < param_6) {\u000a    uVar21 = uVar6;\u000a    pbVar11 = pbVar29;\u000a    if (uVar6 < 0x1000000) {\u000a      if (pbVar29 == pbVar25) {\u000a        return 1;\u000a      }\u000a      pbVar11 = pbVar29 + 1;\u000a      uVar21 = uVar6 << 8;\u000a      uVar19 = (uint)*pbVar29 | uVar19 << 8;\u000a    }\u000a    uVar26 = (uint)psVar28 & (1 << sVar2) - 1U;\u000a    iVar16 = (uVar26 + (int)local_3c * 0x10) * 2;\u000a    uVar14 = *(ushort *)(psVar5 + iVar16);\u000a    uVar6 = (uint)uVar14 * (uVar21 >> 0xb);\u000a    if (uVar19 < uVar6) {\u000a      psVar12 = psVar5 + (((int)uVar20 >> (uint)(byte)(8 - sVar1)) +\u000a                         (((uint)psVar28 & (1 << sVar3) - 1U) << sVar1)) * 0x600;\u000a      *(ushort *)(psVar5 + iVar16) = uVar14 + (short)((int)(0x800 - (uint)uVar14) >> 5);\u000a      psVar24 = psVar12 + 0xe6c;\u000a      if ((int)local_3c < 7) {\u000a        uVar20 = 1;\u000a        pbVar29 = pbVar11;\u000aLAB_00015b18:\u000a        while( true ) {\u000a          uVar21 = uVar20 * 2;\u000a          iVar16 = uVar20 * 2;\u000a          if (0xff < (int)uVar20) break;\u000a          uVar26 = uVar6;\u000a          pbVar11 = pbVar29;\u000a          if (uVar6 < 0x1000000) {\u000a            uVar26 = uVar6 << 8;\u000a            if (pbVar29 == pbVar25) {\u000a              return 1;\u000a            }\u000a            pbVar11 = pbVar29 + 1;\u000a            uVar19 = (uint)*pbVar29 | uVar19 << 8;\u000a          }\u000a          uVar14 = *(ushort *)(psVar24 + uVar21);\u000a          uVar6 = (uint)uVar14 * (uVar26 >> 0xb);\u000a          psVar12 = (sbyte *)(0x800 - (uint)uVar14);\u000a          if (uVar19 < uVar6) {\u000a            *(ushort *)(psVar24 + uVar21) = uVar14 + (short)((int)psVar12 >> 5);\u000a          }\u000a          else {\u000a            *(ushort *)(psVar24 + uVar21) = uVar14 - (uVar14 >> 5);\u000a          }\u000a          uVar20 = uVar21;\u000a          pbVar29 = pbVar11;\u000a          if (uVar19 >= uVar6) {\u000a            uVar19 = uVar19 - uVar6;\u000a            uVar6 = uVar26 - uVar6;\u000a            uVar20 = iVar16 + 1;\u000a            pbVar29 = pbVar11;\u000a          }\u000a        }\u000a      }\u000a      else {\u000a        uVar21 = (uint)(byte)psVar28[param_5 - (int)local_28];\u000a        uVar20 = 1;\u000a        do {\u000a          uVar21 = uVar21 << 1;\u000a          uVar18 = uVar21 & 0x100;\u000a          uVar26 = uVar20 * 2;\u000a          puVar8 = (ushort *)(psVar24 + uVar26 + uVar18 * 2 + 0x200);\u000a          uVar20 = uVar20 * 2 + 1;\u000a          uVar7 = uVar6;\u000a          pbVar29 = pbVar11;\u000a          if (uVar6 < 0x1000000) {\u000a            uVar7 = uVar6 << 8;\u000a            if (pbVar11 == pbVar25) {\u000a              return 1;\u000a            }\u000a            pbVar29 = pbVar11 + 1;\u000a            uVar19 = (uint)*pbVar11 | uVar19 << 8;\u000a          }\u000a          uVar14 = *puVar8;\u000a          uVar15 = (uint)uVar14;\u000a          uVar6 = uVar15 * (uVar7 >> 0xb);\u000a          psVar12 = (sbyte *)(uVar15 + ((int)(0x800 - uVar15) >> 5));\u000a          if (uVar19 < uVar6) {\u000a            *puVar8 = (ushort)psVar12;\u000a            uVar20 = uVar26;\u000a            if (uVar18 != 0) goto LAB_00015b18;\u000a          }\u000a          else {\u000a            *puVar8 = uVar14 - (uVar14 >> 5);\u000a            uVar19 = uVar19 - uVar6;\u000a            uVar6 = uVar7 - uVar6;\u000a            if (uVar18 == 0) goto LAB_00015b18;\u000a          }\u000a          pbVar11 = pbVar29;\u000a        } while ((int)uVar20 < 0x100);\u000a      }\u000a      uVar20 = uVar20 & 0xff;\u000a      if ((int)local_3c < 4) {\u000a        psVar12 = (sbyte *)0x0;\u000a      }\u000a      psVar28[param_5] = (sbyte)uVar20;\u000a      psVar28 = psVar28 + 1;\u000a      if (3 < (int)local_3c) {\u000a        if ((int)local_3c < 10) {\u000a          psVar12 = local_3c + -3;\u000a        }\u000a        else {\u000a          psVar12 = local_3c + -6;\u000a        }\u000a      }\u000a    }\u000a    else {\u000a      uVar21 = uVar21 - uVar6;\u000a      *(ushort *)(psVar5 + iVar16) = uVar14 - (uVar14 >> 5);\u000a      uVar19 = uVar19 - uVar6;\u000a      pbVar29 = pbVar11;\u000a      if (uVar21 < 0x1000000) {\u000a        if (pbVar11 == pbVar25) {\u000a          return 1;\u000a        }\u000a        pbVar29 = pbVar11 + 1;\u000a        uVar21 = uVar21 * 0x100;\u000a        uVar19 = (uint)*pbVar11 | uVar19 * 0x100;\u000a      }\u000a      psVar24 = psVar5 + (int)local_3c * 2;\u000a      puVar8 = (ushort *)(psVar24 + 0x180);\u000a      uVar14 = *puVar8;\u000a      uVar20 = (uint)uVar14 * (uVar21 >> 0xb);\u000a      if (uVar19 < uVar20) {\u000a        if ((int)local_3c < 7) {\u000a          local_3c = (sbyte *)0x0;\u000a        }\u000a        else {\u000a          local_3c = (sbyte *)0x3;\u000a        }\u000a        local_30 = local_34;\u000a        puVar9 = (ushort *)(param_1 + 0x668);\u000a        local_34 = local_38;\u000a        local_38 = local_28;\u000a        *puVar8 = uVar14 + (short)((int)(0x800 - (uint)uVar14) >> 5);\u000aLAB_00015e10:\u000a        pbVar11 = pbVar29;\u000a        if (uVar20 < 0x1000000) {\u000a          if (pbVar29 == pbVar25) {\u000a            return 1;\u000a          }\u000a          pbVar11 = pbVar29 + 1;\u000a          uVar20 = uVar20 << 8;\u000a          uVar19 = (uint)*pbVar29 | uVar19 << 8;\u000a        }\u000a        uVar14 = *puVar9;\u000a        uVar6 = (uint)uVar14 * (uVar20 >> 0xb);\u000a        if (uVar19 < uVar6) {\u000a          puVar8 = puVar9 + uVar26 * 8 + 2;\u000a          iVar27 = 3;\u000a          iVar16 = 0;\u000a          *puVar9 = uVar14 + (short)((int)(0x800 - (uint)uVar14) >> 5);\u000a          pbVar30 = pbVar11;\u000a        }\u000a        else {\u000a          uVar20 = uVar20 - uVar6;\u000a          uVar19 = uVar19 - uVar6;\u000a          *puVar9 = uVar14 - (uVar14 >> 5);\u000a          pbVar30 = pbVar11;\u000a          if (uVar20 < 0x1000000) {\u000a            if (pbVar11 == pbVar25) {\u000a              return 1;\u000a            }\u000a            pbVar30 = pbVar11 + 1;\u000a            uVar20 = uVar20 * 0x100;\u000a            uVar19 = (uint)*pbVar11 | uVar19 * 0x100;\u000a          }\u000a          uVar14 = puVar9[1];\u000a          uVar6 = (uint)uVar14 * (uVar20 >> 0xb);\u000a          if (uVar19 < uVar6) {\u000a            puVar8 = puVar9 + uVar26 * 8 + 0x82;\u000a            iVar27 = 3;\u000a            iVar16 = 8;\u000a            puVar9[1] = uVar14 + (short)((int)(0x800 - (uint)uVar14) >> 5);\u000a          }\u000a          else {\u000a            puVar9[1] = uVar14 - (uVar14 >> 5);\u000a            uVar19 = uVar19 - uVar6;\u000a            uVar6 = uVar20 - uVar6;\u000a            puVar8 = puVar9 + 0x102;\u000a            iVar27 = 8;\u000a            iVar16 = 0x10;\u000a          }\u000a        }\u000a        iVar10 = 1;\u000a        iVar22 = iVar27;\u000a        do {\u000a          pbVar29 = pbVar30;\u000a          if (uVar6 < 0x1000000) {\u000a            uVar6 = uVar6 << 8;\u000a            if (pbVar30 == pbVar25) {\u000a              return 1;\u000a            }\u000a            pbVar29 = pbVar30 + 1;\u000a            uVar19 = (uint)*pbVar30 | uVar19 << 8;\u000a          }\u000a          uVar14 = puVar8[iVar10];\u000a          uVar20 = (uint)uVar14 * (uVar6 >> 0xb);\u000a          uVar6 = uVar6 - uVar20;\u000a          if (uVar19 < uVar20) {\u000a            puVar8[iVar10] = uVar14 + (short)((int)(0x800 - (uint)uVar14) >> 5);\u000a            iVar10 = iVar10 * 2;\u000a            uVar6 = uVar20;\u000a          }\u000a          else {\u000a            uVar19 = uVar19 - uVar20;\u000a            puVar8[iVar10] = uVar14 - (uVar14 >> 5);\u000a            iVar10 = iVar10 * 2 + 1;\u000a          }\u000a          iVar22 = iVar22 + -1;\u000a          pbVar30 = pbVar29;\u000a        } while (iVar22 != 0);\u000a        iVar16 = (iVar10 - (1 << iVar27)) + iVar16;\u000a        if (local_3c < (sbyte *)0x4) {\u000a          iVar27 = iVar16;\u000a          if (2 < iVar16) {\u000a            iVar27 = 3;\u000a          }\u000a          local_28 = psVar5 + iVar27 * 0x80 + 0x360;\u000a          iVar27 = 1;\u000a          psVar12 = (sbyte *)0x6;\u000a          pbVar11 = pbVar29;\u000a          do {\u000a            iVar10 = iVar27 * 2;\u000a            pbVar29 = pbVar11;\u000a            if (uVar6 < 0x1000000) {\u000a              uVar6 = uVar6 << 8;\u000a              if (pbVar11 == pbVar25) {\u000a                return 1;\u000a              }\u000a              pbVar29 = pbVar11 + 1;\u000a              uVar19 = (uint)*pbVar11 | uVar19 << 8;\u000a            }\u000a            uVar14 = *(ushort *)(local_28 + iVar10);\u000a            uVar20 = (uint)uVar14 * (uVar6 >> 0xb);\u000a            uVar6 = uVar6 - uVar20;\u000a            if (uVar19 < uVar20) {\u000a              *(ushort *)(local_28 + iVar10) = uVar14 + (short)((int)(0x800 - (uint)uVar14) >> 5);\u000a              iVar27 = iVar10;\u000a              uVar6 = uVar20;\u000a            }\u000a            else {\u000a              uVar19 = uVar19 - uVar20;\u000a              *(ushort *)(local_28 + iVar10) = uVar14 - (uVar14 >> 5);\u000a              iVar27 = iVar27 * 2 + 1;\u000a            }\u000a            psVar12 = psVar12 + -1;\u000a            pbVar11 = pbVar29;\u000a          } while (psVar12 != (sbyte *)0x0);\u000a          psVar24 = (sbyte *)(iVar27 + -0x40);\u000a          if ((int)psVar24 < 4) {\u000a            local_28 = psVar24;\u000a          }\u000a          if (psVar24 != (sbyte *)0x3 && iVar27 + -0x43 < 0 == SBORROW4((int)psVar24,3)) {\u000a            psVar17 = (sbyte *)((int)psVar24 >> 1);\u000a            bVar31 = iVar27 + -0x4d < 0;\u000a            psVar23 = psVar17 + -1;\u000a            uVar20 = (uint)psVar24 & 1 | 2;\u000a            if (0xd < (int)psVar24) {\u000a              psVar17 = psVar17 + -5;\u000a            }\u000a            psVar13 = psVar24;\u000a            if (psVar24 != (sbyte *)0xd && bVar31 == SBORROW4((int)psVar24,0xd)) {\u000a              psVar13 = psVar12;\u000a            }\u000a            pbVar11 = pbVar29;\u000a            if (psVar24 != (sbyte *)0xd && bVar31 == SBORROW4((int)psVar24,0xd)) {\u000a              do {\u000a                psVar13 = psVar13 + 1;\u000a                pbVar29 = pbVar11;\u000a                if (uVar6 < 0x1000000) {\u000a                  uVar6 = uVar6 << 8;\u000a                  if (pbVar11 == pbVar25) {\u000a                    return 1;\u000a                  }\u000a                  pbVar29 = pbVar11 + 1;\u000a                  uVar19 = (uint)*pbVar11 | uVar19 << 8;\u000a                }\u000a                uVar6 = uVar6 >> 1;\u000a                uVar20 = uVar20 << 1;\u000a                if (uVar6 <= uVar19) {\u000a                  uVar19 = uVar19 - uVar6;\u000a                  uVar20 = uVar20 | 1;\u000a                }\u000a                pbVar11 = pbVar29;\u000a              } while (psVar13 != psVar17);\u000a              psVar12 = param_1 + 0x648;\u000a              local_28 = (sbyte *)(uVar20 << 4);\u000a              psVar23 = (sbyte *)0x4;\u000a            }\u000a            else {\u000a              local_28 = (sbyte *)(uVar20 << ((uint)psVar23 & 0xff));\u000a              psVar12 = psVar5 + (int)psVar13 * -2 + (int)local_28 * 2 + 0x55e;\u000a            }\u000a            uVar20 = 1;\u000a            iVar27 = 1;\u000a            pbVar11 = pbVar29;\u000a            do {\u000a              iVar10 = iVar27 * 2;\u000a              iVar27 = iVar27 * 2 + 1;\u000a              uVar21 = uVar6;\u000a              pbVar29 = pbVar11;\u000a              if (uVar6 < 0x1000000) {\u000a                uVar21 = uVar6 << 8;\u000a                if (pbVar11 == pbVar25) {\u000a                  return 1;\u000a                }\u000a                pbVar29 = pbVar11 + 1;\u000a                uVar19 = (uint)*pbVar11 | uVar19 << 8;\u000a              }\u000a              uVar14 = *(ushort *)(psVar12 + iVar10);\u000a              uVar6 = (uint)uVar14 * (uVar21 >> 0xb);\u000a              if (uVar19 < uVar6) {\u000a                *(ushort *)(psVar12 + iVar10) = uVar14 + (short)((int)(0x800 - (uint)uVar14) >> 5);\u000a                iVar27 = iVar10;\u000a              }\u000a              else {\u000a                local_28 = (sbyte *)((uint)local_28 | uVar20);\u000a                *(ushort *)(psVar12 + iVar10) = uVar14 - (uVar14 >> 5);\u000a                uVar19 = uVar19 - uVar6;\u000a                uVar6 = uVar21 - uVar6;\u000a              }\u000a              psVar23 = psVar23 + -1;\u000a              uVar20 = uVar20 << 1;\u000a              pbVar11 = pbVar29;\u000a            } while (psVar23 != (sbyte *)0x0);\u000a          }\u000a          local_28 = local_28 + 1;\u000a          if (local_28 == (sbyte *)0x0) break;\u000a          local_3c = local_3c + 7;\u000a        }\u000a        if (psVar28 < local_28) {\u000a          return 1;\u000a        }\u000a        iVar16 = iVar16 + 2;\u000a        pbVar11 = (byte *)(psVar28 + (param_5 - (int)local_28));\u000a        pbVar30 = (byte *)(psVar28 + param_5);\u000a        do {\u000a          iVar16 = iVar16 + -1;\u000a          psVar28 = psVar28 + 1;\u000a          uVar20 = (uint)*pbVar11;\u000a          *pbVar30 = *pbVar11;\u000a          pbVar11 = pbVar11 + 1;\u000a          pbVar30 = pbVar30 + 1;\u000a          psVar12 = local_3c;\u000a        } while (psVar28 < param_6 && iVar16 != 0);\u000a      }\u000a      else {\u000a        uVar21 = uVar21 - uVar20;\u000a        *puVar8 = uVar14 - (uVar14 >> 5);\u000a        uVar19 = uVar19 - uVar20;\u000a        pbVar11 = pbVar29;\u000a        if (uVar21 < 0x1000000) {\u000a          if (pbVar29 == pbVar25) {\u000a            return 1;\u000a          }\u000a          pbVar11 = pbVar29 + 1;\u000a          uVar21 = uVar21 * 0x100;\u000a          uVar19 = (uint)*pbVar29 | uVar19 * 0x100;\u000a        }\u000a        puVar8 = (ushort *)(psVar24 + 0x198);\u000a        uVar14 = *puVar8;\u000a        uVar20 = (uint)uVar14 * (uVar21 >> 0xb);\u000a        if (uVar20 <= uVar19) {\u000a          uVar21 = uVar21 - uVar20;\u000a          *puVar8 = uVar14 - (uVar14 >> 5);\u000a          uVar19 = uVar19 - uVar20;\u000a          pbVar30 = pbVar11;\u000a          if (uVar21 < 0x1000000) {\u000a            if (pbVar11 == pbVar25) {\u000a              return 1;\u000a            }\u000a            pbVar30 = pbVar11 + 1;\u000a            uVar21 = uVar21 * 0x100;\u000a            uVar19 = (uint)*pbVar11 | uVar19 * 0x100;\u000a          }\u000a          puVar8 = (ushort *)(psVar24 + 0x1b0);\u000a          uVar14 = *puVar8;\u000a          uVar6 = (uint)uVar14 * (uVar21 >> 0xb);\u000a          if (uVar19 < uVar6) {\u000a            uVar14 = uVar14 + (short)((int)(0x800 - (uint)uVar14) >> 5);\u000a            psVar12 = local_38;\u000a            pbVar29 = pbVar30;\u000aLAB_00015d4c:\u000a            local_38 = local_28;\u000a            uVar20 = uVar6;\u000a            local_28 = psVar12;\u000a            goto LAB_00015d50;\u000a          }\u000a          uVar21 = uVar21 - uVar6;\u000a          *puVar8 = uVar14 - (uVar14 >> 5);\u000a          uVar19 = uVar19 - uVar6;\u000a          pbVar29 = pbVar30;\u000a          if (uVar21 < 0x1000000) {\u000a            if (pbVar30 == pbVar25) {\u000a              return 1;\u000a            }\u000a            pbVar29 = pbVar30 + 1;\u000a            uVar21 = uVar21 * 0x100;\u000a            uVar19 = (uint)*pbVar30 | uVar19 * 0x100;\u000a          }\u000a          puVar8 = (ushort *)(psVar24 + 0x1c8);\u000a          uVar14 = *puVar8;\u000a          uVar6 = (uint)uVar14 * (uVar21 >> 0xb);\u000a          if (uVar19 < uVar6) {\u000a            uVar14 = uVar14 + (short)((int)(0x800 - (uint)uVar14) >> 5);\u000a            psVar12 = local_34;\u000a            local_34 = local_38;\u000a            goto LAB_00015d4c;\u000a          }\u000a          *puVar8 = uVar14 - (uVar14 >> 5);\u000a          uVar20 = uVar21 - uVar6;\u000a          local_30 = local_34;\u000a          local_34 = local_38;\u000a          local_38 = local_28;\u000a          local_28 = psVar12;\u000a          uVar19 = uVar19 - uVar6;\u000aLAB_00015df0:\u000a          if ((int)local_3c < 7) {\u000a            local_3c = (sbyte *)0x8;\u000a          }\u000a          else {\u000a            local_3c = (sbyte *)0xb;\u000a          }\u000a          puVar9 = (ushort *)(param_1 + 0xa6c);\u000a          goto LAB_00015e10;\u000a        }\u000a        *puVar8 = uVar14 + (short)((int)(0x800 - (uint)uVar14) >> 5);\u000a        pbVar29 = pbVar11;\u000a        if (uVar20 < 0x1000000) {\u000a          if (pbVar11 == pbVar25) {\u000a            return 1;\u000a          }\u000a          pbVar29 = pbVar11 + 1;\u000a          uVar20 = uVar20 * 0x100;\u000a          uVar19 = (uint)*pbVar11 | uVar19 << 8;\u000a        }\u000a        puVar8 = (ushort *)(psVar5 + uVar26 * 2 + (int)local_3c * 0x20 + 0x1e0);\u000a        uVar14 = *puVar8;\u000a        uVar6 = (uint)uVar14 * (uVar20 >> 0xb);\u000a        if (uVar6 <= uVar19) {\u000a          uVar19 = uVar19 - uVar6;\u000a          uVar14 = uVar14 - (uVar14 >> 5);\u000a          uVar20 = uVar20 - uVar6;\u000aLAB_00015d50:\u000a          *puVar8 = uVar14;\u000a          goto LAB_00015df0;\u000a        }\u000a        *puVar8 = uVar14 + (short)((int)(0x800 - (uint)uVar14) >> 5);\u000a        if (psVar28 == (sbyte *)0x0) {\u000a          return 1;\u000a        }\u000a        uVar20 = (uint)(byte)psVar28[param_5 - (int)local_28];\u000a        if ((int)local_3c < 7) {\u000a          psVar12 = (sbyte *)0x9;\u000a        }\u000a        else {\u000a          psVar12 = (sbyte *)0xb;\u000a        }\u000a        psVar28[param_5] = psVar28[param_5 - (int)local_28];\u000a        psVar28 = psVar28 + 1;\u000a      }\u000a    }\u000a  }\u000a  if (uVar6 < 0x1000000) {\u000a    if (pbVar29 == pbVar25) {\u000a      return 1;\u000a    }\u000a    pbVar29 = pbVar29 + 1;\u000a  }\u000a  *param_4 = pbVar29 + -(int)param_2;\u000a  *param_7 = psVar28;\u000a  return 0;\u000a}\u000a\u000a
p3
S'stmdb sp!,{ r4 r5 r6 r7 r8 r9 r10 r11 lr }\nsub sp,sp,#0x30\nstr r3,[sp,#0x0]\nldrb r3,[r0,#0x0]\nldrb r5,[r0,#0x2]\nldrb lr,[r0,#0x1]\nldr r12,[sp,#0x0]\nstr r3,[sp,#0x14]\nldr r3,[sp,#0x5c]\nmov r4,#0x0\nstr r4,[r12,#0x0]\nstr r4,[r3,#0x0]\nldr r12,[sp,#0x14]\nldrb r3,[r0,#0x1]\nadd r3,r12,r3\nmov r12,#0x300\nmov r12,r12, lsl r3\nmov r3,#0x1\nmov lr,r3, lsl lr\nmov r3,r3, lsl r5\nadd r12,r12,#0x730\nsub r3,r3,#0x1\nsub lr,lr,#0x1\nadd r0,r0,#0x4\nadd r12,r12,#0x6\nstr r1,[sp,#0x4]\nstr r3,[sp,#0xc]\nstr lr,[sp,#0x10]\nstr r0,[sp,#0x8]\nb 0x00015904\nldr r0,[sp,#0x8]\nmov r1,#0x400\nstrh r1,[r3,r0]\ncmp r4,r12\nmov r3,r4, lsl #0x1\nadd r4,r4,#0x1\nbne 0x000158f8\nldr r3,[sp,#0x4]\nmov r6,#0x0\nadd r9,r3,r2\ncpy lr,r3\ncpy r2,r6\nldr r5,[sp,#0x4]\nrsb r3,r5,r9\ncmp r2,r3\nadd lr,lr,#0x1\nbeq 0x000161ac\nldrb r3,[r2,r5]\nadd r2,r2,#0x1\ncmp r2,#0x5\norr r6,r3,r6, lsl #0x8\nbne 0x00015928\nmov r11,#0x0\nmov r12,#0x1\ncpy r7,r11\nmvn r0,#0x0\nstr r12,[sp,#0x2c]\nstr r11,[sp,#0x18]\nstr r12,[sp,#0x1c]\nstr r12,[sp,#0x20]\nstr r12,[sp,#0x24]\nb 0x0001616c\nmvn r8,#0xff000000\ncmp r0,r8\nbhi 0x00015998\ncmp lr,r9\nbeq 0x000161ac\nldrb r3,[lr],#0x1\nmov r0,r0, lsl #0x8\norr r6,r3,r6, lsl #0x8\nldr r1,[sp,#0xc]\nldr r2,[sp,#0x18]\nand r10,r11,r1\nmov r1,r2, lsl #0x4\nadd r3,r10,r1\nmov r5,r3, lsl #0x1\nldr r3,[sp,#0x8]\nldrh r12,[r3,r5]\nmov r3,r0, lsr #0xb\nmul r4,r12,r3\ncmp r6,r4\nbcs 0x00015b6c\nldr r0,[sp,#0x14]\nrsb r3,r0,#0x8\nmov r3,r7, asr r3\nldr r1,[sp,#0x10]\nand r2,r11,r1\nadd r3,r3,r2, lsl r0\nldr r0,[sp,#0x8]\nmov r2,#0x600\nmla r2,r3,r2,r0\nldr r1,[sp,#0x18]\nrsb r3,r12,#0x800\ncmp r1,#0x6\nadd r3,r12,r3, asr #0x5\nadd r8,r2,#0xe60\nstrh r3,[r0,r5]\nadd r8,r8,#0xc\ncpyle r0,r4\nmovle r1,#0x1\nble 0x00015b18\nldr r2,[sp,#0x2c]\nldr r5,[sp,#0x54]\nrsb r3,r2,r11\nldrb r7,[r5,r3]\ncpy r0,r4\nmov r1,#0x1\nmov r7,r7, lsl #0x1\nand r5,r7,#0x100\nmov r10,r1, lsl #0x1\nadd r3,r8,r5, lsl #0x1\nadd r3,r3,r10\ncmp r0,#0x1000000\nadd r4,r3,#0x200\nadd r12,r1,#0x1\nbcs 0x00015a64\ncmp lr,r9\nmov r0,r0, lsl #0x8\nbeq 0x000161ac\nldrb r3,[lr],#0x1\norr r6,r3,r6, lsl #0x8\nldrh r3,[r4,#0x0]\nmov r2,r0, lsr #0xb\nadd r1,r1,r12\nmul r12,r3,r2\nrsb r2,r3,#0x800\ncmp r6,r12\nadd r2,r3,r2, asr #0x5\nsub r3,r3,r3, lsr #0x5\nbcs 0x00015aa4\ncmp r5,#0x0\ncpy r0,r12\nstrh r2,[r4,#0x0]\ncpy r1,r10\nbeq 0x00015ab8\ncpy r0,r12\nb 0x00015b18\ncmp r5,#0x0\nstrh r3,[r4,#0x0]\nrsb r6,r12,r6\nrsb r0,r12,r0\nbeq 0x00015b18\ncmp r1,#0xff\nbgt 0x00015b28\nb 0x00015a2c\ncmp r0,#0x1000000\nadd r1,r1,r3\nbcs 0x00015ae4\ncmp lr,r9\nmov r0,r0, lsl #0x8\nbeq 0x000161ac\nldrb r3,[lr],#0x1\norr r6,r3,r6, lsl #0x8\nldrh r3,[r8,r4]\nmov r2,r0, lsr #0xb\nmul r12,r3,r2\nrsb r2,r3,#0x800\ncmp r6,r12\nsub r5,r3,r3, lsr #0x5\nadd r3,r3,r2, asr #0x5\nstrhcc r3,[r8,r4]\nstrhcs r5,[r8,r4]\nrsb r0,r12,r0\ncpycc r1,r4\ncpycc r0,r12\nrsbcs r6,r12,r6\ncmp r1,#0xff\nmov r4,r1, lsl #0x1\nadd r3,r1,#0x1\nble 0x00015ac4\nldr r12,[sp,#0x18]\nand r7,r1,#0xff\ncmp r12,#0x3\nldr r1,[sp,#0x54]\nmovle r2,#0x0\nstrb r7,[r1,r11]\nadd r11,r11,#0x1\nstrle r2,[sp,#0x18]\nble 0x0001616c\nldr r3,[sp,#0x18]\ncmp r3,#0x9\nldrgt r5,[sp,#0x18]\nsuble r3,r3,#0x3\nsubgt r5,r5,#0x6\nstrle r3,[sp,#0x18]\nstrgt r5,[sp,#0x18]\nb 0x0001616c\nsub r3,r12,r12, lsr #0x5\nrsb r2,r4,r0\nldr r12,[sp,#0x8]\ncmp r2,r8\nstrh r3,[r12,r5]\nrsb r6,r4,r6\nbhi 0x00015b9c\ncmp lr,r9\nbeq 0x000161ac\nldrb r3,[lr],#0x1\nmov r2,r2, lsl #0x8\norr r6,r3,r6, lsl #0x8\nldr r0,[sp,#0x8]\nldr r3,[sp,#0x18]\nadd r7,r0,r3, lsl #0x1\nadd r0,r7,#0x180\nldrh r12,[r0,#0x0]\nmov r3,r2, lsr #0xb\nmul r4,r12,r3\ncmp r6,r4\nbcs 0x00015c0c\nldr r2,[sp,#0x18]\nldr r5,[sp,#0x8]\ncmp r2,#0x6\nrsb r3,r12,#0x800\nadd r1,r5,#0x660\nmovgt r2,#0x3\nldr r5,[sp,#0x20]\nmovle r2,#0x0\nadd r3,r12,r3, asr #0x5\nstr r2,[sp,#0x18]\nldr r12,[sp,#0x1c]\nldr r2,[sp,#0x2c]\nstr r5,[sp,#0x24]\nadd r1,r1,#0x4\ncpy r5,r4\nstr r12,[sp,#0x20]\nstr r2,[sp,#0x1c]\nstrh r3,[r0,#0x0]\nb 0x00015e10\nrsb r2,r4,r2\nsub r3,r12,r12, lsr #0x5\ncmp r2,r8\nstrh r3,[r0,#0x0]\nrsb r6,r4,r6\nbhi 0x00015c38\ncmp lr,r9\nbeq 0x000161ac\nldrb r3,[lr],#0x1\nmov r2,r2, lsl #0x8\norr r6,r3,r6, lsl #0x8\nadd r5,r7,#0x198\nldrh r12,[r5,#0x0]\nmov r3,r2, lsr #0xb\nmul r4,r12,r3\ncmp r6,r4\nbcs 0x00015cf0\nrsb r3,r12,#0x800\nadd r3,r12,r3, asr #0x5\ncmp r4,r8\nstrh r3,[r5,#0x0]\nbhi 0x00015c78\ncmp lr,r9\nbeq 0x000161ac\nldrb r3,[lr],#0x1\nmov r4,r4, lsl #0x8\norr r6,r3,r6, lsl #0x8\nldr r5,[sp,#0x8]\nadd r3,r5,r1, lsl #0x1\nadd r3,r3,r10, lsl #0x1\nadd r1,r3,#0x1e0\nldrh r12,[r1,#0x0]\nmov r3,r4, lsr #0xb\nmul r2,r12,r3\ncmp r6,r2\nrsbcs r6,r2,r6\nsubcs r3,r12,r12, lsr #0x5\nrsbcs r5,r2,r4\nbcs 0x00015d50\nrsb r3,r12,#0x800\nadd r3,r12,r3, asr #0x5\ncmp r11,#0x0\nstrh r3,[r1,#0x0]\nbeq 0x000161ac\nldr r12,[sp,#0x2c]\nldr r1,[sp,#0x18]\nldr r0,[sp,#0x54]\nrsb r3,r12,r11\nldrb r7,[r0,r3]\ncmp r1,#0x6\nmovgt r1,#0xb\nmovle r1,#0x9\nstr r1,[sp,#0x18]\nstrb r7,[r0,r11]\ncpy r0,r2\nadd r11,r11,#0x1\nb 0x0001616c\nrsb r2,r4,r2\nsub r3,r12,r12, lsr #0x5\ncmp r2,r8\nstrh r3,[r5,#0x0]\nrsb r6,r4,r6\nbhi 0x00015d1c\ncmp lr,r9\nbeq 0x000161ac\nldrb r3,[lr],#0x1\nmov r2,r2, lsl #0x8\norr r6,r3,r6, lsl #0x8\nadd r1,r7,#0x1b0\nldrh r12,[r1,#0x0]\nmov r3,r2, lsr #0xb\nmul r4,r12,r3\ncmp r6,r4\nbcs 0x00015d58\nldr r5,[sp,#0x2c]\nrsb r3,r12,#0x800\nldr r2,[sp,#0x1c]\nadd r3,r12,r3, asr #0x5\nstr r5,[sp,#0x1c]\ncpy r5,r4\nstr r2,[sp,#0x2c]\nstrh r3,[r1,#0x0]\nb 0x00015df0\nrsb r2,r4,r2\nsub r3,r12,r12, lsr #0x5\ncmp r2,r8\nstrh r3,[r1,#0x0]\nrsb r6,r4,r6\nbhi 0x00015d84\ncmp lr,r9\nbeq 0x000161ac\nldrb r3,[lr],#0x1\nmov r2,r2, lsl #0x8\norr r6,r3,r6, lsl #0x8\nadd r1,r7,#0x1c8\nldrh r12,[r1,#0x0]\nmov r3,r2, lsr #0xb\nmul r4,r12,r3\ncmp r6,r4\nbcs 0x00015dc0\nrsb r3,r12,#0x800\nldr r2,[sp,#0x20]\nadd r3,r12,r3, asr #0x5\nldr r0,[sp,#0x2c]\nldr r12,[sp,#0x1c]\ncpy r5,r4\nstr r12,[sp,#0x20]\nstr r0,[sp,#0x1c]\nb 0x00015d4c\nsub r3,r12,r12, lsr #0x5\nstrh r3,[r1,#0x0]\nldr r12,[sp,#0x2c]\nadd r1,sp,#0x20\nldmia r1,{ r1 r3 }\nrsb r5,r4,r2\nldr r2,[sp,#0x1c]\nstr r1,[sp,#0x24]\nstr r2,[sp,#0x20]\nstr r12,[sp,#0x1c]\nstr r3,[sp,#0x2c]\nrsb r6,r4,r6\nldr r2,[sp,#0x18]\nldr r0,[sp,#0x8]\ncmp r2,#0x6\nmovgt r2,#0xb\nmovle r2,#0x8\nadd r1,r0,#0xa60\nstr r2,[sp,#0x18]\nadd r1,r1,#0x8\nmvn r7,#0xff000000\ncmp r5,r7\nbhi 0x00015e30\ncmp lr,r9\nbeq 0x000161ac\nldrb r3,[lr],#0x1\nmov r5,r5, lsl #0x8\norr r6,r3,r6, lsl #0x8\nldrh r12,[r1,#0x0]\nmov r3,r5, lsr #0xb\nmul r4,r12,r3\ncmp r6,r4\nbcs 0x00015e68\nadd r2,r1,r10, lsl #0x4\nrsb r3,r12,#0x800\nadd r3,r12,r3, asr #0x5\nadd r5,r2,#0x4\ncpy r0,r4\nmov r10,#0x3\nmov r8,#0x0\nstrh r3,[r1,#0x0]\nb 0x00015ee8\nrsb r2,r4,r5\nsub r3,r12,r12, lsr #0x5\ncmp r2,r7\nrsb r6,r4,r6\nstrh r3,[r1,#0x0]\nbhi 0x00015e94\ncmp lr,r9\nbeq 0x000161ac\nldrb r3,[lr],#0x1\nmov r2,r2, lsl #0x8\norr r6,r3,r6, lsl #0x8\nldrh r12,[r1,#0x2]\nmov r3,r2, lsr #0xb\nmul r4,r12,r3\ncmp r6,r4\nbcs 0x00015ecc\nadd r2,r1,r10, lsl #0x4\nrsb r3,r12,#0x800\nadd r3,r12,r3, asr #0x5\nadd r5,r2,#0x104\ncpy r0,r4\nmov r10,#0x3\nmov r8,#0x8\nstrh r3,[r1,#0x2]\nb 0x00015ee8\nsub r3,r12,r12, lsr #0x5\nstrh r3,[r1,#0x2]\nrsb r6,r4,r6\nrsb r0,r4,r2\nadd r5,r1,#0x204\nmov r10,#0x8\nmov r8,#0x10\ncpy r7,r10\nmov r1,#0x1\nadd r3,r1,#0x1\ncmp r0,#0x1000000\nmov r4,r1, lsl #0x1\nadd r1,r1,r3\nbcs 0x00015f18\ncmp lr,r9\nmov r0,r0, lsl #0x8\nbeq 0x000161ac\nldrb r3,[lr],#0x1\norr r6,r3,r6, lsl #0x8\nldrh r3,[r5,r4]\nmov r2,r0, lsr #0xb\nmul r12,r3,r2\nrsb r2,r3,#0x800\ncmp r6,r12\nadd r2,r3,r2, asr #0x5\nsub r3,r3,r3, lsr #0x5\nrsb r0,r12,r0\ncpycc r1,r4\ncpycc r0,r12\nstrhcc r2,[r5,r4]\nrsbcs r6,r12,r6\nstrhcs r3,[r5,r4]\nsubs r7,r7,#0x1\nbne 0x00015ef0\nmov r2,#0x1\nsub r3,r1,r2, lsl r10\nldr r5,[sp,#0x18]\nadd r3,r3,r8\ncmp r5,#0x3\nstr r3,[sp,#0x28]\nbgt 0x00016118\nldr r12,[sp,#0x8]\ncmp r3,#0x3\nmovge r3,#0x3\nadd r3,r12,r3, lsl #0x7\nadd r5,r3,#0x360\ncpy r7,r2\nmov r8,#0x6\nadd r3,r7,#0x1\ncmp r0,#0x1000000\nmov r4,r7, lsl #0x1\nadd r7,r7,r3\nbcs 0x00015fb4\ncmp lr,r9\nmov r0,r0, lsl #0x8\nbeq 0x000161ac\nldrb r3,[lr],#0x1\norr r6,r3,r6, lsl #0x8\nldrh r3,[r5,r4]\nmov r2,r0, lsr #0xb\nmul r12,r3,r2\nrsb r2,r3,#0x800\ncmp r6,r12\nadd r2,r3,r2, asr #0x5\nsub r3,r3,r3, lsr #0x5\nrsb r0,r12,r0\ncpycc r7,r4\ncpycc r0,r12\nstrhcc r2,[r5,r4]\nrsbcs r6,r12,r6\nstrhcs r3,[r5,r4]\nsubs r8,r8,#0x1\nbne 0x00015f8c\nsub r2,r7,#0x40\ncmp r2,#0x3\ncpyle r5,r2\nble 0x00016100\nmov r4,r2, asr #0x1\ncmp r2,#0xd\nand r3,r2,#0x1\nsub r7,r4,#0x1\norr r12,r3,#0x2\nsubgt r4,r4,#0x5\ncpygt r2,r8\nbgt 0x0001603c\nmov r5,r12, lsl r7\nldr r1,[sp,#0x8]\nadd r3,r1,r5, lsl #0x1\nsub r3,r3,r2, lsl #0x1\nadd r4,r3,#0x550\nadd r4,r4,#0xe\nb 0x0001608c\ncmp r0,#0x1000000\nadd r2,r2,#0x1\nbcs 0x0001605c\ncmp lr,r9\nmov r0,r0, lsl #0x8\nbeq 0x000161ac\nldrb r3,[lr],#0x1\norr r6,r3,r6, lsl #0x8\nmov r0,r0, lsr #0x1\ncmp r6,r0\nmov r12,r12, lsl #0x1\nrsbcs r6,r0,r6\norrcs r12,r12,#0x1\ncmp r2,r4\nbne 0x0001603c\nldr r2,[sp,#0x8]\nadd r4,r2,#0x640\nadd r4,r4,#0x4\nmov r5,r12, lsl #0x4\nmov r7,#0x4\nmov r10,#0x1\ncpy r8,r10\ncmp r0,#0x1000000\nmov r1,r8, lsl #0x1\nadd r12,r8,#0x1\nbcs 0x000160b8\ncmp lr,r9\nmov r0,r0, lsl #0x8\nbeq 0x000161ac\nldrb r3,[lr],#0x1\norr r6,r3,r6, lsl #0x8\nldrh r3,[r4,r1]\nmov r2,r0, lsr #0xb\nadd r8,r8,r12\nmul r12,r3,r2\nrsb r2,r3,#0x800\ncmp r6,r12\nadd r2,r3,r2, asr #0x5\nsub r3,r3,r3, lsr #0x5\norrcs r5,r5,r10\ncpycc r8,r1\ncpycc r0,r12\nstrhcc r2,[r4,r1]\nstrhcs r3,[r4,r1]\nrsbcs r6,r12,r6\nrsbcs r0,r12,r0\nsubs r7,r7,#0x1\nmov r10,r10, lsl #0x1\nbne 0x00016094\nadds r5,r5,#0x1\nstr r5,[sp,#0x2c]\nbeq 0x00016178\nldr r3,[sp,#0x18]\nadd r3,r3,#0x7\nstr r3,[sp,#0x18]\nldr r5,[sp,#0x2c]\ncmp r5,r11\nbhi 0x000161ac\nldr r12,[sp,#0x28]\nldr r1,[sp,#0x54]\nrsb r3,r5,r11\nadd r2,r12,#0x2\nadd r4,r1,r3\nadd r12,r1,r11\nsubs r2,r2,#0x1\nldr r5,[sp,#0x58]\nmoveq r3,#0x0\nmovne r3,#0x1\nadd r11,r11,#0x1\ncmp r11,r5\nmovcs r3,#0x0\nandcc r3,r3,#0x1\nldrb r7,[r4],#0x1\ncmp r3,#0x0\nstrb r7,[r12],#0x1\nbne 0x0001613c\nldr r12,[sp,#0x58]\ncmp r11,r12\nbcc 0x00015978\ncmp r0,#0x1000000\nbcs 0x0001618c\ncmp lr,r9\nbeq 0x000161ac\nadd lr,lr,#0x1\nldr r0,[sp,#0x4]\nldr r1,[sp,#0x0]\nldr r2,[sp,#0x5c]\nrsb r3,r0,lr\nmov r0,#0x0\nstr r3,[r1,#0x0]\nstr r11,[r2,#0x0]\nb 0x000161b0\nmov r0,#0x1\nadd sp,sp,#0x30\nldmia sp!,{ r4 r5 r6 r7 r8 r9 r10 r11 pc }\n'
p4
S'f0 4f 2d e9\n30 d0 4d e2\n00 30 8d e5\n00 30 d0 e5\n02 50 d0 e5\n01 e0 d0 e5\n00 c0 9d e5\n14 30 8d e5\n5c 30 9d e5\n00 40 a0 e3\n00 40 8c e5\n00 40 83 e5\n14 c0 9d e5\n01 30 d0 e5\n03 30 8c e0\n03 cc a0 e3\n1c c3 a0 e1\n01 30 a0 e3\n13 ee a0 e1\n13 35 a0 e1\n73 ce 8c e2\n01 30 43 e2\n01 e0 4e e2\n04 00 80 e2\n06 c0 8c e2\n04 10 8d e5\n0c 30 8d e5\n10 e0 8d e5\n08 00 8d e5\n02 00 00 ea\n08 00 9d e5\n01 1b a0 e3\nb0 10 83 e1\n0c 00 54 e1\n84 30 a0 e1\n01 40 84 e2\nf8 ff ff 1a\n04 30 9d e5\n00 60 a0 e3\n02 90 83 e0\n03 e0 a0 e1\n06 20 a0 e1\n04 50 9d e5\n09 30 65 e0\n03 00 52 e1\n01 e0 8e e2\n1b 02 00 0a\n05 30 d2 e7\n01 20 82 e2\n05 00 52 e3\n06 64 83 e1\nf5 ff ff 1a\n00 b0 a0 e3\n01 c0 a0 e3\n0b 70 a0 e1\n00 00 e0 e3\n2c c0 8d e5\n18 b0 8d e5\n1c c0 8d e5\n20 c0 8d e5\n24 c0 8d e5\nfc 01 00 ea\nff 84 e0 e3\n08 00 50 e1\n04 00 00 8a\n09 00 5e e1\n07 02 00 0a\n01 30 de e4\n00 04 a0 e1\n06 64 83 e1\n0c 10 9d e5\n18 20 9d e5\n01 a0 0b e0\n02 12 a0 e1\n01 30 8a e0\n83 50 a0 e1\n08 30 9d e5\nb5 c0 93 e1\na0 35 a0 e1\n9c 03 04 e0\n04 00 56 e1\n68 00 00 2a\n14 00 9d e5\n08 30 60 e2\n57 33 a0 e1\n10 10 9d e5\n01 20 0b e0\n12 30 83 e0\n08 00 9d e5\n06 2c a0 e3\n93 02 22 e0\n18 10 9d e5\n02 3b 6c e2\n06 00 51 e3\nc3 32 8c e0\ne6 8e 82 e2\nb5 30 80 e1\n0c 80 88 e2\n04 00 a0 d1\n01 10 a0 d3\n40 00 00 da\n2c 20 9d e5\n54 50 9d e5\n0b 30 62 e0\n03 70 d5 e7\n04 00 a0 e1\n01 10 a0 e3\n87 70 a0 e1\n01 5c 07 e2\n81 a0 a0 e1\n85 30 88 e0\n0a 30 83 e0\n01 04 50 e3\n02 4c 83 e2\n01 c0 81 e2\n04 00 00 2a\n09 00 5e e1\n00 04 a0 e1\nd3 01 00 0a\n01 30 de e4\n06 64 83 e1\nb0 30 d4 e1\na0 25 a0 e1\n0c 10 81 e0\n93 02 0c e0\n02 2b 63 e2\n0c 00 56 e1\nc2 22 83 e0\na3 32 43 e0\n06 00 00 2a\n00 00 55 e3\n0c 00 a0 e1\nb0 20 c4 e1\n0a 10 a0 e1\n06 00 00 0a\n0c 00 a0 e1\n1c 00 00 ea\n00 00 55 e3\nb0 30 c4 e1\n06 60 6c e0\n00 00 6c e0\n17 00 00 0a\nff 00 51 e3\n19 00 00 ca\nd9 ff ff ea\n01 04 50 e3\n03 10 81 e0\n04 00 00 2a\n09 00 5e e1\n00 04 a0 e1\nb3 01 00 0a\n01 30 de e4\n06 64 83 e1\nb4 30 98 e1\na0 25 a0 e1\n93 02 0c e0\n02 2b 63 e2\n0c 00 56 e1\na3 52 43 e0\nc2 32 83 e0\nb4 30 88 31\nb4 50 88 21\n00 00 6c e0\n04 10 a0 31\n0c 00 a0 31\n06 60 6c 20\nff 00 51 e3\n81 40 a0 e1\n01 30 81 e2\ne6 ff ff da\n18 c0 9d e5\nff 70 01 e2\n03 00 5c e3\n54 10 9d e5\n00 20 a0 d3\n0b 70 c1 e7\n01 b0 8b e2\n18 20 8d d5\n87 01 00 da\n18 30 9d e5\n09 00 53 e3\n18 50 9d c5\n03 30 43 d2\n06 50 45 c2\n18 30 8d d5\n18 50 8d c5\n7f 01 00 ea\nac 32 4c e0\n00 20 64 e0\n08 c0 9d e5\n08 00 52 e1\nb5 30 8c e1\n06 60 64 e0\n04 00 00 8a\n09 00 5e e1\n86 01 00 0a\n01 30 de e4\n02 24 a0 e1\n06 64 83 e1\n08 00 9d e5\n18 30 9d e5\n83 70 80 e0\n06 0d 87 e2\nb0 c0 d0 e1\na2 35 a0 e1\n9c 03 04 e0\n04 00 56 e1\n12 00 00 2a\n18 20 9d e5\n08 50 9d e5\n06 00 52 e3\n02 3b 6c e2\n66 1e 85 e2\n03 20 a0 c3\n20 50 9d e5\n00 20 a0 d3\nc3 32 8c e0\n18 20 8d e5\n1c c0 9d e5\n2c 20 9d e5\n24 50 8d e5\n04 10 81 e2\n04 50 a0 e1\n20 c0 8d e5\n1c 20 8d e5\nb0 30 c0 e1\n80 00 00 ea\n02 20 64 e0\nac 32 4c e0\n08 00 52 e1\nb0 30 c0 e1\n06 60 64 e0\n04 00 00 8a\n09 00 5e e1\n5f 01 00 0a\n01 30 de e4\n02 24 a0 e1\n06 64 83 e1\n66 5f 87 e2\nb0 c0 d5 e1\na2 35 a0 e1\n9c 03 04 e0\n04 00 56 e1\n27 00 00 2a\n02 3b 6c e2\nc3 32 8c e0\n08 00 54 e1\nb0 30 c5 e1\n04 00 00 8a\n09 00 5e e1\n4f 01 00 0a\n01 30 de e4\n04 44 a0 e1\n06 64 83 e1\n08 50 9d e5\n81 30 85 e0\n8a 30 83 e0\n1e 1e 83 e2\nb0 c0 d1 e1\na4 35 a0 e1\n9c 03 02 e0\n02 00 56 e1\n06 60 62 20\nac 32 4c 20\n04 50 62 20\n29 00 00 2a\n02 3b 6c e2\nc3 32 8c e0\n00 00 5b e3\nb0 30 c1 e1\n3b 01 00 0a\n2c c0 9d e5\n18 10 9d e5\n54 00 9d e5\n0b 30 6c e0\n03 70 d0 e7\n06 00 51 e3\n0b 10 a0 c3\n09 10 a0 d3\n18 10 8d e5\n0b 70 c0 e7\n02 00 a0 e1\n01 b0 8b e2\n1e 01 00 ea\n02 20 64 e0\nac 32 4c e0\n08 00 52 e1\nb0 30 c5 e1\n06 60 64 e0\n04 00 00 8a\n09 00 5e e1\n26 01 00 0a\n01 30 de e4\n02 24 a0 e1\n06 64 83 e1\n1b 1e 87 e2\nb0 c0 d1 e1\na2 35 a0 e1\n9c 03 04 e0\n04 00 56 e1\n08 00 00 2a\n2c 50 9d e5\n02 3b 6c e2\n1c 20 9d e5\nc3 32 8c e0\n1c 50 8d e5\n04 50 a0 e1\n2c 20 8d e5\nb0 30 c1 e1\n25 00 00 ea\n02 20 64 e0\nac 32 4c e0\n08 00 52 e1\nb0 30 c1 e1\n06 60 64 e0\n04 00 00 8a\n09 00 5e e1\n0c 01 00 0a\n01 30 de e4\n02 24 a0 e1\n06 64 83 e1\n72 1f 87 e2\nb0 c0 d1 e1\na2 35 a0 e1\n9c 03 04 e0\n04 00 56 e1\n08 00 00 2a\n02 3b 6c e2\n20 20 9d e5\nc3 32 8c e0\n2c 00 9d e5\n1c c0 9d e5\n04 50 a0 e1\n20 c0 8d e5\n1c 00 8d e5\ne2 ff ff ea\nac 32 4c e0\nb0 30 c1 e1\n2c c0 9d e5\n20 10 8d e2\n0a 00 91 e8\n02 50 64 e0\n1c 20 9d e5\n24 10 8d e5\n20 20 8d e5\n1c c0 8d e5\n2c 30 8d e5\n06 60 64 e0\n18 20 9d e5\n08 00 9d e5\n06 00 52 e3\n0b 20 a0 c3\n08 20 a0 d3\na6 1e 80 e2\n18 20 8d e5\n08 10 81 e2\nff 74 e0 e3\n07 00 55 e1\n04 00 00 8a\n09 00 5e e1\ne1 00 00 0a\n01 30 de e4\n05 54 a0 e1\n06 64 83 e1\nb0 c0 d1 e1\na5 35 a0 e1\n9c 03 04 e0\n04 00 56 e1\n08 00 00 2a\n0a 22 81 e0\n02 3b 6c e2\nc3 32 8c e0\n04 50 82 e2\n04 00 a0 e1\n03 a0 a0 e3\n00 80 a0 e3\nb0 30 c1 e1\n1f 00 00 ea\n05 20 64 e0\nac 32 4c e0\n07 00 52 e1\n06 60 64 e0\nb0 30 c1 e1\n04 00 00 8a\n09 00 5e e1\nc8 00 00 0a\n01 30 de e4\n02 24 a0 e1\n06 64 83 e1\nb2 c0 d1 e1\na2 35 a0 e1\n9c 03 04 e0\n04 00 56 e1\n08 00 00 2a\n0a 22 81 e0\n02 3b 6c e2\nc3 32 8c e0\n41 5f 82 e2\n04 00 a0 e1\n03 a0 a0 e3\n08 80 a0 e3\nb2 30 c1 e1\n06 00 00 ea\nac 32 4c e0\nb2 30 c1 e1\n06 60 64 e0\n02 00 64 e0\n81 5f 81 e2\n08 a0 a0 e3\n10 80 a0 e3\n0a 70 a0 e1\n01 10 a0 e3\n01 30 81 e2\n01 04 50 e3\n81 40 a0 e1\n03 10 81 e0\n04 00 00 2a\n09 00 5e e1\n00 04 a0 e1\na6 00 00 0a\n01 30 de e4\n06 64 83 e1\nb4 30 95 e1\na0 25 a0 e1\n93 02 0c e0\n02 2b 63 e2\n0c 00 56 e1\nc2 22 83 e0\na3 32 43 e0\n00 00 6c e0\n04 10 a0 31\n0c 00 a0 31\nb4 20 85 31\n06 60 6c 20\nb4 30 85 21\n01 70 57 e2\ne6 ff ff 1a\n01 20 a0 e3\n12 3a 41 e0\n18 50 9d e5\n08 30 83 e0\n03 00 55 e3\n28 30 8d e5\n69 00 00 ca\n08 c0 9d e5\n03 00 53 e3\n03 30 a0 a3\n83 33 8c e0\n36 5e 83 e2\n02 70 a0 e1\n06 80 a0 e3\n01 30 87 e2\n01 04 50 e3\n87 40 a0 e1\n03 70 87 e0\n04 00 00 2a\n09 00 5e e1\n00 04 a0 e1\n7f 00 00 0a\n01 30 de e4\n06 64 83 e1\nb4 30 95 e1\na0 25 a0 e1\n93 02 0c e0\n02 2b 63 e2\n0c 00 56 e1\nc2 22 83 e0\na3 32 43 e0\n00 00 6c e0\n04 70 a0 31\n0c 00 a0 31\nb4 20 85 31\n06 60 6c 20\nb4 30 85 21\n01 80 58 e2\ne6 ff ff 1a\n40 20 47 e2\n03 00 52 e3\n02 50 a0 d1\n3f 00 00 da\nc2 40 a0 e1\n0d 00 52 e3\n01 30 02 e2\n01 70 44 e2\n02 c0 83 e3\n05 40 44 c2\n08 20 a0 c1\n06 00 00 ca\n1c 57 a0 e1\n08 10 9d e5\n85 30 81 e0\n82 30 43 e0\n55 4e 83 e2\n0e 40 84 e2\n13 00 00 ea\n01 04 50 e3\n01 20 82 e2\n04 00 00 2a\n09 00 5e e1\n00 04 a0 e1\n55 00 00 0a\n01 30 de e4\n06 64 83 e1\na0 00 a0 e1\n00 00 56 e1\n8c c0 a0 e1\n06 60 60 20\n01 c0 8c 23\n04 00 52 e1\nf0 ff ff 1a\n08 20 9d e5\n19 4d 82 e2\n04 40 84 e2\n0c 52 a0 e1\n04 70 a0 e3\n01 a0 a0 e3\n0a 80 a0 e1\n01 04 50 e3\n88 10 a0 e1\n01 c0 88 e2\n04 00 00 2a\n09 00 5e e1\n00 04 a0 e1\n3e 00 00 0a\n01 30 de e4\n06 64 83 e1\nb1 30 94 e1\na0 25 a0 e1\n0c 80 88 e0\n93 02 0c e0\n02 2b 63 e2\n0c 00 56 e1\nc2 22 83 e0\na3 32 43 e0\n0a 50 85 21\n01 80 a0 31\n0c 00 a0 31\nb1 20 84 31\nb1 30 84 21\n06 60 6c 20\n00 00 6c 20\n01 70 57 e2\n8a a0 a0 e1\ne4 ff ff 1a\n01 50 95 e2\n2c 50 8d e5\n1a 00 00 0a\n18 30 9d e5\n07 30 83 e2\n18 30 8d e5\n2c 50 9d e5\n0b 00 55 e1\n21 00 00 8a\n28 c0 9d e5\n54 10 9d e5\n0b 30 65 e0\n02 20 8c e2\n03 40 81 e0\n0b c0 81 e0\n01 20 52 e2\n58 50 9d e5\n00 30 a0 03\n01 30 a0 13\n01 b0 8b e2\n05 00 5b e1\n00 30 a0 23\n01 30 03 32\n01 70 d4 e4\n00 00 53 e3\n01 70 cc e4\nf3 ff ff 1a\n58 c0 9d e5\n0c 00 5b e1\nff fd ff 3a\n01 04 50 e3\n02 00 00 2a\n09 00 5e e1\n08 00 00 0a\n01 e0 8e e2\n04 00 9d e5\n00 10 9d e5\n5c 20 9d e5\n0e 30 60 e0\n00 00 a0 e3\n00 30 81 e5\n00 b0 82 e5\n00 00 00 ea\n01 00 a0 e3\n30 d0 8d e2\nf0 8f bd e8\n'
p5
S'segment_0:00015880\nsegment_0:00015884\nsegment_0:00015888\nsegment_0:0001588c\nsegment_0:00015890\nsegment_0:00015894\nsegment_0:00015898\nsegment_0:0001589c\nsegment_0:000158a0\nsegment_0:000158a4\nsegment_0:000158a8\nsegment_0:000158ac\nsegment_0:000158b0\nsegment_0:000158b4\nsegment_0:000158b8\nsegment_0:000158bc\nsegment_0:000158c0\nsegment_0:000158c4\nsegment_0:000158c8\nsegment_0:000158cc\nsegment_0:000158d0\nsegment_0:000158d4\nsegment_0:000158d8\nsegment_0:000158dc\nsegment_0:000158e0\nsegment_0:000158e4\nsegment_0:000158e8\nsegment_0:000158ec\nsegment_0:000158f0\nsegment_0:000158f4\nsegment_0:000158f8\nsegment_0:000158fc\nsegment_0:00015900\nsegment_0:00015904\nsegment_0:00015908\nsegment_0:0001590c\nsegment_0:00015910\nsegment_0:00015914\nsegment_0:00015918\nsegment_0:0001591c\nsegment_0:00015920\nsegment_0:00015924\nsegment_0:00015928\nsegment_0:0001592c\nsegment_0:00015930\nsegment_0:00015934\nsegment_0:00015938\nsegment_0:0001593c\nsegment_0:00015940\nsegment_0:00015944\nsegment_0:00015948\nsegment_0:0001594c\nsegment_0:00015950\nsegment_0:00015954\nsegment_0:00015958\nsegment_0:0001595c\nsegment_0:00015960\nsegment_0:00015964\nsegment_0:00015968\nsegment_0:0001596c\nsegment_0:00015970\nsegment_0:00015974\nsegment_0:00015978\nsegment_0:0001597c\nsegment_0:00015980\nsegment_0:00015984\nsegment_0:00015988\nsegment_0:0001598c\nsegment_0:00015990\nsegment_0:00015994\nsegment_0:00015998\nsegment_0:0001599c\nsegment_0:000159a0\nsegment_0:000159a4\nsegment_0:000159a8\nsegment_0:000159ac\nsegment_0:000159b0\nsegment_0:000159b4\nsegment_0:000159b8\nsegment_0:000159bc\nsegment_0:000159c0\nsegment_0:000159c4\nsegment_0:000159c8\nsegment_0:000159cc\nsegment_0:000159d0\nsegment_0:000159d4\nsegment_0:000159d8\nsegment_0:000159dc\nsegment_0:000159e0\nsegment_0:000159e4\nsegment_0:000159e8\nsegment_0:000159ec\nsegment_0:000159f0\nsegment_0:000159f4\nsegment_0:000159f8\nsegment_0:000159fc\nsegment_0:00015a00\nsegment_0:00015a04\nsegment_0:00015a08\nsegment_0:00015a0c\nsegment_0:00015a10\nsegment_0:00015a14\nsegment_0:00015a18\nsegment_0:00015a1c\nsegment_0:00015a20\nsegment_0:00015a24\nsegment_0:00015a28\nsegment_0:00015a2c\nsegment_0:00015a30\nsegment_0:00015a34\nsegment_0:00015a38\nsegment_0:00015a3c\nsegment_0:00015a40\nsegment_0:00015a44\nsegment_0:00015a48\nsegment_0:00015a4c\nsegment_0:00015a50\nsegment_0:00015a54\nsegment_0:00015a58\nsegment_0:00015a5c\nsegment_0:00015a60\nsegment_0:00015a64\nsegment_0:00015a68\nsegment_0:00015a6c\nsegment_0:00015a70\nsegment_0:00015a74\nsegment_0:00015a78\nsegment_0:00015a7c\nsegment_0:00015a80\nsegment_0:00015a84\nsegment_0:00015a88\nsegment_0:00015a8c\nsegment_0:00015a90\nsegment_0:00015a94\nsegment_0:00015a98\nsegment_0:00015a9c\nsegment_0:00015aa0\nsegment_0:00015aa4\nsegment_0:00015aa8\nsegment_0:00015aac\nsegment_0:00015ab0\nsegment_0:00015ab4\nsegment_0:00015ab8\nsegment_0:00015abc\nsegment_0:00015ac0\nsegment_0:00015ac4\nsegment_0:00015ac8\nsegment_0:00015acc\nsegment_0:00015ad0\nsegment_0:00015ad4\nsegment_0:00015ad8\nsegment_0:00015adc\nsegment_0:00015ae0\nsegment_0:00015ae4\nsegment_0:00015ae8\nsegment_0:00015aec\nsegment_0:00015af0\nsegment_0:00015af4\nsegment_0:00015af8\nsegment_0:00015afc\nsegment_0:00015b00\nsegment_0:00015b04\nsegment_0:00015b08\nsegment_0:00015b0c\nsegment_0:00015b10\nsegment_0:00015b14\nsegment_0:00015b18\nsegment_0:00015b1c\nsegment_0:00015b20\nsegment_0:00015b24\nsegment_0:00015b28\nsegment_0:00015b2c\nsegment_0:00015b30\nsegment_0:00015b34\nsegment_0:00015b38\nsegment_0:00015b3c\nsegment_0:00015b40\nsegment_0:00015b44\nsegment_0:00015b48\nsegment_0:00015b4c\nsegment_0:00015b50\nsegment_0:00015b54\nsegment_0:00015b58\nsegment_0:00015b5c\nsegment_0:00015b60\nsegment_0:00015b64\nsegment_0:00015b68\nsegment_0:00015b6c\nsegment_0:00015b70\nsegment_0:00015b74\nsegment_0:00015b78\nsegment_0:00015b7c\nsegment_0:00015b80\nsegment_0:00015b84\nsegment_0:00015b88\nsegment_0:00015b8c\nsegment_0:00015b90\nsegment_0:00015b94\nsegment_0:00015b98\nsegment_0:00015b9c\nsegment_0:00015ba0\nsegment_0:00015ba4\nsegment_0:00015ba8\nsegment_0:00015bac\nsegment_0:00015bb0\nsegment_0:00015bb4\nsegment_0:00015bb8\nsegment_0:00015bbc\nsegment_0:00015bc0\nsegment_0:00015bc4\nsegment_0:00015bc8\nsegment_0:00015bcc\nsegment_0:00015bd0\nsegment_0:00015bd4\nsegment_0:00015bd8\nsegment_0:00015bdc\nsegment_0:00015be0\nsegment_0:00015be4\nsegment_0:00015be8\nsegment_0:00015bec\nsegment_0:00015bf0\nsegment_0:00015bf4\nsegment_0:00015bf8\nsegment_0:00015bfc\nsegment_0:00015c00\nsegment_0:00015c04\nsegment_0:00015c08\nsegment_0:00015c0c\nsegment_0:00015c10\nsegment_0:00015c14\nsegment_0:00015c18\nsegment_0:00015c1c\nsegment_0:00015c20\nsegment_0:00015c24\nsegment_0:00015c28\nsegment_0:00015c2c\nsegment_0:00015c30\nsegment_0:00015c34\nsegment_0:00015c38\nsegment_0:00015c3c\nsegment_0:00015c40\nsegment_0:00015c44\nsegment_0:00015c48\nsegment_0:00015c4c\nsegment_0:00015c50\nsegment_0:00015c54\nsegment_0:00015c58\nsegment_0:00015c5c\nsegment_0:00015c60\nsegment_0:00015c64\nsegment_0:00015c68\nsegment_0:00015c6c\nsegment_0:00015c70\nsegment_0:00015c74\nsegment_0:00015c78\nsegment_0:00015c7c\nsegment_0:00015c80\nsegment_0:00015c84\nsegment_0:00015c88\nsegment_0:00015c8c\nsegment_0:00015c90\nsegment_0:00015c94\nsegment_0:00015c98\nsegment_0:00015c9c\nsegment_0:00015ca0\nsegment_0:00015ca4\nsegment_0:00015ca8\nsegment_0:00015cac\nsegment_0:00015cb0\nsegment_0:00015cb4\nsegment_0:00015cb8\nsegment_0:00015cbc\nsegment_0:00015cc0\nsegment_0:00015cc4\nsegment_0:00015cc8\nsegment_0:00015ccc\nsegment_0:00015cd0\nsegment_0:00015cd4\nsegment_0:00015cd8\nsegment_0:00015cdc\nsegment_0:00015ce0\nsegment_0:00015ce4\nsegment_0:00015ce8\nsegment_0:00015cec\nsegment_0:00015cf0\nsegment_0:00015cf4\nsegment_0:00015cf8\nsegment_0:00015cfc\nsegment_0:00015d00\nsegment_0:00015d04\nsegment_0:00015d08\nsegment_0:00015d0c\nsegment_0:00015d10\nsegment_0:00015d14\nsegment_0:00015d18\nsegment_0:00015d1c\nsegment_0:00015d20\nsegment_0:00015d24\nsegment_0:00015d28\nsegment_0:00015d2c\nsegment_0:00015d30\nsegment_0:00015d34\nsegment_0:00015d38\nsegment_0:00015d3c\nsegment_0:00015d40\nsegment_0:00015d44\nsegment_0:00015d48\nsegment_0:00015d4c\nsegment_0:00015d50\nsegment_0:00015d54\nsegment_0:00015d58\nsegment_0:00015d5c\nsegment_0:00015d60\nsegment_0:00015d64\nsegment_0:00015d68\nsegment_0:00015d6c\nsegment_0:00015d70\nsegment_0:00015d74\nsegment_0:00015d78\nsegment_0:00015d7c\nsegment_0:00015d80\nsegment_0:00015d84\nsegment_0:00015d88\nsegment_0:00015d8c\nsegment_0:00015d90\nsegment_0:00015d94\nsegment_0:00015d98\nsegment_0:00015d9c\nsegment_0:00015da0\nsegment_0:00015da4\nsegment_0:00015da8\nsegment_0:00015dac\nsegment_0:00015db0\nsegment_0:00015db4\nsegment_0:00015db8\nsegment_0:00015dbc\nsegment_0:00015dc0\nsegment_0:00015dc4\nsegment_0:00015dc8\nsegment_0:00015dcc\nsegment_0:00015dd0\nsegment_0:00015dd4\nsegment_0:00015dd8\nsegment_0:00015ddc\nsegment_0:00015de0\nsegment_0:00015de4\nsegment_0:00015de8\nsegment_0:00015dec\nsegment_0:00015df0\nsegment_0:00015df4\nsegment_0:00015df8\nsegment_0:00015dfc\nsegment_0:00015e00\nsegment_0:00015e04\nsegment_0:00015e08\nsegment_0:00015e0c\nsegment_0:00015e10\nsegment_0:00015e14\nsegment_0:00015e18\nsegment_0:00015e1c\nsegment_0:00015e20\nsegment_0:00015e24\nsegment_0:00015e28\nsegment_0:00015e2c\nsegment_0:00015e30\nsegment_0:00015e34\nsegment_0:00015e38\nsegment_0:00015e3c\nsegment_0:00015e40\nsegment_0:00015e44\nsegment_0:00015e48\nsegment_0:00015e4c\nsegment_0:00015e50\nsegment_0:00015e54\nsegment_0:00015e58\nsegment_0:00015e5c\nsegment_0:00015e60\nsegment_0:00015e64\nsegment_0:00015e68\nsegment_0:00015e6c\nsegment_0:00015e70\nsegment_0:00015e74\nsegment_0:00015e78\nsegment_0:00015e7c\nsegment_0:00015e80\nsegment_0:00015e84\nsegment_0:00015e88\nsegment_0:00015e8c\nsegment_0:00015e90\nsegment_0:00015e94\nsegment_0:00015e98\nsegment_0:00015e9c\nsegment_0:00015ea0\nsegment_0:00015ea4\nsegment_0:00015ea8\nsegment_0:00015eac\nsegment_0:00015eb0\nsegment_0:00015eb4\nsegment_0:00015eb8\nsegment_0:00015ebc\nsegment_0:00015ec0\nsegment_0:00015ec4\nsegment_0:00015ec8\nsegment_0:00015ecc\nsegment_0:00015ed0\nsegment_0:00015ed4\nsegment_0:00015ed8\nsegment_0:00015edc\nsegment_0:00015ee0\nsegment_0:00015ee4\nsegment_0:00015ee8\nsegment_0:00015eec\nsegment_0:00015ef0\nsegment_0:00015ef4\nsegment_0:00015ef8\nsegment_0:00015efc\nsegment_0:00015f00\nsegment_0:00015f04\nsegment_0:00015f08\nsegment_0:00015f0c\nsegment_0:00015f10\nsegment_0:00015f14\nsegment_0:00015f18\nsegment_0:00015f1c\nsegment_0:00015f20\nsegment_0:00015f24\nsegment_0:00015f28\nsegment_0:00015f2c\nsegment_0:00015f30\nsegment_0:00015f34\nsegment_0:00015f38\nsegment_0:00015f3c\nsegment_0:00015f40\nsegment_0:00015f44\nsegment_0:00015f48\nsegment_0:00015f4c\nsegment_0:00015f50\nsegment_0:00015f54\nsegment_0:00015f58\nsegment_0:00015f5c\nsegment_0:00015f60\nsegment_0:00015f64\nsegment_0:00015f68\nsegment_0:00015f6c\nsegment_0:00015f70\nsegment_0:00015f74\nsegment_0:00015f78\nsegment_0:00015f7c\nsegment_0:00015f80\nsegment_0:00015f84\nsegment_0:00015f88\nsegment_0:00015f8c\nsegment_0:00015f90\nsegment_0:00015f94\nsegment_0:00015f98\nsegment_0:00015f9c\nsegment_0:00015fa0\nsegment_0:00015fa4\nsegment_0:00015fa8\nsegment_0:00015fac\nsegment_0:00015fb0\nsegment_0:00015fb4\nsegment_0:00015fb8\nsegment_0:00015fbc\nsegment_0:00015fc0\nsegment_0:00015fc4\nsegment_0:00015fc8\nsegment_0:00015fcc\nsegment_0:00015fd0\nsegment_0:00015fd4\nsegment_0:00015fd8\nsegment_0:00015fdc\nsegment_0:00015fe0\nsegment_0:00015fe4\nsegment_0:00015fe8\nsegment_0:00015fec\nsegment_0:00015ff0\nsegment_0:00015ff4\nsegment_0:00015ff8\nsegment_0:00015ffc\nsegment_0:00016000\nsegment_0:00016004\nsegment_0:00016008\nsegment_0:0001600c\nsegment_0:00016010\nsegment_0:00016014\nsegment_0:00016018\nsegment_0:0001601c\nsegment_0:00016020\nsegment_0:00016024\nsegment_0:00016028\nsegment_0:0001602c\nsegment_0:00016030\nsegment_0:00016034\nsegment_0:00016038\nsegment_0:0001603c\nsegment_0:00016040\nsegment_0:00016044\nsegment_0:00016048\nsegment_0:0001604c\nsegment_0:00016050\nsegment_0:00016054\nsegment_0:00016058\nsegment_0:0001605c\nsegment_0:00016060\nsegment_0:00016064\nsegment_0:00016068\nsegment_0:0001606c\nsegment_0:00016070\nsegment_0:00016074\nsegment_0:00016078\nsegment_0:0001607c\nsegment_0:00016080\nsegment_0:00016084\nsegment_0:00016088\nsegment_0:0001608c\nsegment_0:00016090\nsegment_0:00016094\nsegment_0:00016098\nsegment_0:0001609c\nsegment_0:000160a0\nsegment_0:000160a4\nsegment_0:000160a8\nsegment_0:000160ac\nsegment_0:000160b0\nsegment_0:000160b4\nsegment_0:000160b8\nsegment_0:000160bc\nsegment_0:000160c0\nsegment_0:000160c4\nsegment_0:000160c8\nsegment_0:000160cc\nsegment_0:000160d0\nsegment_0:000160d4\nsegment_0:000160d8\nsegment_0:000160dc\nsegment_0:000160e0\nsegment_0:000160e4\nsegment_0:000160e8\nsegment_0:000160ec\nsegment_0:000160f0\nsegment_0:000160f4\nsegment_0:000160f8\nsegment_0:000160fc\nsegment_0:00016100\nsegment_0:00016104\nsegment_0:00016108\nsegment_0:0001610c\nsegment_0:00016110\nsegment_0:00016114\nsegment_0:00016118\nsegment_0:0001611c\nsegment_0:00016120\nsegment_0:00016124\nsegment_0:00016128\nsegment_0:0001612c\nsegment_0:00016130\nsegment_0:00016134\nsegment_0:00016138\nsegment_0:0001613c\nsegment_0:00016140\nsegment_0:00016144\nsegment_0:00016148\nsegment_0:0001614c\nsegment_0:00016150\nsegment_0:00016154\nsegment_0:00016158\nsegment_0:0001615c\nsegment_0:00016160\nsegment_0:00016164\nsegment_0:00016168\nsegment_0:0001616c\nsegment_0:00016170\nsegment_0:00016174\nsegment_0:00016178\nsegment_0:0001617c\nsegment_0:00016180\nsegment_0:00016184\nsegment_0:00016188\nsegment_0:0001618c\nsegment_0:00016190\nsegment_0:00016194\nsegment_0:00016198\nsegment_0:0001619c\nsegment_0:000161a0\nsegment_0:000161a4\nsegment_0:000161a8\nsegment_0:000161ac\nsegment_0:000161b0\nsegment_0:000161b4\n'
p6
tp7
sS'entry'
p8
(S'\n__stdcall entry()\n'
p9
V\u000a/* WARNING: Control flow encountered bad instruction data */\u000a/* WARNING: Removing unreachable block (ram,0x000161dc) */\u000a\u000avoid entry(void)\u000a\u000a{\u000a  undefined4 *puVar1;\u000a  int iVar2;\u000a  undefined4 uVar3;\u000a  undefined4 *puVar4;\u000a  undefined *puVar5;\u000a  undefined *puVar6;\u000a  undefined *puVar7;\u000a  undefined *puVar8;\u000a  undefined *puVar9;\u000a  undefined *puVar10;\u000a  undefined *puVar11;\u000a  undefined *puVar12;\u000a  undefined *puVar13;\u000a  undefined **ppuVar14;\u000a  undefined **ppuVar15;\u000a  int *piVar16;\u000a  undefined4 *puVar17;\u000a  int local_c;\u000a  undefined4 uStack8;\u000a  undefined4 local_4;\u000a  \u000a  uVar3 = DAT_000156fc;\u000a  iVar2 = DAT_000156f8;\u000a  puVar1 = DAT_000156f0;\u000a  piVar16 = (int *)((int)&PTR_DAT_000156ec + DAT_000156f8);\u000a  ppuVar15 = (undefined **)((int)&PTR_DAT_000156ec + DAT_000156f4);\u000a  ppuVar14 = (undefined **)((int)&PTR_DAT_000156ec - (int)PTR_DAT_000156ec);\u000a  puVar5 = PTR_DAT_000156ec + *piVar16 + 0x1000;\u000a  local_4 = DAT_000156fc;\u000a  uStack8 = 0;\u000a  software_interrupt(0x9000c0);\u000a  puVar17 = DAT_000156f0;\u000a  if (DAT_000156f0 < (undefined4 *)0xfffff000) {\u000a    do {\u000a      puVar4 = puVar17;\u000a      puVar6 = *ppuVar14;\u000a      puVar7 = ppuVar14[1];\u000a      puVar8 = ppuVar14[2];\u000a      puVar9 = ppuVar14[3];\u000a      puVar10 = ppuVar14[4];\u000a      puVar11 = ppuVar14[5];\u000a      puVar12 = ppuVar14[6];\u000a      puVar13 = ppuVar14[7];\u000a      ppuVar14 = ppuVar14 + 8;\u000a      *(undefined **)puVar4 = puVar6;\u000a      *(undefined **)(puVar4 + 1) = puVar7;\u000a      *(undefined **)(puVar4 + 2) = puVar8;\u000a      *(undefined **)(puVar4 + 3) = puVar9;\u000a      *(undefined **)(puVar4 + 4) = puVar10;\u000a      *(undefined **)(puVar4 + 5) = puVar11;\u000a      *(undefined **)(puVar4 + 6) = puVar12;\u000a      *(undefined **)(puVar4 + 7) = puVar13;\u000a      puVar17 = puVar4 + 8;\u000a    } while (ppuVar14 < ppuVar15);\u000a    *puVar17 = uVar3;\u000a    software_interrupt(0x9f0002);\u000a    local_c = *piVar16;\u000a    (*(code *)((int)puVar17 + (0x157d8 - (int)ppuVar14)))\u000a              ((int)&DAT_000156f8 + iVar2,*(undefined4 *)((int)&DAT_000156f0 + iVar2),puVar4 + 9,\u000a               &local_c,*(undefined4 *)((int)&DAT_000156f4 + iVar2),puVar4 + 9,puVar1,puVar5);\u000a    return;\u000a  }\u000a  software_interrupt(0x900004);\u000a  software_interrupt(0x900001);\u000a  if (-1 < (int)(DAT_000156f0 + 0x400)) {\u000a    uRam000161d8 = 0;\u000a  }\u000a                    /* WARNING: Bad instruction - Truncating control flow here */\u000a  halt_baddata();\u000a}\u000a\u000a
p10
S'adr r12,0x156ec\nldmia r12,{ r1 r2 r10 r11 lr }\ncpy r0,r2\nadd r11,r11,r12\nadd r10,r10,r12\nldr r3,[r11,#0x0]\nsub r9,r12,r1\ncpy r2,r1\nadd r1,r1,r3\nadd r1,r1,#0x1000\nmov r3,#0x0\nstmdb sp!,{ r0 r1 r2 r3 lr }\nmov r2,#0x7\nldr r3,[r12,#0x10]\ncpy r12,r9\nmov r5,#0x0\nmvn r4,#0x0\norr r3,r3,#0x10\nswi 0x9000c0\ncmn r0,#0x1000\nbcs 0x000161b8\nldmia r9!,{ r1 r2 r3 r4 r5 r6 r7 r8 }\ncmp r9,r10\nstmia r0!,{ r1 r2 r3 r4 r5 r6 r7 r8 }\nbcc 0x00015754\nsub r4,r0,r9\nldr r1,[sp,#0x10]\nadr r5,0x157d8\nstr r1,[r0],#0x4\ncpy lr,r0\nadd r5,r5,r4\ncpy r0,r5\nadd r1,r9,r4\nmov r2,#0x0\nswi 0x9f0002\nldrh r10,[r12,#0x2c]\nmov r0,#0x20\nldr r9,[sp,#0x8]\nmul r10,r0,r10\nadd r10,r10,#0x4c\nsub r9,r9,r10\nadd r10,r10,r12\nadd r10,r10,r4\nldr r0,[r11,#0x8]\nstmdb sp!,{ r0 lr }\nldr r3,[r11,#0x0]\nadd r0,r11,#0xc\nldr r1,[r11,#0x4]\ncpy r2,lr\nstr r3,[sp,#0x10]\nadd r3,sp,#0x10\nmov lr,pc\ncpy pc,r5\nldmia sp!,{ r1 pc }\n'
p11
S'1c c0 4f e2\n06 4c 9c e8\n02 00 a0 e1\n0c b0 8b e0\n0c a0 8a e0\n00 30 9b e5\n01 90 4c e0\n01 20 a0 e1\n03 10 81 e0\n01 1a 81 e2\n00 30 a0 e3\n0f 40 2d e9\n07 20 a0 e3\n10 30 9c e5\n09 c0 a0 e1\n00 50 a0 e3\n00 40 e0 e3\n10 30 83 e3\nc0 00 90 ef\n01 0a 70 e3\n98 02 00 2a\nfe 01 b9 e8\n0a 00 59 e1\nfe 01 a0 e8\nfb ff ff 3a\n09 40 40 e0\n10 10 9d e5\n64 50 8f e2\n04 10 80 e4\n00 e0 a0 e1\n04 50 85 e0\n05 00 a0 e1\n04 10 89 e0\n00 20 a0 e3\n02 00 9f ef\nbc a2 dc e1\n20 00 a0 e3\n08 90 9d e5\n90 0a 0a e0\n4c a0 8a e2\n0a 90 49 e0\n0c a0 8a e0\n04 a0 8a e0\n08 00 9b e5\n01 40 2d e9\n00 30 9b e5\n0c 00 8b e2\n04 10 9b e5\n0e 20 a0 e1\n10 30 8d e5\n10 30 8d e2\n0f e0 a0 e1\n05 f0 a0 e1\n02 80 bd e8\n'
p12
S'segment_0:00015700\nsegment_0:00015704\nsegment_0:00015708\nsegment_0:0001570c\nsegment_0:00015710\nsegment_0:00015714\nsegment_0:00015718\nsegment_0:0001571c\nsegment_0:00015720\nsegment_0:00015724\nsegment_0:00015728\nsegment_0:0001572c\nsegment_0:00015730\nsegment_0:00015734\nsegment_0:00015738\nsegment_0:0001573c\nsegment_0:00015740\nsegment_0:00015744\nsegment_0:00015748\nsegment_0:0001574c\nsegment_0:00015750\nsegment_0:00015754\nsegment_0:00015758\nsegment_0:0001575c\nsegment_0:00015760\nsegment_0:00015764\nsegment_0:00015768\nsegment_0:0001576c\nsegment_0:00015770\nsegment_0:00015774\nsegment_0:00015778\nsegment_0:0001577c\nsegment_0:00015780\nsegment_0:00015784\nsegment_0:00015788\nsegment_0:0001578c\nsegment_0:00015790\nsegment_0:00015794\nsegment_0:00015798\nsegment_0:0001579c\nsegment_0:000157a0\nsegment_0:000157a4\nsegment_0:000157a8\nsegment_0:000157ac\nsegment_0:000157b0\nsegment_0:000157b4\nsegment_0:000157b8\nsegment_0:000157bc\nsegment_0:000157c0\nsegment_0:000157c4\nsegment_0:000157c8\nsegment_0:000157cc\nsegment_0:000157d0\nsegment_0:000157d4\n'
p13
tp14
s.