(dp0
S'entry'
p1
(S'\n__stdcall entry()\n'
p2
V\u000a/* WARNING: Control flow encountered bad instruction data */\u000a/* WARNING: Removing unreachable block (ram,0x0001019c) */\u000a\u000avoid entry(void)\u000a\u000a{\u000a  undefined4 *puVar1;\u000a  int iVar2;\u000a  undefined4 uVar3;\u000a  undefined4 *puVar4;\u000a  int iVar5;\u000a  undefined4 uVar6;\u000a  undefined4 uVar7;\u000a  undefined4 uVar8;\u000a  undefined4 uVar9;\u000a  undefined4 uVar10;\u000a  undefined4 uVar11;\u000a  undefined4 uVar12;\u000a  undefined4 uVar13;\u000a  undefined4 *puVar14;\u000a  undefined4 *puVar15;\u000a  undefined4 *puVar16;\u000a  undefined4 *puVar17;\u000a  undefined4 local_c;\u000a  undefined4 uStack8;\u000a  undefined4 local_4;\u000a  \u000a  uVar3 = DAT_0000f6b4;\u000a  iVar2 = DAT_0000f6b0;\u000a  puVar1 = DAT_0000f6a8;\u000a  puVar15 = (undefined4 *)((int)&DAT_0000f6a4 + DAT_0000f6ac);\u000a  puVar16 = (undefined4 *)((int)&DAT_0000f6a4 + DAT_0000f6b0);\u000a  puVar14 = (undefined4 *)((int)&DAT_0000f6a4 - DAT_0000f6a4);\u000a  iVar5 = DAT_0000f6a4 + 0x1000;\u000a  local_4 = DAT_0000f6b4;\u000a  uStack8 = 0;\u000a  software_interrupt(0);\u000a  puVar17 = DAT_0000f6a8;\u000a  if (DAT_0000f6a8 < (undefined4 *)0xfffff000) {\u000a    do {\u000a      puVar4 = puVar17;\u000a      uVar6 = *puVar14;\u000a      uVar7 = puVar14[1];\u000a      uVar8 = puVar14[2];\u000a      uVar9 = puVar14[3];\u000a      uVar10 = puVar14[4];\u000a      uVar11 = puVar14[5];\u000a      uVar12 = puVar14[6];\u000a      uVar13 = puVar14[7];\u000a      puVar14 = puVar14 + 8;\u000a      *puVar4 = uVar6;\u000a      puVar4[1] = uVar7;\u000a      puVar4[2] = uVar8;\u000a      puVar4[3] = uVar9;\u000a      puVar4[4] = uVar10;\u000a      puVar4[5] = uVar11;\u000a      puVar4[6] = uVar12;\u000a      puVar4[7] = uVar13;\u000a      puVar17 = puVar4 + 8;\u000a    } while (puVar14 < puVar15);\u000a    *puVar17 = uVar3;\u000a    software_interrupt(0);\u000a    local_c = *puVar16;\u000a    (*(code *)((int)puVar17 + (0xf77c - (int)puVar14)))\u000a              ((int)&DAT_0000f6b0 + iVar2,*(undefined4 *)((int)&DAT_0000f6a8 + iVar2),puVar4 + 9,\u000a               &local_c,*(undefined4 *)((int)&DAT_0000f6ac + iVar2),puVar4 + 9,puVar1,iVar5);\u000a    return;\u000a  }\u000a  software_interrupt(0);\u000a  software_interrupt(0);\u000a  if (-1 < (int)(DAT_0000f6a8 + 0x400)) {\u000a    uRam00010198 = 0;\u000a  }\u000a                    /* WARNING: Bad instruction - Truncating control flow here */\u000a  halt_baddata();\u000a}\u000a\u000a
p3
S'adr r12,0xf6a4\nldmia r12,{ r1 r2 r10 r11 lr }\nadd r10,r10,r12\nadd r11,r11,r12\ncpy r0,r2\nsub r9,r12,r1\nadd r1,r1,#0x1000\nmov r3,#0x0\nstmdb sp!,{ r0 r1 r2 r3 lr }\nmov r2,#0x7\nldr r3,[r12,#0x10]\nmov r5,#0x0\nmvn r4,#0x0\norr r3,r3,#0x10\nmov r7,#0xc0\nswi 0x0\ncmn r0,#0x1000\nbcs 0x00010170\nldmia r9!,{ r1 r2 r3 r4 r5 r6 r7 r8 }\ncmp r9,r10\nstmia r0!,{ r1 r2 r3 r4 r5 r6 r7 r8 }\nbcc 0x0000f700\nsub r4,r0,r9\nldr r1,[sp,#0x10]\nadr r5,0xf77c\nstr r1,[r0],#0x4\ncpy lr,r0\nadd r5,r5,r4\ncpy r0,r5\nadd r1,r9,r4\nmov r2,#0x0\nmov r7,#0x2\norr r7,r7,#0xf0000\nswi 0x0\nldr r9,[r12,#0x0]\nsub r9,r9,#0x8c\nsub r10,r12,r9\nadd r10,r10,r4\nldr r0,[r11,#0x8]\nstmdb sp!,{ r0 lr }\nldr r3,[r11,#0x0]\nadd r0,r11,#0xc\nldr r1,[r11,#0x4]\ncpy r2,lr\nstr r3,[sp,#0x10]\nadd r3,sp,#0x10\nmov lr,pc\ncpy pc,r5\nldmia sp!,{ r1 pc }\n'
p4
S'1c c0 4f e2\n06 4c 9c e8\n0c a0 8a e0\n0c b0 8b e0\n02 00 a0 e1\n01 90 4c e0\n01 1a 81 e2\n00 30 a0 e3\n0f 40 2d e9\n07 20 a0 e3\n10 30 9c e5\n00 50 a0 e3\n00 40 e0 e3\n10 30 83 e3\nc0 70 a0 e3\n00 00 00 ef\n01 0a 70 e3\n9b 02 00 2a\nfe 01 b9 e8\n0a 00 59 e1\nfe 01 a0 e8\nfb ff ff 3a\n09 40 40 e0\n10 10 9d e5\n5c 50 8f e2\n04 10 80 e4\n00 e0 a0 e1\n04 50 85 e0\n05 00 a0 e1\n04 10 89 e0\n00 20 a0 e3\n02 70 a0 e3\n0f 78 87 e3\n00 00 00 ef\n00 90 9c e5\n8c 90 49 e2\n09 a0 4c e0\n04 a0 8a e0\n08 00 9b e5\n01 40 2d e9\n00 30 9b e5\n0c 00 8b e2\n04 10 9b e5\n0e 20 a0 e1\n10 30 8d e5\n10 30 8d e2\n0f e0 a0 e1\n05 f0 a0 e1\n02 80 bd e8\n'
p5
S'segment_0:0000f6b8\nsegment_0:0000f6bc\nsegment_0:0000f6c0\nsegment_0:0000f6c4\nsegment_0:0000f6c8\nsegment_0:0000f6cc\nsegment_0:0000f6d0\nsegment_0:0000f6d4\nsegment_0:0000f6d8\nsegment_0:0000f6dc\nsegment_0:0000f6e0\nsegment_0:0000f6e4\nsegment_0:0000f6e8\nsegment_0:0000f6ec\nsegment_0:0000f6f0\nsegment_0:0000f6f4\nsegment_0:0000f6f8\nsegment_0:0000f6fc\nsegment_0:0000f700\nsegment_0:0000f704\nsegment_0:0000f708\nsegment_0:0000f70c\nsegment_0:0000f710\nsegment_0:0000f714\nsegment_0:0000f718\nsegment_0:0000f71c\nsegment_0:0000f720\nsegment_0:0000f724\nsegment_0:0000f728\nsegment_0:0000f72c\nsegment_0:0000f730\nsegment_0:0000f734\nsegment_0:0000f738\nsegment_0:0000f73c\nsegment_0:0000f740\nsegment_0:0000f744\nsegment_0:0000f748\nsegment_0:0000f74c\nsegment_0:0000f750\nsegment_0:0000f754\nsegment_0:0000f758\nsegment_0:0000f75c\nsegment_0:0000f760\nsegment_0:0000f764\nsegment_0:0000f768\nsegment_0:0000f76c\nsegment_0:0000f770\nsegment_0:0000f774\nsegment_0:0000f778\n'
p6
tp7
s.