(dp0
S'FUN_00059c9e'
p1
(S'\n__stdcall FUN_00059c9e(undefined param_1, undefined param_2, undefined param_3, undefined param_4, undefined param_5, undefined param_6, undefined param_7, undefined param_8, undefined param_9, undefined param_10, undefined4 param_11)\n'
p2
V\u000a/* WARNING: Control flow encountered bad instruction data */\u000a\u000avoid FUN_00059c9e(undefined4 param_1,int *param_2,undefined4 param_3,int param_4)\u000a\u000a{\u000a  uint uVar1;\u000a  uint *puVar2;\u000a  undefined4 *puVar3;\u000a  uint unaff_r4;\u000a  int unaff_r5;\u000a  int unaff_r6;\u000a  uint unaff_r7;\u000a  int in_r12;\u000a  \u000a  *(undefined *)(unaff_r7 + 4) = (char)unaff_r5;\u000a  puVar3 = (undefined4 *)(unaff_r6 + unaff_r7);\u000a  *puVar3 = param_1;\u000a  *(int **)(puVar3 + 1) = param_2;\u000a  puVar3[2] = param_4 << 8;\u000a  puVar3[3] = unaff_r4;\u000a  puVar3[4] = unaff_r5;\u000a  puVar3[5] = unaff_r6;\u000a  *(char *)((int)puVar3 + 0x21) = (char)param_2;\u000a  *param_2 = param_4 << 8;\u000a  *(undefined4 **)(param_2 + 1) = puVar3 + 6;\u000a  param_2[2] = unaff_r5;\u000a  param_2[3] = unaff_r5 >> 2;\u000a  param_2[4] = unaff_r7;\u000a  if (puVar3 + 6 == (undefined4 *)0x0) {\u000a                    /* WARNING: Bad instruction - Truncating control flow here */\u000a    halt_baddata();\u000a  }\u000a  *(undefined *)(unaff_r5 + 8) = (char)(unaff_r5 >> 2);\u000a  uVar1 = uRam0005952c;\u000a  ExclusiveAccess((uint **)(in_r12 + 0x3b8));\u000a  puVar2 = *(uint **)(in_r12 + 0x3b8);\u000a  *(char *)(unaff_r4 + 0x13) = (char)param_2 + 0x14;\u000a  if (unaff_r4 >> 0xd == 0) {\u000a    if (-1 < (int)(*puVar2 - 0x70)) {\u000a                    /* WARNING: Bad instruction - Truncating control flow here */\u000a      halt_baddata();\u000a    }\u000a    *(uint *)((uint)*(ushort *)(unaff_r5 + 0x44) + 0x44) = (uint)*(ushort *)(unaff_r5 + 0x44);\u000a                    /* WARNING: Bad instruction - Truncating control flow here */\u000a    halt_baddata();\u000a  }\u000a  *puVar2 = unaff_r4 >> 0xd;\u000a  *(uint **)(puVar2 + 1) = puVar2;\u000a  puVar2[2] = uVar1;\u000a  *(undefined **)(puVar2 + 3) = &stack0x0000003c;\u000a  puVar2[4] = unaff_r7;\u000a                    /* WARNING: Bad instruction - Truncating control flow here */\u000a  halt_baddata();\u000a}\u000a\u000a
p3
S'push { r2, lr }\nstrb r5,[r7,#0x4]\nlsl r2,r3,#0x8\ncmp r5,#0x1a\nadd r3,r6,r7\nstmia r3!,{ r0, r1, r2, r4, r5, r6 }\nasr r6,r5,#0x2\nstrb r1,[r3,#0x9]\nstmia r1!,{  r2, r3, r5, r6, r7 }\nsub r2,#0xc6\ncbnz r3,0x00059cf2\nsub r2,#0x83\nstrb r6,[r5,#0x8]\nb 0x00059506\n'
p4
S'04 b5\n3d 71\n1a 02\n1a 2d\nf3 19\n77 c3\nae 10\n59 72\nec c1\nc6 3a\nf3 b9\n83 3a\n2e 72\n06 e4\n'
p5
S'segment_1.15:00059c9e\nsegment_1.15:00059ca0\nsegment_1.15:00059ca2\nsegment_1.15:00059ca4\nsegment_1.15:00059ca6\nsegment_1.15:00059ca8\nsegment_1.15:00059caa\nsegment_1.15:00059cac\nsegment_1.15:00059cae\nsegment_1.15:00059cb0\nsegment_1.15:00059cb2\nsegment_1.15:00059cf2\nsegment_1.15:00059cf4\nsegment_1.15:00059cf6\n'
p6
tp7
sS'FUN_000b6348'
p8
(S'\n__stdcall FUN_000b6348()\n'
p9
V\u000avoid FUN_000b6348(undefined4 uParm1,uint uParm2,undefined4 uParm3)\u000a\u000a{\u000a  undefined4 *puVar1;\u000a  undefined4 *puVar2;\u000a  undefined4 uVar3;\u000a  undefined4 uVar4;\u000a  undefined4 uVar5;\u000a  uint unaff_r5;\u000a  uint uVar6;\u000a  undefined4 uVar7;\u000a  undefined4 uVar8;\u000a  undefined4 uVar9;\u000a  undefined4 uVar10;\u000a  undefined4 uVar11;\u000a  undefined8 unaff_d14;\u000a  undefined8 in_d31;\u000a  undefined8 uVar12;\u000a  \u000a  uVar12 = FUN_000b641c(uParm1,uParm2 & 0xfffffffc,uParm3,uParm2 & 0xfffffffc);\u000a  do {\u000a    puVar1 = (undefined4 *)((ulonglong)uVar12 >> 0x20);\u000a    puVar2 = (undefined4 *)uVar12 + 1;\u000a    *puVar1 = *(undefined4 *)uVar12;\u000a    puVar1 = puVar1 + 1;\u000a    uVar12 = CONCAT44(puVar1,puVar2);\u000a    unaff_r5 = unaff_r5 - 1;\u000a  } while ((unaff_r5 & 7) != 0);\u000a  uVar6 = unaff_r5 >> 3;\u000a  while (uVar6 != 0) {\u000a    uVar3 = *puVar2;\u000a    uVar4 = puVar2[1];\u000a    uVar5 = puVar2[2];\u000a    uVar7 = puVar2[3];\u000a    uVar8 = puVar2[4];\u000a    uVar9 = puVar2[5];\u000a    uVar10 = puVar2[6];\u000a    uVar11 = puVar2[7];\u000a    puVar2 = puVar2 + 8;\u000a    uVar6 = uVar6 - 1;\u000a    *puVar1 = uVar3;\u000a    puVar1[1] = uVar4;\u000a    puVar1[2] = uVar5;\u000a    puVar1[3] = uVar7;\u000a    puVar1[4] = uVar8;\u000a    puVar1[5] = uVar9;\u000a    puVar1[6] = uVar10;\u000a    puVar1[7] = uVar11;\u000a    puVar1 = puVar1 + 8;\u000a  }\u000a  VectorRoundHalvingAdd(unaff_d14,in_d31,2,1);\u000a  software_interrupt(0);\u000a  return;\u000a}\u000a\u000a
p10
S'lsr r1,r1,#0x2\nlsl r1,r1,#0x2\npush { lr }\nmov r3,r1\nbl 0x000b641c\npop { r3 }\nmov lr,r3\n'
p11
S'89 08\n89 00\n00 b5\n0b 1c\n00 f0 64 f8\n08 bc\n9e 46\n'
p12
S'segment_1.15:000b6348\nsegment_1.15:000b634a\nsegment_1.15:000b634c\nsegment_1.15:000b634e\nsegment_1.15:000b6350\nsegment_1.15:000b6354\nsegment_1.15:000b6356\n'
p13
tp14
sS'FUN_000b6404'
p15
(S'\n__stdcall FUN_000b6404()\n'
p16
V\u000avoid FUN_000b6404(void)\u000a\u000a{\u000a  return;\u000a}\u000a\u000a
p17
S'ldrb r4,[r1,#0x3]\nldrb r3,[r1,#0x2]\nlsl r4,r4,#0x8\norr r4,r3\nldrb r3,[r1,#0x1]\nlsl r4,r4,#0x8\norr r4,r3\nldrb r3,[r1,#0x0]\nlsl r4,r4,#0x8\norr r4,r3\nadd r1,#0x4\nbx lr\n'
p18
S'cc 78\n8b 78\n24 02\n1c 43\n4b 78\n24 02\n1c 43\n0b 78\n24 02\n1c 43\n04 31\n70 47\n'
p19
S'segment_1.15:000b6404\nsegment_1.15:000b6406\nsegment_1.15:000b6408\nsegment_1.15:000b640a\nsegment_1.15:000b640c\nsegment_1.15:000b640e\nsegment_1.15:000b6410\nsegment_1.15:000b6412\nsegment_1.15:000b6414\nsegment_1.15:000b6416\nsegment_1.15:000b6418\nsegment_1.15:000b641a\n'
p20
tp21
sS'FUN_000b638c'
p22
(S'\n__stdcall FUN_000b638c()\n'
p23
V\u000avoid FUN_000b638c(void)\u000a\u000a{\u000a  software_interrupt(0);\u000a  return;\u000a}\u000a\u000a
p24
S'mov r2,#0x0\nmov r7,#0xf\nlsl r7,r7,#0x10\nadd r7,#0x2\nsvc 0x0\nbx lr\n'
p25
S'00 22\n0f 27\n3f 04\n02 37\n00 df\n70 47\n'
p26
S'segment_1.15:000b638c\nsegment_1.15:000b638e\nsegment_1.15:000b6390\nsegment_1.15:000b6392\nsegment_1.15:000b6394\nsegment_1.15:000b6396\n'
p27
tp28
sS'FUN_000b57d2'
p29
(S'\n__stdcall FUN_000b57d2()\n'
p30
V\u000a/* WARNING: Control flow encountered bad instruction data */\u000a\u000avoid FUN_000b57d2(void)\u000a\u000a{\u000a  FUN_000b6404();\u000a  FUN_000b6404();\u000a  FUN_000b62bc();\u000a                    /* WARNING: Bad instruction - Truncating control flow here */\u000a  halt_baddata();\u000a}\u000a\u000a
p31
S'push { lr }\nldrb r3,[r1,#0x5]\npush { r3 }\nldrb r3,[r1,#0x6]\npush { r3 }\npush { r4 }\npush { r0 }\nbl 0x000b6404\nmov r5,r4\nbl 0x000b6404\npush { r4 }\nbl 0x000b62bc\nstmia r0!,{  }\nb 0x000b53b0\n'
p32
S'00 b5\n4b 79\n08 b4\n8b 79\n08 b4\n10 b4\n01 b4\n00 f0 10 fe\n25 1c\n00 f0 0d fe\n10 b4\n00 f0 66 fd\n00 c0\ndd e5\n'
p33
S'segment_1.15:000b57d2\nsegment_1.15:000b57d4\nsegment_1.15:000b57d6\nsegment_1.15:000b57d8\nsegment_1.15:000b57da\nsegment_1.15:000b57dc\nsegment_1.15:000b57de\nsegment_1.15:000b57e0\nsegment_1.15:000b57e4\nsegment_1.15:000b57e6\nsegment_1.15:000b57ea\nsegment_1.15:000b57ec\nsegment_1.15:000b57f0\nsegment_1.15:000b57f2\n'
p34
tp35
sS'FUN_000b641c'
p36
(S'\n__stdcall FUN_000b641c()\n'
p37
V\u000avoid FUN_000b641c(void)\u000a\u000a{\u000a  return;\u000a}\u000a\u000a
p38
S'lsr r3,r3,#0x2\nlsl r3,r3,#0x2\nsub r3,#0x4\nldrh r5,[r3,#0x0]\nlsl r5,r5,#0x15\nlsr r5,r5,#0xa\nldrh r3,[r3,#0x2]\nlsl r3,r3,#0x15\nlsr r3,r3,#0x15\nadd r5,r5,r3\nadd r5,#0x2\nlsr r5,r5,#0x1\nbx lr\n'
p39
S'9b 08\n9b 00\n04 3b\n1d 88\n6d 05\nad 0a\n5b 88\n5b 05\n5b 0d\ned 18\n02 35\n6d 08\n70 47\n'
p40
S'segment_1.15:000b641c\nsegment_1.15:000b641e\nsegment_1.15:000b6420\nsegment_1.15:000b6422\nsegment_1.15:000b6424\nsegment_1.15:000b6426\nsegment_1.15:000b6428\nsegment_1.15:000b642a\nsegment_1.15:000b642c\nsegment_1.15:000b642e\nsegment_1.15:000b6430\nsegment_1.15:000b6432\nsegment_1.15:000b6434\n'
p41
tp42
sS'FUN_000b6362'
p43
(S'\n__stdcall FUN_000b6362()\n'
p44
V\u000avoid FUN_000b6362(undefined4 *puParm1,undefined4 *puParm2)\u000a\u000a{\u000a  undefined4 uVar1;\u000a  undefined4 uVar2;\u000a  undefined4 uVar3;\u000a  uint unaff_r5;\u000a  uint uVar4;\u000a  undefined4 uVar5;\u000a  undefined4 uVar6;\u000a  undefined4 uVar7;\u000a  undefined4 uVar8;\u000a  undefined4 uVar9;\u000a  undefined8 unaff_d14;\u000a  undefined8 in_d31;\u000a  \u000a  while ((unaff_r5 & 7) != 0) {\u000a    uVar1 = *puParm2;\u000a    puParm2 = puParm2 + 1;\u000a    *puParm1 = uVar1;\u000a    puParm1 = puParm1 + 1;\u000a    unaff_r5 = unaff_r5 - 1;\u000a  }\u000a  uVar4 = unaff_r5 >> 3;\u000a  while (uVar4 != 0) {\u000a    uVar1 = *puParm2;\u000a    uVar2 = puParm2[1];\u000a    uVar3 = puParm2[2];\u000a    uVar5 = puParm2[3];\u000a    uVar6 = puParm2[4];\u000a    uVar7 = puParm2[5];\u000a    uVar8 = puParm2[6];\u000a    uVar9 = puParm2[7];\u000a    puParm2 = puParm2 + 8;\u000a    uVar4 = uVar4 - 1;\u000a    *puParm1 = uVar1;\u000a    puParm1[1] = uVar2;\u000a    puParm1[2] = uVar3;\u000a    puParm1[3] = uVar5;\u000a    puParm1[4] = uVar6;\u000a    puParm1[5] = uVar7;\u000a    puParm1[6] = uVar8;\u000a    puParm1[7] = uVar9;\u000a    puParm1 = puParm1 + 8;\u000a  }\u000a  VectorRoundHalvingAdd(unaff_d14,in_d31,2,1);\u000a  software_interrupt(0);\u000a  return;\u000a}\u000a\u000a
p45
S'mov r3,#0x7\ntst r5,r3\nbne 0x000b6358\nlsr r5,r5,#0x3\nbeq 0x000b6388\nbx pc\nstmdb sp!,{ r2 r4 r6 r7 r8 r9 }\nldmia r1!,{ r2 r3 r4 r6 r7 r8 r9 r12 }\nsubs r5,r5,#0x1\nstmia r0!,{ r2 r3 r4 r6 r7 r8 r9 r12 }\nbne 0x000b6374\nldmia sp!,{ r2 r4 r6 r7 r8 r9 }\nvrhadd.u16 d14,d14,d31\n'
p46
S'07 23\n1d 42\nf7 d1\ned 08\n0d d0\n78 47\nd4 03 2d e9\ndc 13 b1 e8\n01 50 55 e2\ndc 13 a0 e8\nfb ff ff 1a\nd4 03 bd e8\n1e ff 2f e1\n'
p47
S'segment_1.15:000b6362\nsegment_1.15:000b6364\nsegment_1.15:000b6366\nsegment_1.15:000b6368\nsegment_1.15:000b636a\nsegment_1.15:000b636c\nsegment_1.15:000b6370\nsegment_1.15:000b6374\nsegment_1.15:000b6378\nsegment_1.15:000b637c\nsegment_1.15:000b6380\nsegment_1.15:000b6384\nsegment_1.15:000b6388\n'
p48
tp49
sS'FUN_00083eca'
p50
(S'\n__stdcall FUN_00083eca(undefined param_1, undefined param_2, undefined param_3, undefined param_4, undefined param_5, undefined param_6, undefined param_7, undefined param_8, undefined param_9, undefined param_10, undefined4 param_11, undefined4 param_12, undefined4 param_13, undefined4 param_14)\n'
p51
V\u000a/* WARNING: Control flow encountered bad instruction data */\u000a/* WARNING: Removing unreachable block (ram,0x00083e24) */\u000a/* WARNING: Removing unreachable block (ram,0x00083e28) */\u000a/* WARNING: Removing unreachable block (ram,0x00083e2c) */\u000a/* WARNING: Removing unreachable block (ram,0xfffe5abc) */\u000a\u000avoid FUN_00083eca(undefined4 param_1,undefined4 param_2,undefined4 *param_3,int param_4)\u000a\u000a{\u000a  short sVar1;\u000a  undefined4 uVar2;\u000a  undefined2 unaff_r5;\u000a  int unaff_r6;\u000a  undefined4 uVar3;\u000a  int unaff_r7;\u000a  undefined4 *puVar4;\u000a  undefined4 in_cr15;\u000a  undefined8 in_d18;\u000a  int param_14;\u000a  \u000a  *(undefined2 *)(param_4 + 0x2c) = unaff_r5;\u000a  sVar1 = *(short *)(unaff_r6 * 2);\u000a  puVar4 = (undefined4 *)(unaff_r7 + 0xf2);\u000a  uVar2 = param_3[1];\u000a  uVar3 = param_3[2];\u000a  if (puVar4 != (undefined4 *)0x0) {\u000a    *puVar4 = *param_3;\u000a    *(undefined4 **)(unaff_r7 + 0xf6) = param_3 + 3;\u000a    *(undefined4 *)(unaff_r7 + 0xfa) = uVar2;\u000a    *(undefined4 *)(unaff_r7 + 0xfe) = uVar3;\u000a    *(undefined4 **)(unaff_r7 + 0x102) = puVar4;\u000a    coprocessor_storelong(8,in_cr15,(int)sVar1);\u000a    VectorShiftRight(in_d18,0x14);\u000a    *(undefined *)(param_14 + 0x1a) = (char)(param_3 + 3);\u000a    WaitForInterrupt();\u000a                    /* WARNING: Bad instruction - Truncating control flow here */\u000a    halt_baddata();\u000a  }\u000a  *(undefined4 *)((int)sVar1 + 0x68) = 0;\u000a                    /* WARNING: Bad instruction - Truncating control flow here */\u000a  halt_baddata();\u000a}\u000a\u000a
p52
S'push { r3, r5, r6, r7, lr }\nstrh r5,[r3,#0x2c]\nlsr r1,r6,#0x14\nstr r5,[sp,#0x1f4]\nldrsh r0,[r6,r6]\nadd r7,#0xf2\nldr r5,[0x000841d0]\nldmia r2!,{ r1, r3, r6 }\nadd r4,sp,#0x3bc\nbeq 0x00083e8c\nstmia r7,{  r1, r2, r3, r6, r7 }\nadd r5,sp,#0x350\nadd r7,#0x73\nadd r5,sp,#0x128\nstcl p8,cr15,[r0],{0x22}\ncmp r4,#0x5c\nldr r5,[sp,#0x254]\nsbc r1,r7\ncmp r2,r8\nlsl r1,r1,#0xe\ncmp r2,#0x6a\nmov r7,#0x1b\nldr r7,[sp,#0x2a8]\nbmi 0x00083e24\nvshr.u64 d23,d18,#0x14\nldr r1,[0x000840cc]\nldmia r6!,{ r0, r1, r5 }\nstrb r2,[r7,#0x1a]\nldr r0,[r0,#0x4]\npush { r0, r4, r5 }\nadd r3,sp,#0x234\nlsl r2,r4,#0x8\nwfi\nstr r0,[r3,#0x34]\nadr r2,[0x841e8]\npop { r2, r3, r4, r5, r6 }\nldr r6,[r1,#0x60]\n'
p53
S'e8 b5\n9d 85\n31 0d\n7d 95\nb0 5f\nf2 37\nbe 4d\n4a ca\nef ac\nd6 d0\nce c7\nd4 ad\n73 37\n4a ad\nc0 ec 22 f8\n5c 2c\n95 9d\nb9 41\n42 45\n89 03\n6a 2a\n1b 27\naa 9f\n93 d4\nd4 ff b2 70\n72 49\n23 ce\nba 76\n40 68\n31 b4\n8d ab\n22 02\n30 bf\n58 63\nb5 a2\n7c bc\n0e 6e\n'
p54
S'segment_1.15:00083eca\nsegment_1.15:00083ecc\nsegment_1.15:00083ece\nsegment_1.15:00083ed0\nsegment_1.15:00083ed2\nsegment_1.15:00083ed4\nsegment_1.15:00083ed6\nsegment_1.15:00083ed8\nsegment_1.15:00083eda\nsegment_1.15:00083edc\nsegment_1.15:00083ede\nsegment_1.15:00083ee0\nsegment_1.15:00083ee2\nsegment_1.15:00083ee4\nsegment_1.15:00083ee6\nsegment_1.15:00083eea\nsegment_1.15:00083eec\nsegment_1.15:00083eee\nsegment_1.15:00083ef0\nsegment_1.15:00083ef2\nsegment_1.15:00083ef4\nsegment_1.15:00083ef6\nsegment_1.15:00083ef8\nsegment_1.15:00083efa\nsegment_1.15:00083efc\nsegment_1.15:00083f00\nsegment_1.15:00083f02\nsegment_1.15:00083f04\nsegment_1.15:00083f06\nsegment_1.15:00083f08\nsegment_1.15:00083f0a\nsegment_1.15:00083f0c\nsegment_1.15:00083f0e\nsegment_1.15:00083f10\nsegment_1.15:00083f12\nsegment_1.15:00083f14\nsegment_1.15:00083f16\n'
p55
tp56
sS'FUN_000b6398'
p57
(S'\n__stdcall FUN_000b6398(undefined param_1, undefined param_2, undefined param_3, undefined param_4, undefined4 param_5, undefined4 param_6, undefined param_7, undefined param_8, undefined4 param_9, undefined param_10, undefined4 param_11, undefined4 param_12, undefined4 param_13, undefined4 param_14, undefined4 param_15)\n'
p58
V\u000a/* WARNING: Removing unreachable block (ram,0x000b63bc) */\u000a\u000avoid FUN_000b6398(void)\u000a\u000a{\u000a  undefined4 uVar1;\u000a  undefined4 uVar2;\u000a  int in_lr;\u000a  uint param_5;\u000a  undefined4 param_9;\u000a  undefined4 param_11;\u000a  undefined4 param_13;\u000a  \u000a  FUN_000b641c();\u000a  software_interrupt(0);\u000a  uVar1 = FUN_000b6362(0,param_13,7);\u000a  uVar1 = FUN_000b6362(uVar1,param_5 - (param_5 & 3));\u000a  uVar2 = FUN_000b6348(uVar1,param_9,uVar1);\u000a  uVar2 = FUN_000b6348(uVar2,param_11);\u000a  uVar2 = FUN_000b6348(uVar2,in_lr + -1);\u000a  FUN_000b638c(uVar1,uVar2);\u000a  return;\u000a}\u000a\u000a
p59
S'mov r3,lr\nsub r3,#0x1\npush { r3 }\nbl 0x000b641c\nadd r2,r2,r5\nlsl r1,r2,#0x2\nmov r4,#0x0\nmvn r4,r4\nmov r3,#0x22\nmov r2,#0x7\nstr r1,[sp,#0x44]\nmov r0,#0x0\nmov r7,#0xc0\nsvc 0x0\nasr r3,r0,#0xc\nadd r3,#0x1\nbne 0x000b63be\nudf #0x1\nstr r0,[sp,#0x40]\nldr r1,[sp,#0x34]\nldr r5,[sp,#0x30]\nbl 0x000b6362\nldr r1,[sp,#0x4]\nldr r5,[sp,#0x8]\nmov r3,#0x3\nand r3,r1\nsub r1,r1,r3\nadd r5,r5,r3\nadd r3,r3,r0\nstr r3,[sp,#0x4]\nadd r5,#0x3\nlsr r5,r5,#0x2\nbl 0x000b6362\nmov r2,r0\nldr r1,[sp,#0x14]\nstr r0,[sp,#0x14]\nbl 0x000b6348\nadd r3,r0,#0x1\nldr r1,[sp,#0x2c]\nstr r3,[sp,#0x2c]\nbl 0x000b6348\npop { r1 }\nadd r7,r0,#0x1\nbl 0x000b6348\nmov r1,r0\nmov r0,r2\nmov lr,r7\nb 0x000b638c\n'
p60
S'73 46\n01 3b\n08 b4\n00 f0 3d f8\n52 19\n91 00\n00 24\ne4 43\n22 23\n07 22\n11 91\n00 20\nc0 27\n00 df\n03 13\n01 33\n00 d1\n01 de\n10 90\n0d 99\n0c 9d\nff f7 cd ff\n01 99\n02 9d\n03 23\n0b 40\nc9 1a\ned 18\n1b 18\n01 93\n03 35\nad 08\nff f7 c1 ff\n02 1c\n05 99\n05 90\nff f7 af ff\n43 1c\n0b 99\n0b 93\nff f7 aa ff\n02 bc\n47 1c\nff f7 a6 ff\n01 1c\n10 1c\nbe 46\nc3 e7\n'
p61
S'segment_1.15:000b6398\nsegment_1.15:000b639a\nsegment_1.15:000b639c\nsegment_1.15:000b639e\nsegment_1.15:000b63a2\nsegment_1.15:000b63a4\nsegment_1.15:000b63a6\nsegment_1.15:000b63a8\nsegment_1.15:000b63aa\nsegment_1.15:000b63ac\nsegment_1.15:000b63ae\nsegment_1.15:000b63b0\nsegment_1.15:000b63b2\nsegment_1.15:000b63b4\nsegment_1.15:000b63b6\nsegment_1.15:000b63b8\nsegment_1.15:000b63ba\nsegment_1.15:000b63bc\nsegment_1.15:000b63be\nsegment_1.15:000b63c0\nsegment_1.15:000b63c2\nsegment_1.15:000b63c4\nsegment_1.15:000b63c8\nsegment_1.15:000b63ca\nsegment_1.15:000b63cc\nsegment_1.15:000b63ce\nsegment_1.15:000b63d0\nsegment_1.15:000b63d2\nsegment_1.15:000b63d4\nsegment_1.15:000b63d6\nsegment_1.15:000b63d8\nsegment_1.15:000b63da\nsegment_1.15:000b63dc\nsegment_1.15:000b63e0\nsegment_1.15:000b63e2\nsegment_1.15:000b63e4\nsegment_1.15:000b63e6\nsegment_1.15:000b63ea\nsegment_1.15:000b63ec\nsegment_1.15:000b63ee\nsegment_1.15:000b63f0\nsegment_1.15:000b63f4\nsegment_1.15:000b63f6\nsegment_1.15:000b63f8\nsegment_1.15:000b63fc\nsegment_1.15:000b63fe\nsegment_1.15:000b6400\nsegment_1.15:000b6402\n'
p62
tp63
sS'FUN_000b62bc'
p64
(S'\n__stdcall FUN_000b62bc(undefined param_1, undefined param_2, undefined param_3, undefined param_4, undefined param_5, undefined param_6, undefined param_7, undefined param_8, undefined param_9, undefined4 param_10, undefined4 param_11, undefined4 param_12, undefined4 param_13, undefined4 param_14, undefined4 param_15)\n'
p65
V\u000a/* WARNING: Removing unreachable block (ram,0x000b6306) */\u000a\u000aundefined8 FUN_000b62bc(undefined4 param_1,uint param_2)\u000a\u000a{\u000a  int iVar1;\u000a  int unaff_r5;\u000a  uint uVar2;\u000a  int in_lr;\u000a  undefined8 uVar3;\u000a  int param_6;\u000a  int param_7;\u000a  undefined4 param_8;\u000a  int param_9;\u000a  code *param_10;\u000a  int param_11;\u000a  int param_12;\u000a  int param_13;\u000a  undefined4 param_14;\u000a  undefined4 in_stack_0000002c;\u000a  int param_15;\u000a  \u000a  uVar2 = unaff_r5 + 3 + (param_2 & 3) >> 2;\u000a  iVar1 = param_11 + uVar2;\u000a  uVar3 = FUN_000b641c(param_1,param_2,iVar1,(code *)(in_lr + -1));\u000a  iVar1 = iVar1 + uVar2;\u000a  uVar3 = FUN_000b641c((int)((ulonglong)uVar3 >> 0x20),(int)uVar3,iVar1,param_10);\u000a  FUN_000b6398((int)((ulonglong)uVar3 >> 0x20),(int)uVar3,iVar1 + uVar2);\u000a  software_interrupt(0);\u000a  FUN_000b6362(param_12,param_14,3,0x32);\u000a  (*(code *)(in_lr + -1))(param_2,unaff_r5,param_1,&stack0x00000008);\u000a  *(undefined4 *)(param_6 + param_7) = DAT_000b6344;\u000a  param_15 = (int)(undefined4 *)(param_6 + param_7) + 1;\u000a  if (param_9 != 0) {\u000a    (*param_10)(param_6,param_7,param_8);\u000a  }\u000a  FUN_000b638c(param_12,param_13 + param_12);\u000a  software_interrupt(0);\u000a  return CONCAT44(param_14,in_stack_0000002c);\u000a}\u000a\u000a
p66
S'mov r3,lr\nsub r3,#0x1\npush { r3 }\nadd r3,sp,#0xc\npush { r3 }\npush { r0 }\npush { r5 }\npush { r1 }\nmov r3,#0x3\nand r3,r1\nadd r5,#0x3\nadd r5,r5,r3\nlsr r5,r5,#0x2\nldr r3,[sp,#0x2c]\nadd r2,r3,r5\nldr r3,[sp,#0x10]\nbl 0x000b641c\nadd r2,r2,r5\nldr r3,[sp,#0x28]\nbl 0x000b641c\nadd r2,r2,r5\nlsl r0,r0,#0x0\nbl 0x000b6398\nmov r4,#0x0\nmvn r4,r4\nmov r3,#0x32\nmov r2,#0x3\nldr r1,[sp,#0x34]\nldr r0,[sp,#0x30]\nmov r6,r0\nmov r7,#0xc0\nsvc 0x0\ncmp r0,r6\nbeq 0x000b6308\nudf #0x1\nldr r5,[sp,#0x2c]\nldr r1,[sp,#0x3c]\nbl 0x000b6362\npop { r0, r1, r2, r3, r4 }\nblx r4\npop { r3 }\npop { r0, r1 }\npush { r0, r1 }\nadd r0,r0,r1\nldr r3,[0x000b6344]\nstr r3,[r0,#0x0]\nadd r0,#0x1\nstr r0,[sp,#0x2c]\npop { r0, r1, r2, r3, r4, r5 }\ntst r3,r3\nbeq 0x000b632c\nblx r4\nldr r0,[sp,#0x0]\nldr r1,[sp,#0x4]\nadd r1,r1,r0\nbl 0x000b638c\npop { r0, r1, r3 }\nmov lr,r3\nmov r2,#0x5\nmov r7,#0x7d\nsvc 0x0\nmov r7,#0x5b\npop { r0, r1, pc }\n'
p67
S'73 46\n01 3b\n08 b4\n03 ab\n08 b4\n01 b4\n20 b4\n02 b4\n03 23\n0b 40\n03 35\ned 18\nad 08\n0b 9b\n5a 19\n04 9b\n00 f0 9e f8\n52 19\n0a 9b\n00 f0 9a f8\n52 19\n00 00\n00 f0 54 f8\n00 24\ne4 43\n32 23\n03 22\n0d 99\n0c 98\n06 1c\nc0 27\n00 df\nb0 42\n00 d0\n01 de\n0b 9d\n0f 99\n00 f0 29 f8\n1f bc\na0 47\n08 bc\n03 bc\n03 b4\n40 18\n09 4b\n03 60\n01 30\n0b 90\n3f bc\n1b 42\n00 d0\na0 47\n00 98\n01 99\n09 18\n00 f0 2b f8\n0b bc\n9e 46\n05 22\n7d 27\n00 df\n5b 27\n03 bd\n'
p68
S'segment_1.15:000b62bc\nsegment_1.15:000b62be\nsegment_1.15:000b62c0\nsegment_1.15:000b62c2\nsegment_1.15:000b62c4\nsegment_1.15:000b62c6\nsegment_1.15:000b62c8\nsegment_1.15:000b62ca\nsegment_1.15:000b62cc\nsegment_1.15:000b62ce\nsegment_1.15:000b62d0\nsegment_1.15:000b62d2\nsegment_1.15:000b62d4\nsegment_1.15:000b62d6\nsegment_1.15:000b62d8\nsegment_1.15:000b62da\nsegment_1.15:000b62dc\nsegment_1.15:000b62e0\nsegment_1.15:000b62e2\nsegment_1.15:000b62e4\nsegment_1.15:000b62e8\nsegment_1.15:000b62ea\nsegment_1.15:000b62ec\nsegment_1.15:000b62f0\nsegment_1.15:000b62f2\nsegment_1.15:000b62f4\nsegment_1.15:000b62f6\nsegment_1.15:000b62f8\nsegment_1.15:000b62fa\nsegment_1.15:000b62fc\nsegment_1.15:000b62fe\nsegment_1.15:000b6300\nsegment_1.15:000b6302\nsegment_1.15:000b6304\nsegment_1.15:000b6306\nsegment_1.15:000b6308\nsegment_1.15:000b630a\nsegment_1.15:000b630c\nsegment_1.15:000b6310\nsegment_1.15:000b6312\nsegment_1.15:000b6314\nsegment_1.15:000b6316\nsegment_1.15:000b6318\nsegment_1.15:000b631a\nsegment_1.15:000b631c\nsegment_1.15:000b631e\nsegment_1.15:000b6320\nsegment_1.15:000b6322\nsegment_1.15:000b6324\nsegment_1.15:000b6326\nsegment_1.15:000b6328\nsegment_1.15:000b632a\nsegment_1.15:000b632c\nsegment_1.15:000b632e\nsegment_1.15:000b6330\nsegment_1.15:000b6332\nsegment_1.15:000b6336\nsegment_1.15:000b6338\nsegment_1.15:000b633a\nsegment_1.15:000b633c\nsegment_1.15:000b633e\nsegment_1.15:000b6340\nsegment_1.15:000b6342\n'
p69
tp70
sS'FUN_000b58a8'
p71
(S'\n__stdcall FUN_000b58a8(undefined param_1, undefined param_2, undefined param_3, undefined param_4, undefined4 param_5, undefined4 param_6, undefined4 param_7)\n'
p72
V\u000aundefined4\u000aFUN_000b58a8(sbyte *param_1,byte *param_2,int param_3,byte **param_4,int param_5,sbyte *param_6,\u000a            sbyte **param_7)\u000a\u000a{\u000a  sbyte sVar1;\u000a  sbyte sVar2;\u000a  sbyte sVar3;\u000a  sbyte sVar4;\u000a  sbyte *psVar5;\u000a  uint uVar6;\u000a  uint uVar7;\u000a  ushort *puVar8;\u000a  ushort *puVar9;\u000a  int iVar10;\u000a  byte *pbVar11;\u000a  sbyte *psVar12;\u000a  sbyte *psVar13;\u000a  ushort uVar14;\u000a  uint uVar15;\u000a  int iVar16;\u000a  sbyte *psVar17;\u000a  uint uVar18;\u000a  uint uVar19;\u000a  uint uVar20;\u000a  uint uVar21;\u000a  int iVar22;\u000a  sbyte *psVar23;\u000a  sbyte *psVar24;\u000a  byte *pbVar25;\u000a  uint uVar26;\u000a  int iVar27;\u000a  sbyte *psVar28;\u000a  byte *pbVar29;\u000a  byte *pbVar30;\u000a  bool bVar31;\u000a  sbyte *local_3c;\u000a  sbyte *local_38;\u000a  sbyte *local_34;\u000a  sbyte *local_30;\u000a  sbyte *local_28;\u000a  \u000a  sVar1 = *param_1;\u000a  sVar2 = param_1[2];\u000a  sVar3 = param_1[1];\u000a  iVar16 = 0;\u000a  *param_4 = (byte *)0x0;\u000a  *param_7 = (sbyte *)0x0;\u000a  sVar4 = param_1[1];\u000a  psVar5 = param_1 + 4;\u000a  while( true ) {\u000a    bVar31 = iVar16 == (0x300 << (uint)(byte)(sVar1 + sVar4)) + 0x736;\u000a    iVar27 = iVar16 * 2;\u000a    iVar16 = iVar16 + 1;\u000a    if (bVar31) break;\u000a    *(undefined2 *)(psVar5 + iVar27) = 0x400;\u000a  }\u000a  uVar19 = 0;\u000a  pbVar25 = param_2 + param_3;\u000a  pbVar11 = (byte *)0x0;\u000a  pbVar29 = param_2;\u000a  do {\u000a    pbVar29 = pbVar29 + 1;\u000a    if (pbVar11 == pbVar25 + -(int)param_2) {\u000a      return 1;\u000a    }\u000a    pbVar30 = pbVar11 + (int)param_2;\u000a    pbVar11 = pbVar11 + 1;\u000a    uVar19 = (uint)*pbVar30 | uVar19 << 8;\u000a  } while (pbVar11 != (byte *)0x5);\u000a  psVar28 = (sbyte *)0x0;\u000a  uVar20 = 0;\u000a  uVar6 = 0xffffffff;\u000a  local_28 = (sbyte *)0x1;\u000a  local_3c = (sbyte *)0x0;\u000a  local_38 = (sbyte *)0x1;\u000a  local_34 = (sbyte *)0x1;\u000a  local_30 = (sbyte *)0x1;\u000a  psVar12 = local_3c;\u000a  while (local_3c = psVar12, psVar12 = local_30, psVar28 < param_6) {\u000a    uVar21 = uVar6;\u000a    pbVar11 = pbVar29;\u000a    if (uVar6 < 0x1000000) {\u000a      if (pbVar29 == pbVar25) {\u000a        return 1;\u000a      }\u000a      pbVar11 = pbVar29 + 1;\u000a      uVar21 = uVar6 << 8;\u000a      uVar19 = (uint)*pbVar29 | uVar19 << 8;\u000a    }\u000a    uVar26 = (uint)psVar28 & (1 << sVar2) - 1U;\u000a    iVar16 = (uVar26 + (int)local_3c * 0x10) * 2;\u000a    uVar14 = *(ushort *)(psVar5 + iVar16);\u000a    uVar6 = (uint)uVar14 * (uVar21 >> 0xb);\u000a    if (uVar19 < uVar6) {\u000a      psVar12 = psVar5 + (((int)uVar20 >> (uint)(byte)(8 - sVar1)) +\u000a                         (((uint)psVar28 & (1 << sVar3) - 1U) << sVar1)) * 0x600;\u000a      *(ushort *)(psVar5 + iVar16) = uVar14 + (short)((int)(0x800 - (uint)uVar14) >> 5);\u000a      psVar24 = psVar12 + 0xe6c;\u000a      if ((int)local_3c < 7) {\u000a        uVar20 = 1;\u000a        pbVar29 = pbVar11;\u000aLAB_000b5b40:\u000a        while( true ) {\u000a          uVar21 = uVar20 * 2;\u000a          iVar16 = uVar20 * 2;\u000a          if (0xff < (int)uVar20) break;\u000a          uVar26 = uVar6;\u000a          pbVar11 = pbVar29;\u000a          if (uVar6 < 0x1000000) {\u000a            uVar26 = uVar6 << 8;\u000a            if (pbVar29 == pbVar25) {\u000a              return 1;\u000a            }\u000a            pbVar11 = pbVar29 + 1;\u000a            uVar19 = (uint)*pbVar29 | uVar19 << 8;\u000a          }\u000a          uVar14 = *(ushort *)(psVar24 + uVar21);\u000a          uVar6 = (uint)uVar14 * (uVar26 >> 0xb);\u000a          psVar12 = (sbyte *)(0x800 - (uint)uVar14);\u000a          if (uVar19 < uVar6) {\u000a            *(ushort *)(psVar24 + uVar21) = uVar14 + (short)((int)psVar12 >> 5);\u000a          }\u000a          else {\u000a            *(ushort *)(psVar24 + uVar21) = uVar14 - (uVar14 >> 5);\u000a          }\u000a          uVar20 = uVar21;\u000a          pbVar29 = pbVar11;\u000a          if (uVar19 >= uVar6) {\u000a            uVar19 = uVar19 - uVar6;\u000a            uVar6 = uVar26 - uVar6;\u000a            uVar20 = iVar16 + 1;\u000a            pbVar29 = pbVar11;\u000a          }\u000a        }\u000a      }\u000a      else {\u000a        uVar21 = (uint)(byte)psVar28[param_5 - (int)local_28];\u000a        uVar20 = 1;\u000a        do {\u000a          uVar21 = uVar21 << 1;\u000a          uVar18 = uVar21 & 0x100;\u000a          uVar26 = uVar20 * 2;\u000a          puVar8 = (ushort *)(psVar24 + uVar26 + uVar18 * 2 + 0x200);\u000a          uVar20 = uVar20 * 2 + 1;\u000a          uVar7 = uVar6;\u000a          pbVar29 = pbVar11;\u000a          if (uVar6 < 0x1000000) {\u000a            uVar7 = uVar6 << 8;\u000a            if (pbVar11 == pbVar25) {\u000a              return 1;\u000a            }\u000a            pbVar29 = pbVar11 + 1;\u000a            uVar19 = (uint)*pbVar11 | uVar19 << 8;\u000a          }\u000a          uVar14 = *puVar8;\u000a          uVar15 = (uint)uVar14;\u000a          uVar6 = uVar15 * (uVar7 >> 0xb);\u000a          psVar12 = (sbyte *)(uVar15 + ((int)(0x800 - uVar15) >> 5));\u000a          if (uVar19 < uVar6) {\u000a            *puVar8 = (ushort)psVar12;\u000a            uVar20 = uVar26;\u000a            if (uVar18 != 0) goto LAB_000b5b40;\u000a          }\u000a          else {\u000a            *puVar8 = uVar14 - (uVar14 >> 5);\u000a            uVar19 = uVar19 - uVar6;\u000a            uVar6 = uVar7 - uVar6;\u000a            if (uVar18 == 0) goto LAB_000b5b40;\u000a          }\u000a          pbVar11 = pbVar29;\u000a        } while ((int)uVar20 < 0x100);\u000a      }\u000a      uVar20 = uVar20 & 0xff;\u000a      if ((int)local_3c < 4) {\u000a        psVar12 = (sbyte *)0x0;\u000a      }\u000a      psVar28[param_5] = (sbyte)uVar20;\u000a      psVar28 = psVar28 + 1;\u000a      if (3 < (int)local_3c) {\u000a        if ((int)local_3c < 10) {\u000a          psVar12 = local_3c + -3;\u000a        }\u000a        else {\u000a          psVar12 = local_3c + -6;\u000a        }\u000a      }\u000a    }\u000a    else {\u000a      uVar21 = uVar21 - uVar6;\u000a      *(ushort *)(psVar5 + iVar16) = uVar14 - (uVar14 >> 5);\u000a      uVar19 = uVar19 - uVar6;\u000a      pbVar29 = pbVar11;\u000a      if (uVar21 < 0x1000000) {\u000a        if (pbVar11 == pbVar25) {\u000a          return 1;\u000a        }\u000a        pbVar29 = pbVar11 + 1;\u000a        uVar21 = uVar21 * 0x100;\u000a        uVar19 = (uint)*pbVar11 | uVar19 * 0x100;\u000a      }\u000a      psVar24 = psVar5 + (int)local_3c * 2;\u000a      puVar8 = (ushort *)(psVar24 + 0x180);\u000a      uVar14 = *puVar8;\u000a      uVar20 = (uint)uVar14 * (uVar21 >> 0xb);\u000a      if (uVar19 < uVar20) {\u000a        if ((int)local_3c < 7) {\u000a          local_3c = (sbyte *)0x0;\u000a        }\u000a        else {\u000a          local_3c = (sbyte *)0x3;\u000a        }\u000a        local_30 = local_34;\u000a        puVar9 = (ushort *)(param_1 + 0x668);\u000a        local_34 = local_38;\u000a        local_38 = local_28;\u000a        *puVar8 = uVar14 + (short)((int)(0x800 - (uint)uVar14) >> 5);\u000aLAB_000b5e38:\u000a        pbVar11 = pbVar29;\u000a        if (uVar20 < 0x1000000) {\u000a          if (pbVar29 == pbVar25) {\u000a            return 1;\u000a          }\u000a          pbVar11 = pbVar29 + 1;\u000a          uVar20 = uVar20 << 8;\u000a          uVar19 = (uint)*pbVar29 | uVar19 << 8;\u000a        }\u000a        uVar14 = *puVar9;\u000a        uVar6 = (uint)uVar14 * (uVar20 >> 0xb);\u000a        if (uVar19 < uVar6) {\u000a          puVar8 = puVar9 + uVar26 * 8 + 2;\u000a          iVar27 = 3;\u000a          iVar16 = 0;\u000a          *puVar9 = uVar14 + (short)((int)(0x800 - (uint)uVar14) >> 5);\u000a          pbVar30 = pbVar11;\u000a        }\u000a        else {\u000a          uVar20 = uVar20 - uVar6;\u000a          uVar19 = uVar19 - uVar6;\u000a          *puVar9 = uVar14 - (uVar14 >> 5);\u000a          pbVar30 = pbVar11;\u000a          if (uVar20 < 0x1000000) {\u000a            if (pbVar11 == pbVar25) {\u000a              return 1;\u000a            }\u000a            pbVar30 = pbVar11 + 1;\u000a            uVar20 = uVar20 * 0x100;\u000a            uVar19 = (uint)*pbVar11 | uVar19 * 0x100;\u000a          }\u000a          uVar14 = puVar9[1];\u000a          uVar6 = (uint)uVar14 * (uVar20 >> 0xb);\u000a          if (uVar19 < uVar6) {\u000a            puVar8 = puVar9 + uVar26 * 8 + 0x82;\u000a            iVar27 = 3;\u000a            iVar16 = 8;\u000a            puVar9[1] = uVar14 + (short)((int)(0x800 - (uint)uVar14) >> 5);\u000a          }\u000a          else {\u000a            puVar9[1] = uVar14 - (uVar14 >> 5);\u000a            uVar19 = uVar19 - uVar6;\u000a            uVar6 = uVar20 - uVar6;\u000a            puVar8 = puVar9 + 0x102;\u000a            iVar27 = 8;\u000a            iVar16 = 0x10;\u000a          }\u000a        }\u000a        iVar10 = 1;\u000a        iVar22 = iVar27;\u000a        do {\u000a          pbVar29 = pbVar30;\u000a          if (uVar6 < 0x1000000) {\u000a            uVar6 = uVar6 << 8;\u000a            if (pbVar30 == pbVar25) {\u000a              return 1;\u000a            }\u000a            pbVar29 = pbVar30 + 1;\u000a            uVar19 = (uint)*pbVar30 | uVar19 << 8;\u000a          }\u000a          uVar14 = puVar8[iVar10];\u000a          uVar20 = (uint)uVar14 * (uVar6 >> 0xb);\u000a          uVar6 = uVar6 - uVar20;\u000a          if (uVar19 < uVar20) {\u000a            puVar8[iVar10] = uVar14 + (short)((int)(0x800 - (uint)uVar14) >> 5);\u000a            iVar10 = iVar10 * 2;\u000a            uVar6 = uVar20;\u000a          }\u000a          else {\u000a            uVar19 = uVar19 - uVar20;\u000a            puVar8[iVar10] = uVar14 - (uVar14 >> 5);\u000a            iVar10 = iVar10 * 2 + 1;\u000a          }\u000a          iVar22 = iVar22 + -1;\u000a          pbVar30 = pbVar29;\u000a        } while (iVar22 != 0);\u000a        iVar16 = (iVar10 - (1 << iVar27)) + iVar16;\u000a        if (local_3c < (sbyte *)0x4) {\u000a          iVar27 = iVar16;\u000a          if (2 < iVar16) {\u000a            iVar27 = 3;\u000a          }\u000a          local_28 = psVar5 + iVar27 * 0x80 + 0x360;\u000a          iVar27 = 1;\u000a          psVar12 = (sbyte *)0x6;\u000a          pbVar11 = pbVar29;\u000a          do {\u000a            iVar10 = iVar27 * 2;\u000a            pbVar29 = pbVar11;\u000a            if (uVar6 < 0x1000000) {\u000a              uVar6 = uVar6 << 8;\u000a              if (pbVar11 == pbVar25) {\u000a                return 1;\u000a              }\u000a              pbVar29 = pbVar11 + 1;\u000a              uVar19 = (uint)*pbVar11 | uVar19 << 8;\u000a            }\u000a            uVar14 = *(ushort *)(local_28 + iVar10);\u000a            uVar20 = (uint)uVar14 * (uVar6 >> 0xb);\u000a            uVar6 = uVar6 - uVar20;\u000a            if (uVar19 < uVar20) {\u000a              *(ushort *)(local_28 + iVar10) = uVar14 + (short)((int)(0x800 - (uint)uVar14) >> 5);\u000a              iVar27 = iVar10;\u000a              uVar6 = uVar20;\u000a            }\u000a            else {\u000a              uVar19 = uVar19 - uVar20;\u000a              *(ushort *)(local_28 + iVar10) = uVar14 - (uVar14 >> 5);\u000a              iVar27 = iVar27 * 2 + 1;\u000a            }\u000a            psVar12 = psVar12 + -1;\u000a            pbVar11 = pbVar29;\u000a          } while (psVar12 != (sbyte *)0x0);\u000a          psVar24 = (sbyte *)(iVar27 + -0x40);\u000a          if ((int)psVar24 < 4) {\u000a            local_28 = psVar24;\u000a          }\u000a          if (psVar24 != (sbyte *)0x3 && iVar27 + -0x43 < 0 == SBORROW4((int)psVar24,3)) {\u000a            psVar17 = (sbyte *)((int)psVar24 >> 1);\u000a            bVar31 = iVar27 + -0x4d < 0;\u000a            psVar23 = psVar17 + -1;\u000a            uVar20 = (uint)psVar24 & 1 | 2;\u000a            if (0xd < (int)psVar24) {\u000a              psVar17 = psVar17 + -5;\u000a            }\u000a            psVar13 = psVar24;\u000a            if (psVar24 != (sbyte *)0xd && bVar31 == SBORROW4((int)psVar24,0xd)) {\u000a              psVar13 = psVar12;\u000a            }\u000a            pbVar11 = pbVar29;\u000a            if (psVar24 != (sbyte *)0xd && bVar31 == SBORROW4((int)psVar24,0xd)) {\u000a              do {\u000a                psVar13 = psVar13 + 1;\u000a                pbVar29 = pbVar11;\u000a                if (uVar6 < 0x1000000) {\u000a                  uVar6 = uVar6 << 8;\u000a                  if (pbVar11 == pbVar25) {\u000a                    return 1;\u000a                  }\u000a                  pbVar29 = pbVar11 + 1;\u000a                  uVar19 = (uint)*pbVar11 | uVar19 << 8;\u000a                }\u000a                uVar6 = uVar6 >> 1;\u000a                uVar20 = uVar20 << 1;\u000a                if (uVar6 <= uVar19) {\u000a                  uVar19 = uVar19 - uVar6;\u000a                  uVar20 = uVar20 | 1;\u000a                }\u000a                pbVar11 = pbVar29;\u000a              } while (psVar13 != psVar17);\u000a              psVar12 = param_1 + 0x648;\u000a              local_28 = (sbyte *)(uVar20 << 4);\u000a              psVar23 = (sbyte *)0x4;\u000a            }\u000a            else {\u000a              local_28 = (sbyte *)(uVar20 << ((uint)psVar23 & 0xff));\u000a              psVar12 = psVar5 + (int)psVar13 * -2 + (int)local_28 * 2 + 0x55e;\u000a            }\u000a            uVar20 = 1;\u000a            iVar27 = 1;\u000a            pbVar11 = pbVar29;\u000a            do {\u000a              iVar10 = iVar27 * 2;\u000a              iVar27 = iVar27 * 2 + 1;\u000a              uVar21 = uVar6;\u000a              pbVar29 = pbVar11;\u000a              if (uVar6 < 0x1000000) {\u000a                uVar21 = uVar6 << 8;\u000a                if (pbVar11 == pbVar25) {\u000a                  return 1;\u000a                }\u000a                pbVar29 = pbVar11 + 1;\u000a                uVar19 = (uint)*pbVar11 | uVar19 << 8;\u000a              }\u000a              uVar14 = *(ushort *)(psVar12 + iVar10);\u000a              uVar6 = (uint)uVar14 * (uVar21 >> 0xb);\u000a              if (uVar19 < uVar6) {\u000a                *(ushort *)(psVar12 + iVar10) = uVar14 + (short)((int)(0x800 - (uint)uVar14) >> 5);\u000a                iVar27 = iVar10;\u000a              }\u000a              else {\u000a                local_28 = (sbyte *)((uint)local_28 | uVar20);\u000a                *(ushort *)(psVar12 + iVar10) = uVar14 - (uVar14 >> 5);\u000a                uVar19 = uVar19 - uVar6;\u000a                uVar6 = uVar21 - uVar6;\u000a              }\u000a              psVar23 = psVar23 + -1;\u000a              uVar20 = uVar20 << 1;\u000a              pbVar11 = pbVar29;\u000a            } while (psVar23 != (sbyte *)0x0);\u000a          }\u000a          local_28 = local_28 + 1;\u000a          if (local_28 == (sbyte *)0x0) break;\u000a          local_3c = local_3c + 7;\u000a        }\u000a        if (psVar28 < local_28) {\u000a          return 1;\u000a        }\u000a        iVar16 = iVar16 + 2;\u000a        pbVar11 = (byte *)(psVar28 + (param_5 - (int)local_28));\u000a        pbVar30 = (byte *)(psVar28 + param_5);\u000a        do {\u000a          iVar16 = iVar16 + -1;\u000a          psVar28 = psVar28 + 1;\u000a          uVar20 = (uint)*pbVar11;\u000a          *pbVar30 = *pbVar11;\u000a          pbVar11 = pbVar11 + 1;\u000a          pbVar30 = pbVar30 + 1;\u000a          psVar12 = local_3c;\u000a        } while (psVar28 < param_6 && iVar16 != 0);\u000a      }\u000a      else {\u000a        uVar21 = uVar21 - uVar20;\u000a        *puVar8 = uVar14 - (uVar14 >> 5);\u000a        uVar19 = uVar19 - uVar20;\u000a        pbVar11 = pbVar29;\u000a        if (uVar21 < 0x1000000) {\u000a          if (pbVar29 == pbVar25) {\u000a            return 1;\u000a          }\u000a          pbVar11 = pbVar29 + 1;\u000a          uVar21 = uVar21 * 0x100;\u000a          uVar19 = (uint)*pbVar29 | uVar19 * 0x100;\u000a        }\u000a        puVar8 = (ushort *)(psVar24 + 0x198);\u000a        uVar14 = *puVar8;\u000a        uVar20 = (uint)uVar14 * (uVar21 >> 0xb);\u000a        if (uVar20 <= uVar19) {\u000a          uVar21 = uVar21 - uVar20;\u000a          *puVar8 = uVar14 - (uVar14 >> 5);\u000a          uVar19 = uVar19 - uVar20;\u000a          pbVar30 = pbVar11;\u000a          if (uVar21 < 0x1000000) {\u000a            if (pbVar11 == pbVar25) {\u000a              return 1;\u000a            }\u000a            pbVar30 = pbVar11 + 1;\u000a            uVar21 = uVar21 * 0x100;\u000a            uVar19 = (uint)*pbVar11 | uVar19 * 0x100;\u000a          }\u000a          puVar8 = (ushort *)(psVar24 + 0x1b0);\u000a          uVar14 = *puVar8;\u000a          uVar6 = (uint)uVar14 * (uVar21 >> 0xb);\u000a          if (uVar19 < uVar6) {\u000a            uVar14 = uVar14 + (short)((int)(0x800 - (uint)uVar14) >> 5);\u000a            psVar12 = local_38;\u000a            pbVar29 = pbVar30;\u000aLAB_000b5d74:\u000a            local_38 = local_28;\u000a            uVar20 = uVar6;\u000a            local_28 = psVar12;\u000a            goto LAB_000b5d78;\u000a          }\u000a          uVar21 = uVar21 - uVar6;\u000a          *puVar8 = uVar14 - (uVar14 >> 5);\u000a          uVar19 = uVar19 - uVar6;\u000a          pbVar29 = pbVar30;\u000a          if (uVar21 < 0x1000000) {\u000a            if (pbVar30 == pbVar25) {\u000a              return 1;\u000a            }\u000a            pbVar29 = pbVar30 + 1;\u000a            uVar21 = uVar21 * 0x100;\u000a            uVar19 = (uint)*pbVar30 | uVar19 * 0x100;\u000a          }\u000a          puVar8 = (ushort *)(psVar24 + 0x1c8);\u000a          uVar14 = *puVar8;\u000a          uVar6 = (uint)uVar14 * (uVar21 >> 0xb);\u000a          if (uVar19 < uVar6) {\u000a            uVar14 = uVar14 + (short)((int)(0x800 - (uint)uVar14) >> 5);\u000a            psVar12 = local_34;\u000a            local_34 = local_38;\u000a            goto LAB_000b5d74;\u000a          }\u000a          *puVar8 = uVar14 - (uVar14 >> 5);\u000a          uVar20 = uVar21 - uVar6;\u000a          local_30 = local_34;\u000a          local_34 = local_38;\u000a          local_38 = local_28;\u000a          local_28 = psVar12;\u000a          uVar19 = uVar19 - uVar6;\u000aLAB_000b5e18:\u000a          if ((int)local_3c < 7) {\u000a            local_3c = (sbyte *)0x8;\u000a          }\u000a          else {\u000a            local_3c = (sbyte *)0xb;\u000a          }\u000a          puVar9 = (ushort *)(param_1 + 0xa6c);\u000a          goto LAB_000b5e38;\u000a        }\u000a        *puVar8 = uVar14 + (short)((int)(0x800 - (uint)uVar14) >> 5);\u000a        pbVar29 = pbVar11;\u000a        if (uVar20 < 0x1000000) {\u000a          if (pbVar11 == pbVar25) {\u000a            return 1;\u000a          }\u000a          pbVar29 = pbVar11 + 1;\u000a          uVar20 = uVar20 * 0x100;\u000a          uVar19 = (uint)*pbVar11 | uVar19 << 8;\u000a        }\u000a        puVar8 = (ushort *)(psVar5 + uVar26 * 2 + (int)local_3c * 0x20 + 0x1e0);\u000a        uVar14 = *puVar8;\u000a        uVar6 = (uint)uVar14 * (uVar20 >> 0xb);\u000a        if (uVar6 <= uVar19) {\u000a          uVar19 = uVar19 - uVar6;\u000a          uVar14 = uVar14 - (uVar14 >> 5);\u000a          uVar20 = uVar20 - uVar6;\u000aLAB_000b5d78:\u000a          *puVar8 = uVar14;\u000a          goto LAB_000b5e18;\u000a        }\u000a        *puVar8 = uVar14 + (short)((int)(0x800 - (uint)uVar14) >> 5);\u000a        if (psVar28 == (sbyte *)0x0) {\u000a          return 1;\u000a        }\u000a        uVar20 = (uint)(byte)psVar28[param_5 - (int)local_28];\u000a        if ((int)local_3c < 7) {\u000a          psVar12 = (sbyte *)0x9;\u000a        }\u000a        else {\u000a          psVar12 = (sbyte *)0xb;\u000a        }\u000a        psVar28[param_5] = psVar28[param_5 - (int)local_28];\u000a        psVar28 = psVar28 + 1;\u000a      }\u000a    }\u000a  }\u000a  if (uVar6 < 0x1000000) {\u000a    if (pbVar29 == pbVar25) {\u000a      return 1;\u000a    }\u000a    pbVar29 = pbVar29 + 1;\u000a  }\u000a  *param_4 = pbVar29 + -(int)param_2;\u000a  *param_7 = psVar28;\u000a  return 0;\u000a}\u000a\u000a
p73
S'stmdb sp!,{ r4 r5 r6 r7 r8 r9 r10 r11 lr }\nsub sp,sp,#0x30\nstr r3,[sp,#0x0]\nldrb r3,[r0,#0x0]\nldrb r5,[r0,#0x2]\nldrb lr,[r0,#0x1]\nldr r12,[sp,#0x0]\nstr r3,[sp,#0x14]\nldr r3,[sp,#0x5c]\nmov r4,#0x0\nstr r4,[r12,#0x0]\nstr r4,[r3,#0x0]\nldr r12,[sp,#0x14]\nldrb r3,[r0,#0x1]\nadd r3,r12,r3\nmov r12,#0x300\nmov r12,r12, lsl r3\nmov r3,#0x1\nmov lr,r3, lsl lr\nmov r3,r3, lsl r5\nadd r12,r12,#0x730\nsub r3,r3,#0x1\nsub lr,lr,#0x1\nadd r0,r0,#0x4\nadd r12,r12,#0x6\nstr r1,[sp,#0x4]\nstr r3,[sp,#0xc]\nstr lr,[sp,#0x10]\nstr r0,[sp,#0x8]\nb 0x000b592c\nldr r0,[sp,#0x8]\nmov r1,#0x400\nstrh r1,[r3,r0]\ncmp r4,r12\nmov r3,r4, lsl #0x1\nadd r4,r4,#0x1\nbne 0x000b5920\nldr r3,[sp,#0x4]\nmov r6,#0x0\nadd r9,r3,r2\ncpy lr,r3\ncpy r2,r6\nldr r5,[sp,#0x4]\nrsb r3,r5,r9\ncmp r2,r3\nadd lr,lr,#0x1\nbeq 0x000b61d4\nldrb r3,[r2,r5]\nadd r2,r2,#0x1\ncmp r2,#0x5\norr r6,r3,r6, lsl #0x8\nbne 0x000b5950\nmov r11,#0x0\nmov r12,#0x1\ncpy r7,r11\nmvn r0,#0x0\nstr r12,[sp,#0x2c]\nstr r11,[sp,#0x18]\nstr r12,[sp,#0x1c]\nstr r12,[sp,#0x20]\nstr r12,[sp,#0x24]\nb 0x000b6194\nmvn r8,#0xff000000\ncmp r0,r8\nbhi 0x000b59c0\ncmp lr,r9\nbeq 0x000b61d4\nldrb r3,[lr],#0x1\nmov r0,r0, lsl #0x8\norr r6,r3,r6, lsl #0x8\nldr r1,[sp,#0xc]\nldr r2,[sp,#0x18]\nand r10,r11,r1\nmov r1,r2, lsl #0x4\nadd r3,r10,r1\nmov r5,r3, lsl #0x1\nldr r3,[sp,#0x8]\nldrh r12,[r3,r5]\nmov r3,r0, lsr #0xb\nmul r4,r12,r3\ncmp r6,r4\nbcs 0x000b5b94\nldr r0,[sp,#0x14]\nrsb r3,r0,#0x8\nmov r3,r7, asr r3\nldr r1,[sp,#0x10]\nand r2,r11,r1\nadd r3,r3,r2, lsl r0\nldr r0,[sp,#0x8]\nmov r2,#0x600\nmla r2,r3,r2,r0\nldr r1,[sp,#0x18]\nrsb r3,r12,#0x800\ncmp r1,#0x6\nadd r3,r12,r3, asr #0x5\nadd r8,r2,#0xe60\nstrh r3,[r0,r5]\nadd r8,r8,#0xc\ncpyle r0,r4\nmovle r1,#0x1\nble 0x000b5b40\nldr r2,[sp,#0x2c]\nldr r5,[sp,#0x54]\nrsb r3,r2,r11\nldrb r7,[r5,r3]\ncpy r0,r4\nmov r1,#0x1\nmov r7,r7, lsl #0x1\nand r5,r7,#0x100\nmov r10,r1, lsl #0x1\nadd r3,r8,r5, lsl #0x1\nadd r3,r3,r10\ncmp r0,#0x1000000\nadd r4,r3,#0x200\nadd r12,r1,#0x1\nbcs 0x000b5a8c\ncmp lr,r9\nmov r0,r0, lsl #0x8\nbeq 0x000b61d4\nldrb r3,[lr],#0x1\norr r6,r3,r6, lsl #0x8\nldrh r3,[r4,#0x0]\nmov r2,r0, lsr #0xb\nadd r1,r1,r12\nmul r12,r3,r2\nrsb r2,r3,#0x800\ncmp r6,r12\nadd r2,r3,r2, asr #0x5\nsub r3,r3,r3, lsr #0x5\nbcs 0x000b5acc\ncmp r5,#0x0\ncpy r0,r12\nstrh r2,[r4,#0x0]\ncpy r1,r10\nbeq 0x000b5ae0\ncpy r0,r12\nb 0x000b5b40\ncmp r5,#0x0\nstrh r3,[r4,#0x0]\nrsb r6,r12,r6\nrsb r0,r12,r0\nbeq 0x000b5b40\ncmp r1,#0xff\nbgt 0x000b5b50\nb 0x000b5a54\ncmp r0,#0x1000000\nadd r1,r1,r3\nbcs 0x000b5b0c\ncmp lr,r9\nmov r0,r0, lsl #0x8\nbeq 0x000b61d4\nldrb r3,[lr],#0x1\norr r6,r3,r6, lsl #0x8\nldrh r3,[r8,r4]\nmov r2,r0, lsr #0xb\nmul r12,r3,r2\nrsb r2,r3,#0x800\ncmp r6,r12\nsub r5,r3,r3, lsr #0x5\nadd r3,r3,r2, asr #0x5\nstrhcc r3,[r8,r4]\nstrhcs r5,[r8,r4]\nrsb r0,r12,r0\ncpycc r1,r4\ncpycc r0,r12\nrsbcs r6,r12,r6\ncmp r1,#0xff\nmov r4,r1, lsl #0x1\nadd r3,r1,#0x1\nble 0x000b5aec\nldr r12,[sp,#0x18]\nand r7,r1,#0xff\ncmp r12,#0x3\nldr r1,[sp,#0x54]\nmovle r2,#0x0\nstrb r7,[r1,r11]\nadd r11,r11,#0x1\nstrle r2,[sp,#0x18]\nble 0x000b6194\nldr r3,[sp,#0x18]\ncmp r3,#0x9\nldrgt r5,[sp,#0x18]\nsuble r3,r3,#0x3\nsubgt r5,r5,#0x6\nstrle r3,[sp,#0x18]\nstrgt r5,[sp,#0x18]\nb 0x000b6194\nsub r3,r12,r12, lsr #0x5\nrsb r2,r4,r0\nldr r12,[sp,#0x8]\ncmp r2,r8\nstrh r3,[r12,r5]\nrsb r6,r4,r6\nbhi 0x000b5bc4\ncmp lr,r9\nbeq 0x000b61d4\nldrb r3,[lr],#0x1\nmov r2,r2, lsl #0x8\norr r6,r3,r6, lsl #0x8\nldr r0,[sp,#0x8]\nldr r3,[sp,#0x18]\nadd r7,r0,r3, lsl #0x1\nadd r0,r7,#0x180\nldrh r12,[r0,#0x0]\nmov r3,r2, lsr #0xb\nmul r4,r12,r3\ncmp r6,r4\nbcs 0x000b5c34\nldr r2,[sp,#0x18]\nldr r5,[sp,#0x8]\ncmp r2,#0x6\nrsb r3,r12,#0x800\nadd r1,r5,#0x660\nmovgt r2,#0x3\nldr r5,[sp,#0x20]\nmovle r2,#0x0\nadd r3,r12,r3, asr #0x5\nstr r2,[sp,#0x18]\nldr r12,[sp,#0x1c]\nldr r2,[sp,#0x2c]\nstr r5,[sp,#0x24]\nadd r1,r1,#0x4\ncpy r5,r4\nstr r12,[sp,#0x20]\nstr r2,[sp,#0x1c]\nstrh r3,[r0,#0x0]\nb 0x000b5e38\nrsb r2,r4,r2\nsub r3,r12,r12, lsr #0x5\ncmp r2,r8\nstrh r3,[r0,#0x0]\nrsb r6,r4,r6\nbhi 0x000b5c60\ncmp lr,r9\nbeq 0x000b61d4\nldrb r3,[lr],#0x1\nmov r2,r2, lsl #0x8\norr r6,r3,r6, lsl #0x8\nadd r5,r7,#0x198\nldrh r12,[r5,#0x0]\nmov r3,r2, lsr #0xb\nmul r4,r12,r3\ncmp r6,r4\nbcs 0x000b5d18\nrsb r3,r12,#0x800\nadd r3,r12,r3, asr #0x5\ncmp r4,r8\nstrh r3,[r5,#0x0]\nbhi 0x000b5ca0\ncmp lr,r9\nbeq 0x000b61d4\nldrb r3,[lr],#0x1\nmov r4,r4, lsl #0x8\norr r6,r3,r6, lsl #0x8\nldr r5,[sp,#0x8]\nadd r3,r5,r1, lsl #0x1\nadd r3,r3,r10, lsl #0x1\nadd r1,r3,#0x1e0\nldrh r12,[r1,#0x0]\nmov r3,r4, lsr #0xb\nmul r2,r12,r3\ncmp r6,r2\nrsbcs r6,r2,r6\nsubcs r3,r12,r12, lsr #0x5\nrsbcs r5,r2,r4\nbcs 0x000b5d78\nrsb r3,r12,#0x800\nadd r3,r12,r3, asr #0x5\ncmp r11,#0x0\nstrh r3,[r1,#0x0]\nbeq 0x000b61d4\nldr r12,[sp,#0x2c]\nldr r1,[sp,#0x18]\nldr r0,[sp,#0x54]\nrsb r3,r12,r11\nldrb r7,[r0,r3]\ncmp r1,#0x6\nmovgt r1,#0xb\nmovle r1,#0x9\nstr r1,[sp,#0x18]\nstrb r7,[r0,r11]\ncpy r0,r2\nadd r11,r11,#0x1\nb 0x000b6194\nrsb r2,r4,r2\nsub r3,r12,r12, lsr #0x5\ncmp r2,r8\nstrh r3,[r5,#0x0]\nrsb r6,r4,r6\nbhi 0x000b5d44\ncmp lr,r9\nbeq 0x000b61d4\nldrb r3,[lr],#0x1\nmov r2,r2, lsl #0x8\norr r6,r3,r6, lsl #0x8\nadd r1,r7,#0x1b0\nldrh r12,[r1,#0x0]\nmov r3,r2, lsr #0xb\nmul r4,r12,r3\ncmp r6,r4\nbcs 0x000b5d80\nldr r5,[sp,#0x2c]\nrsb r3,r12,#0x800\nldr r2,[sp,#0x1c]\nadd r3,r12,r3, asr #0x5\nstr r5,[sp,#0x1c]\ncpy r5,r4\nstr r2,[sp,#0x2c]\nstrh r3,[r1,#0x0]\nb 0x000b5e18\nrsb r2,r4,r2\nsub r3,r12,r12, lsr #0x5\ncmp r2,r8\nstrh r3,[r1,#0x0]\nrsb r6,r4,r6\nbhi 0x000b5dac\ncmp lr,r9\nbeq 0x000b61d4\nldrb r3,[lr],#0x1\nmov r2,r2, lsl #0x8\norr r6,r3,r6, lsl #0x8\nadd r1,r7,#0x1c8\nldrh r12,[r1,#0x0]\nmov r3,r2, lsr #0xb\nmul r4,r12,r3\ncmp r6,r4\nbcs 0x000b5de8\nrsb r3,r12,#0x800\nldr r2,[sp,#0x20]\nadd r3,r12,r3, asr #0x5\nldr r0,[sp,#0x2c]\nldr r12,[sp,#0x1c]\ncpy r5,r4\nstr r12,[sp,#0x20]\nstr r0,[sp,#0x1c]\nb 0x000b5d74\nsub r3,r12,r12, lsr #0x5\nstrh r3,[r1,#0x0]\nldr r12,[sp,#0x2c]\nadd r1,sp,#0x20\nldmia r1,{ r1 r3 }\nrsb r5,r4,r2\nldr r2,[sp,#0x1c]\nstr r1,[sp,#0x24]\nstr r2,[sp,#0x20]\nstr r12,[sp,#0x1c]\nstr r3,[sp,#0x2c]\nrsb r6,r4,r6\nldr r2,[sp,#0x18]\nldr r0,[sp,#0x8]\ncmp r2,#0x6\nmovgt r2,#0xb\nmovle r2,#0x8\nadd r1,r0,#0xa60\nstr r2,[sp,#0x18]\nadd r1,r1,#0x8\nmvn r7,#0xff000000\ncmp r5,r7\nbhi 0x000b5e58\ncmp lr,r9\nbeq 0x000b61d4\nldrb r3,[lr],#0x1\nmov r5,r5, lsl #0x8\norr r6,r3,r6, lsl #0x8\nldrh r12,[r1,#0x0]\nmov r3,r5, lsr #0xb\nmul r4,r12,r3\ncmp r6,r4\nbcs 0x000b5e90\nadd r2,r1,r10, lsl #0x4\nrsb r3,r12,#0x800\nadd r3,r12,r3, asr #0x5\nadd r5,r2,#0x4\ncpy r0,r4\nmov r10,#0x3\nmov r8,#0x0\nstrh r3,[r1,#0x0]\nb 0x000b5f10\nrsb r2,r4,r5\nsub r3,r12,r12, lsr #0x5\ncmp r2,r7\nrsb r6,r4,r6\nstrh r3,[r1,#0x0]\nbhi 0x000b5ebc\ncmp lr,r9\nbeq 0x000b61d4\nldrb r3,[lr],#0x1\nmov r2,r2, lsl #0x8\norr r6,r3,r6, lsl #0x8\nldrh r12,[r1,#0x2]\nmov r3,r2, lsr #0xb\nmul r4,r12,r3\ncmp r6,r4\nbcs 0x000b5ef4\nadd r2,r1,r10, lsl #0x4\nrsb r3,r12,#0x800\nadd r3,r12,r3, asr #0x5\nadd r5,r2,#0x104\ncpy r0,r4\nmov r10,#0x3\nmov r8,#0x8\nstrh r3,[r1,#0x2]\nb 0x000b5f10\nsub r3,r12,r12, lsr #0x5\nstrh r3,[r1,#0x2]\nrsb r6,r4,r6\nrsb r0,r4,r2\nadd r5,r1,#0x204\nmov r10,#0x8\nmov r8,#0x10\ncpy r7,r10\nmov r1,#0x1\nadd r3,r1,#0x1\ncmp r0,#0x1000000\nmov r4,r1, lsl #0x1\nadd r1,r1,r3\nbcs 0x000b5f40\ncmp lr,r9\nmov r0,r0, lsl #0x8\nbeq 0x000b61d4\nldrb r3,[lr],#0x1\norr r6,r3,r6, lsl #0x8\nldrh r3,[r5,r4]\nmov r2,r0, lsr #0xb\nmul r12,r3,r2\nrsb r2,r3,#0x800\ncmp r6,r12\nadd r2,r3,r2, asr #0x5\nsub r3,r3,r3, lsr #0x5\nrsb r0,r12,r0\ncpycc r1,r4\ncpycc r0,r12\nstrhcc r2,[r5,r4]\nrsbcs r6,r12,r6\nstrhcs r3,[r5,r4]\nsubs r7,r7,#0x1\nbne 0x000b5f18\nmov r2,#0x1\nsub r3,r1,r2, lsl r10\nldr r5,[sp,#0x18]\nadd r3,r3,r8\ncmp r5,#0x3\nstr r3,[sp,#0x28]\nbgt 0x000b6140\nldr r12,[sp,#0x8]\ncmp r3,#0x3\nmovge r3,#0x3\nadd r3,r12,r3, lsl #0x7\nadd r5,r3,#0x360\ncpy r7,r2\nmov r8,#0x6\nadd r3,r7,#0x1\ncmp r0,#0x1000000\nmov r4,r7, lsl #0x1\nadd r7,r7,r3\nbcs 0x000b5fdc\ncmp lr,r9\nmov r0,r0, lsl #0x8\nbeq 0x000b61d4\nldrb r3,[lr],#0x1\norr r6,r3,r6, lsl #0x8\nldrh r3,[r5,r4]\nmov r2,r0, lsr #0xb\nmul r12,r3,r2\nrsb r2,r3,#0x800\ncmp r6,r12\nadd r2,r3,r2, asr #0x5\nsub r3,r3,r3, lsr #0x5\nrsb r0,r12,r0\ncpycc r7,r4\ncpycc r0,r12\nstrhcc r2,[r5,r4]\nrsbcs r6,r12,r6\nstrhcs r3,[r5,r4]\nsubs r8,r8,#0x1\nbne 0x000b5fb4\nsub r2,r7,#0x40\ncmp r2,#0x3\ncpyle r5,r2\nble 0x000b6128\nmov r4,r2, asr #0x1\ncmp r2,#0xd\nand r3,r2,#0x1\nsub r7,r4,#0x1\norr r12,r3,#0x2\nsubgt r4,r4,#0x5\ncpygt r2,r8\nbgt 0x000b6064\nmov r5,r12, lsl r7\nldr r1,[sp,#0x8]\nadd r3,r1,r5, lsl #0x1\nsub r3,r3,r2, lsl #0x1\nadd r4,r3,#0x550\nadd r4,r4,#0xe\nb 0x000b60b4\ncmp r0,#0x1000000\nadd r2,r2,#0x1\nbcs 0x000b6084\ncmp lr,r9\nmov r0,r0, lsl #0x8\nbeq 0x000b61d4\nldrb r3,[lr],#0x1\norr r6,r3,r6, lsl #0x8\nmov r0,r0, lsr #0x1\ncmp r6,r0\nmov r12,r12, lsl #0x1\nrsbcs r6,r0,r6\norrcs r12,r12,#0x1\ncmp r2,r4\nbne 0x000b6064\nldr r2,[sp,#0x8]\nadd r4,r2,#0x640\nadd r4,r4,#0x4\nmov r5,r12, lsl #0x4\nmov r7,#0x4\nmov r10,#0x1\ncpy r8,r10\ncmp r0,#0x1000000\nmov r1,r8, lsl #0x1\nadd r12,r8,#0x1\nbcs 0x000b60e0\ncmp lr,r9\nmov r0,r0, lsl #0x8\nbeq 0x000b61d4\nldrb r3,[lr],#0x1\norr r6,r3,r6, lsl #0x8\nldrh r3,[r4,r1]\nmov r2,r0, lsr #0xb\nadd r8,r8,r12\nmul r12,r3,r2\nrsb r2,r3,#0x800\ncmp r6,r12\nadd r2,r3,r2, asr #0x5\nsub r3,r3,r3, lsr #0x5\norrcs r5,r5,r10\ncpycc r8,r1\ncpycc r0,r12\nstrhcc r2,[r4,r1]\nstrhcs r3,[r4,r1]\nrsbcs r6,r12,r6\nrsbcs r0,r12,r0\nsubs r7,r7,#0x1\nmov r10,r10, lsl #0x1\nbne 0x000b60bc\nadds r5,r5,#0x1\nstr r5,[sp,#0x2c]\nbeq 0x000b61a0\nldr r3,[sp,#0x18]\nadd r3,r3,#0x7\nstr r3,[sp,#0x18]\nldr r5,[sp,#0x2c]\ncmp r5,r11\nbhi 0x000b61d4\nldr r12,[sp,#0x28]\nldr r1,[sp,#0x54]\nrsb r3,r5,r11\nadd r2,r12,#0x2\nadd r4,r1,r3\nadd r12,r1,r11\nsubs r2,r2,#0x1\nldr r5,[sp,#0x58]\nmoveq r3,#0x0\nmovne r3,#0x1\nadd r11,r11,#0x1\ncmp r11,r5\nmovcs r3,#0x0\nandcc r3,r3,#0x1\nldrb r7,[r4],#0x1\ncmp r3,#0x0\nstrb r7,[r12],#0x1\nbne 0x000b6164\nldr r12,[sp,#0x58]\ncmp r11,r12\nbcc 0x000b59a0\ncmp r0,#0x1000000\nbcs 0x000b61b4\ncmp lr,r9\nbeq 0x000b61d4\nadd lr,lr,#0x1\nldr r0,[sp,#0x4]\nldr r1,[sp,#0x0]\nldr r2,[sp,#0x5c]\nrsb r3,r0,lr\nmov r0,#0x0\nstr r3,[r1,#0x0]\nstr r11,[r2,#0x0]\nb 0x000b61d8\nmov r0,#0x1\nadd sp,sp,#0x30\nldmia sp!,{ r4 r5 r6 r7 r8 r9 r10 r11 pc }\n'
p74
S'f0 4f 2d e9\n30 d0 4d e2\n00 30 8d e5\n00 30 d0 e5\n02 50 d0 e5\n01 e0 d0 e5\n00 c0 9d e5\n14 30 8d e5\n5c 30 9d e5\n00 40 a0 e3\n00 40 8c e5\n00 40 83 e5\n14 c0 9d e5\n01 30 d0 e5\n03 30 8c e0\n03 cc a0 e3\n1c c3 a0 e1\n01 30 a0 e3\n13 ee a0 e1\n13 35 a0 e1\n73 ce 8c e2\n01 30 43 e2\n01 e0 4e e2\n04 00 80 e2\n06 c0 8c e2\n04 10 8d e5\n0c 30 8d e5\n10 e0 8d e5\n08 00 8d e5\n02 00 00 ea\n08 00 9d e5\n01 1b a0 e3\nb0 10 83 e1\n0c 00 54 e1\n84 30 a0 e1\n01 40 84 e2\nf8 ff ff 1a\n04 30 9d e5\n00 60 a0 e3\n02 90 83 e0\n03 e0 a0 e1\n06 20 a0 e1\n04 50 9d e5\n09 30 65 e0\n03 00 52 e1\n01 e0 8e e2\n1b 02 00 0a\n05 30 d2 e7\n01 20 82 e2\n05 00 52 e3\n06 64 83 e1\nf5 ff ff 1a\n00 b0 a0 e3\n01 c0 a0 e3\n0b 70 a0 e1\n00 00 e0 e3\n2c c0 8d e5\n18 b0 8d e5\n1c c0 8d e5\n20 c0 8d e5\n24 c0 8d e5\nfc 01 00 ea\nff 84 e0 e3\n08 00 50 e1\n04 00 00 8a\n09 00 5e e1\n07 02 00 0a\n01 30 de e4\n00 04 a0 e1\n06 64 83 e1\n0c 10 9d e5\n18 20 9d e5\n01 a0 0b e0\n02 12 a0 e1\n01 30 8a e0\n83 50 a0 e1\n08 30 9d e5\nb5 c0 93 e1\na0 35 a0 e1\n9c 03 04 e0\n04 00 56 e1\n68 00 00 2a\n14 00 9d e5\n08 30 60 e2\n57 33 a0 e1\n10 10 9d e5\n01 20 0b e0\n12 30 83 e0\n08 00 9d e5\n06 2c a0 e3\n93 02 22 e0\n18 10 9d e5\n02 3b 6c e2\n06 00 51 e3\nc3 32 8c e0\ne6 8e 82 e2\nb5 30 80 e1\n0c 80 88 e2\n04 00 a0 d1\n01 10 a0 d3\n40 00 00 da\n2c 20 9d e5\n54 50 9d e5\n0b 30 62 e0\n03 70 d5 e7\n04 00 a0 e1\n01 10 a0 e3\n87 70 a0 e1\n01 5c 07 e2\n81 a0 a0 e1\n85 30 88 e0\n0a 30 83 e0\n01 04 50 e3\n02 4c 83 e2\n01 c0 81 e2\n04 00 00 2a\n09 00 5e e1\n00 04 a0 e1\nd3 01 00 0a\n01 30 de e4\n06 64 83 e1\nb0 30 d4 e1\na0 25 a0 e1\n0c 10 81 e0\n93 02 0c e0\n02 2b 63 e2\n0c 00 56 e1\nc2 22 83 e0\na3 32 43 e0\n06 00 00 2a\n00 00 55 e3\n0c 00 a0 e1\nb0 20 c4 e1\n0a 10 a0 e1\n06 00 00 0a\n0c 00 a0 e1\n1c 00 00 ea\n00 00 55 e3\nb0 30 c4 e1\n06 60 6c e0\n00 00 6c e0\n17 00 00 0a\nff 00 51 e3\n19 00 00 ca\nd9 ff ff ea\n01 04 50 e3\n03 10 81 e0\n04 00 00 2a\n09 00 5e e1\n00 04 a0 e1\nb3 01 00 0a\n01 30 de e4\n06 64 83 e1\nb4 30 98 e1\na0 25 a0 e1\n93 02 0c e0\n02 2b 63 e2\n0c 00 56 e1\na3 52 43 e0\nc2 32 83 e0\nb4 30 88 31\nb4 50 88 21\n00 00 6c e0\n04 10 a0 31\n0c 00 a0 31\n06 60 6c 20\nff 00 51 e3\n81 40 a0 e1\n01 30 81 e2\ne6 ff ff da\n18 c0 9d e5\nff 70 01 e2\n03 00 5c e3\n54 10 9d e5\n00 20 a0 d3\n0b 70 c1 e7\n01 b0 8b e2\n18 20 8d d5\n87 01 00 da\n18 30 9d e5\n09 00 53 e3\n18 50 9d c5\n03 30 43 d2\n06 50 45 c2\n18 30 8d d5\n18 50 8d c5\n7f 01 00 ea\nac 32 4c e0\n00 20 64 e0\n08 c0 9d e5\n08 00 52 e1\nb5 30 8c e1\n06 60 64 e0\n04 00 00 8a\n09 00 5e e1\n86 01 00 0a\n01 30 de e4\n02 24 a0 e1\n06 64 83 e1\n08 00 9d e5\n18 30 9d e5\n83 70 80 e0\n06 0d 87 e2\nb0 c0 d0 e1\na2 35 a0 e1\n9c 03 04 e0\n04 00 56 e1\n12 00 00 2a\n18 20 9d e5\n08 50 9d e5\n06 00 52 e3\n02 3b 6c e2\n66 1e 85 e2\n03 20 a0 c3\n20 50 9d e5\n00 20 a0 d3\nc3 32 8c e0\n18 20 8d e5\n1c c0 9d e5\n2c 20 9d e5\n24 50 8d e5\n04 10 81 e2\n04 50 a0 e1\n20 c0 8d e5\n1c 20 8d e5\nb0 30 c0 e1\n80 00 00 ea\n02 20 64 e0\nac 32 4c e0\n08 00 52 e1\nb0 30 c0 e1\n06 60 64 e0\n04 00 00 8a\n09 00 5e e1\n5f 01 00 0a\n01 30 de e4\n02 24 a0 e1\n06 64 83 e1\n66 5f 87 e2\nb0 c0 d5 e1\na2 35 a0 e1\n9c 03 04 e0\n04 00 56 e1\n27 00 00 2a\n02 3b 6c e2\nc3 32 8c e0\n08 00 54 e1\nb0 30 c5 e1\n04 00 00 8a\n09 00 5e e1\n4f 01 00 0a\n01 30 de e4\n04 44 a0 e1\n06 64 83 e1\n08 50 9d e5\n81 30 85 e0\n8a 30 83 e0\n1e 1e 83 e2\nb0 c0 d1 e1\na4 35 a0 e1\n9c 03 02 e0\n02 00 56 e1\n06 60 62 20\nac 32 4c 20\n04 50 62 20\n29 00 00 2a\n02 3b 6c e2\nc3 32 8c e0\n00 00 5b e3\nb0 30 c1 e1\n3b 01 00 0a\n2c c0 9d e5\n18 10 9d e5\n54 00 9d e5\n0b 30 6c e0\n03 70 d0 e7\n06 00 51 e3\n0b 10 a0 c3\n09 10 a0 d3\n18 10 8d e5\n0b 70 c0 e7\n02 00 a0 e1\n01 b0 8b e2\n1e 01 00 ea\n02 20 64 e0\nac 32 4c e0\n08 00 52 e1\nb0 30 c5 e1\n06 60 64 e0\n04 00 00 8a\n09 00 5e e1\n26 01 00 0a\n01 30 de e4\n02 24 a0 e1\n06 64 83 e1\n1b 1e 87 e2\nb0 c0 d1 e1\na2 35 a0 e1\n9c 03 04 e0\n04 00 56 e1\n08 00 00 2a\n2c 50 9d e5\n02 3b 6c e2\n1c 20 9d e5\nc3 32 8c e0\n1c 50 8d e5\n04 50 a0 e1\n2c 20 8d e5\nb0 30 c1 e1\n25 00 00 ea\n02 20 64 e0\nac 32 4c e0\n08 00 52 e1\nb0 30 c1 e1\n06 60 64 e0\n04 00 00 8a\n09 00 5e e1\n0c 01 00 0a\n01 30 de e4\n02 24 a0 e1\n06 64 83 e1\n72 1f 87 e2\nb0 c0 d1 e1\na2 35 a0 e1\n9c 03 04 e0\n04 00 56 e1\n08 00 00 2a\n02 3b 6c e2\n20 20 9d e5\nc3 32 8c e0\n2c 00 9d e5\n1c c0 9d e5\n04 50 a0 e1\n20 c0 8d e5\n1c 00 8d e5\ne2 ff ff ea\nac 32 4c e0\nb0 30 c1 e1\n2c c0 9d e5\n20 10 8d e2\n0a 00 91 e8\n02 50 64 e0\n1c 20 9d e5\n24 10 8d e5\n20 20 8d e5\n1c c0 8d e5\n2c 30 8d e5\n06 60 64 e0\n18 20 9d e5\n08 00 9d e5\n06 00 52 e3\n0b 20 a0 c3\n08 20 a0 d3\na6 1e 80 e2\n18 20 8d e5\n08 10 81 e2\nff 74 e0 e3\n07 00 55 e1\n04 00 00 8a\n09 00 5e e1\ne1 00 00 0a\n01 30 de e4\n05 54 a0 e1\n06 64 83 e1\nb0 c0 d1 e1\na5 35 a0 e1\n9c 03 04 e0\n04 00 56 e1\n08 00 00 2a\n0a 22 81 e0\n02 3b 6c e2\nc3 32 8c e0\n04 50 82 e2\n04 00 a0 e1\n03 a0 a0 e3\n00 80 a0 e3\nb0 30 c1 e1\n1f 00 00 ea\n05 20 64 e0\nac 32 4c e0\n07 00 52 e1\n06 60 64 e0\nb0 30 c1 e1\n04 00 00 8a\n09 00 5e e1\nc8 00 00 0a\n01 30 de e4\n02 24 a0 e1\n06 64 83 e1\nb2 c0 d1 e1\na2 35 a0 e1\n9c 03 04 e0\n04 00 56 e1\n08 00 00 2a\n0a 22 81 e0\n02 3b 6c e2\nc3 32 8c e0\n41 5f 82 e2\n04 00 a0 e1\n03 a0 a0 e3\n08 80 a0 e3\nb2 30 c1 e1\n06 00 00 ea\nac 32 4c e0\nb2 30 c1 e1\n06 60 64 e0\n02 00 64 e0\n81 5f 81 e2\n08 a0 a0 e3\n10 80 a0 e3\n0a 70 a0 e1\n01 10 a0 e3\n01 30 81 e2\n01 04 50 e3\n81 40 a0 e1\n03 10 81 e0\n04 00 00 2a\n09 00 5e e1\n00 04 a0 e1\na6 00 00 0a\n01 30 de e4\n06 64 83 e1\nb4 30 95 e1\na0 25 a0 e1\n93 02 0c e0\n02 2b 63 e2\n0c 00 56 e1\nc2 22 83 e0\na3 32 43 e0\n00 00 6c e0\n04 10 a0 31\n0c 00 a0 31\nb4 20 85 31\n06 60 6c 20\nb4 30 85 21\n01 70 57 e2\ne6 ff ff 1a\n01 20 a0 e3\n12 3a 41 e0\n18 50 9d e5\n08 30 83 e0\n03 00 55 e3\n28 30 8d e5\n69 00 00 ca\n08 c0 9d e5\n03 00 53 e3\n03 30 a0 a3\n83 33 8c e0\n36 5e 83 e2\n02 70 a0 e1\n06 80 a0 e3\n01 30 87 e2\n01 04 50 e3\n87 40 a0 e1\n03 70 87 e0\n04 00 00 2a\n09 00 5e e1\n00 04 a0 e1\n7f 00 00 0a\n01 30 de e4\n06 64 83 e1\nb4 30 95 e1\na0 25 a0 e1\n93 02 0c e0\n02 2b 63 e2\n0c 00 56 e1\nc2 22 83 e0\na3 32 43 e0\n00 00 6c e0\n04 70 a0 31\n0c 00 a0 31\nb4 20 85 31\n06 60 6c 20\nb4 30 85 21\n01 80 58 e2\ne6 ff ff 1a\n40 20 47 e2\n03 00 52 e3\n02 50 a0 d1\n3f 00 00 da\nc2 40 a0 e1\n0d 00 52 e3\n01 30 02 e2\n01 70 44 e2\n02 c0 83 e3\n05 40 44 c2\n08 20 a0 c1\n06 00 00 ca\n1c 57 a0 e1\n08 10 9d e5\n85 30 81 e0\n82 30 43 e0\n55 4e 83 e2\n0e 40 84 e2\n13 00 00 ea\n01 04 50 e3\n01 20 82 e2\n04 00 00 2a\n09 00 5e e1\n00 04 a0 e1\n55 00 00 0a\n01 30 de e4\n06 64 83 e1\na0 00 a0 e1\n00 00 56 e1\n8c c0 a0 e1\n06 60 60 20\n01 c0 8c 23\n04 00 52 e1\nf0 ff ff 1a\n08 20 9d e5\n19 4d 82 e2\n04 40 84 e2\n0c 52 a0 e1\n04 70 a0 e3\n01 a0 a0 e3\n0a 80 a0 e1\n01 04 50 e3\n88 10 a0 e1\n01 c0 88 e2\n04 00 00 2a\n09 00 5e e1\n00 04 a0 e1\n3e 00 00 0a\n01 30 de e4\n06 64 83 e1\nb1 30 94 e1\na0 25 a0 e1\n0c 80 88 e0\n93 02 0c e0\n02 2b 63 e2\n0c 00 56 e1\nc2 22 83 e0\na3 32 43 e0\n0a 50 85 21\n01 80 a0 31\n0c 00 a0 31\nb1 20 84 31\nb1 30 84 21\n06 60 6c 20\n00 00 6c 20\n01 70 57 e2\n8a a0 a0 e1\ne4 ff ff 1a\n01 50 95 e2\n2c 50 8d e5\n1a 00 00 0a\n18 30 9d e5\n07 30 83 e2\n18 30 8d e5\n2c 50 9d e5\n0b 00 55 e1\n21 00 00 8a\n28 c0 9d e5\n54 10 9d e5\n0b 30 65 e0\n02 20 8c e2\n03 40 81 e0\n0b c0 81 e0\n01 20 52 e2\n58 50 9d e5\n00 30 a0 03\n01 30 a0 13\n01 b0 8b e2\n05 00 5b e1\n00 30 a0 23\n01 30 03 32\n01 70 d4 e4\n00 00 53 e3\n01 70 cc e4\nf3 ff ff 1a\n58 c0 9d e5\n0c 00 5b e1\nff fd ff 3a\n01 04 50 e3\n02 00 00 2a\n09 00 5e e1\n08 00 00 0a\n01 e0 8e e2\n04 00 9d e5\n00 10 9d e5\n5c 20 9d e5\n0e 30 60 e0\n00 00 a0 e3\n00 30 81 e5\n00 b0 82 e5\n00 00 00 ea\n01 00 a0 e3\n30 d0 8d e2\nf0 8f bd e8\n'
p75
S'segment_1.15:000b58a8\nsegment_1.15:000b58ac\nsegment_1.15:000b58b0\nsegment_1.15:000b58b4\nsegment_1.15:000b58b8\nsegment_1.15:000b58bc\nsegment_1.15:000b58c0\nsegment_1.15:000b58c4\nsegment_1.15:000b58c8\nsegment_1.15:000b58cc\nsegment_1.15:000b58d0\nsegment_1.15:000b58d4\nsegment_1.15:000b58d8\nsegment_1.15:000b58dc\nsegment_1.15:000b58e0\nsegment_1.15:000b58e4\nsegment_1.15:000b58e8\nsegment_1.15:000b58ec\nsegment_1.15:000b58f0\nsegment_1.15:000b58f4\nsegment_1.15:000b58f8\nsegment_1.15:000b58fc\nsegment_1.15:000b5900\nsegment_1.15:000b5904\nsegment_1.15:000b5908\nsegment_1.15:000b590c\nsegment_1.15:000b5910\nsegment_1.15:000b5914\nsegment_1.15:000b5918\nsegment_1.15:000b591c\nsegment_1.15:000b5920\nsegment_1.15:000b5924\nsegment_1.15:000b5928\nsegment_1.15:000b592c\nsegment_1.15:000b5930\nsegment_1.15:000b5934\nsegment_1.15:000b5938\nsegment_1.15:000b593c\nsegment_1.15:000b5940\nsegment_1.15:000b5944\nsegment_1.15:000b5948\nsegment_1.15:000b594c\nsegment_1.15:000b5950\nsegment_1.15:000b5954\nsegment_1.15:000b5958\nsegment_1.15:000b595c\nsegment_1.15:000b5960\nsegment_1.15:000b5964\nsegment_1.15:000b5968\nsegment_1.15:000b596c\nsegment_1.15:000b5970\nsegment_1.15:000b5974\nsegment_1.15:000b5978\nsegment_1.15:000b597c\nsegment_1.15:000b5980\nsegment_1.15:000b5984\nsegment_1.15:000b5988\nsegment_1.15:000b598c\nsegment_1.15:000b5990\nsegment_1.15:000b5994\nsegment_1.15:000b5998\nsegment_1.15:000b599c\nsegment_1.15:000b59a0\nsegment_1.15:000b59a4\nsegment_1.15:000b59a8\nsegment_1.15:000b59ac\nsegment_1.15:000b59b0\nsegment_1.15:000b59b4\nsegment_1.15:000b59b8\nsegment_1.15:000b59bc\nsegment_1.15:000b59c0\nsegment_1.15:000b59c4\nsegment_1.15:000b59c8\nsegment_1.15:000b59cc\nsegment_1.15:000b59d0\nsegment_1.15:000b59d4\nsegment_1.15:000b59d8\nsegment_1.15:000b59dc\nsegment_1.15:000b59e0\nsegment_1.15:000b59e4\nsegment_1.15:000b59e8\nsegment_1.15:000b59ec\nsegment_1.15:000b59f0\nsegment_1.15:000b59f4\nsegment_1.15:000b59f8\nsegment_1.15:000b59fc\nsegment_1.15:000b5a00\nsegment_1.15:000b5a04\nsegment_1.15:000b5a08\nsegment_1.15:000b5a0c\nsegment_1.15:000b5a10\nsegment_1.15:000b5a14\nsegment_1.15:000b5a18\nsegment_1.15:000b5a1c\nsegment_1.15:000b5a20\nsegment_1.15:000b5a24\nsegment_1.15:000b5a28\nsegment_1.15:000b5a2c\nsegment_1.15:000b5a30\nsegment_1.15:000b5a34\nsegment_1.15:000b5a38\nsegment_1.15:000b5a3c\nsegment_1.15:000b5a40\nsegment_1.15:000b5a44\nsegment_1.15:000b5a48\nsegment_1.15:000b5a4c\nsegment_1.15:000b5a50\nsegment_1.15:000b5a54\nsegment_1.15:000b5a58\nsegment_1.15:000b5a5c\nsegment_1.15:000b5a60\nsegment_1.15:000b5a64\nsegment_1.15:000b5a68\nsegment_1.15:000b5a6c\nsegment_1.15:000b5a70\nsegment_1.15:000b5a74\nsegment_1.15:000b5a78\nsegment_1.15:000b5a7c\nsegment_1.15:000b5a80\nsegment_1.15:000b5a84\nsegment_1.15:000b5a88\nsegment_1.15:000b5a8c\nsegment_1.15:000b5a90\nsegment_1.15:000b5a94\nsegment_1.15:000b5a98\nsegment_1.15:000b5a9c\nsegment_1.15:000b5aa0\nsegment_1.15:000b5aa4\nsegment_1.15:000b5aa8\nsegment_1.15:000b5aac\nsegment_1.15:000b5ab0\nsegment_1.15:000b5ab4\nsegment_1.15:000b5ab8\nsegment_1.15:000b5abc\nsegment_1.15:000b5ac0\nsegment_1.15:000b5ac4\nsegment_1.15:000b5ac8\nsegment_1.15:000b5acc\nsegment_1.15:000b5ad0\nsegment_1.15:000b5ad4\nsegment_1.15:000b5ad8\nsegment_1.15:000b5adc\nsegment_1.15:000b5ae0\nsegment_1.15:000b5ae4\nsegment_1.15:000b5ae8\nsegment_1.15:000b5aec\nsegment_1.15:000b5af0\nsegment_1.15:000b5af4\nsegment_1.15:000b5af8\nsegment_1.15:000b5afc\nsegment_1.15:000b5b00\nsegment_1.15:000b5b04\nsegment_1.15:000b5b08\nsegment_1.15:000b5b0c\nsegment_1.15:000b5b10\nsegment_1.15:000b5b14\nsegment_1.15:000b5b18\nsegment_1.15:000b5b1c\nsegment_1.15:000b5b20\nsegment_1.15:000b5b24\nsegment_1.15:000b5b28\nsegment_1.15:000b5b2c\nsegment_1.15:000b5b30\nsegment_1.15:000b5b34\nsegment_1.15:000b5b38\nsegment_1.15:000b5b3c\nsegment_1.15:000b5b40\nsegment_1.15:000b5b44\nsegment_1.15:000b5b48\nsegment_1.15:000b5b4c\nsegment_1.15:000b5b50\nsegment_1.15:000b5b54\nsegment_1.15:000b5b58\nsegment_1.15:000b5b5c\nsegment_1.15:000b5b60\nsegment_1.15:000b5b64\nsegment_1.15:000b5b68\nsegment_1.15:000b5b6c\nsegment_1.15:000b5b70\nsegment_1.15:000b5b74\nsegment_1.15:000b5b78\nsegment_1.15:000b5b7c\nsegment_1.15:000b5b80\nsegment_1.15:000b5b84\nsegment_1.15:000b5b88\nsegment_1.15:000b5b8c\nsegment_1.15:000b5b90\nsegment_1.15:000b5b94\nsegment_1.15:000b5b98\nsegment_1.15:000b5b9c\nsegment_1.15:000b5ba0\nsegment_1.15:000b5ba4\nsegment_1.15:000b5ba8\nsegment_1.15:000b5bac\nsegment_1.15:000b5bb0\nsegment_1.15:000b5bb4\nsegment_1.15:000b5bb8\nsegment_1.15:000b5bbc\nsegment_1.15:000b5bc0\nsegment_1.15:000b5bc4\nsegment_1.15:000b5bc8\nsegment_1.15:000b5bcc\nsegment_1.15:000b5bd0\nsegment_1.15:000b5bd4\nsegment_1.15:000b5bd8\nsegment_1.15:000b5bdc\nsegment_1.15:000b5be0\nsegment_1.15:000b5be4\nsegment_1.15:000b5be8\nsegment_1.15:000b5bec\nsegment_1.15:000b5bf0\nsegment_1.15:000b5bf4\nsegment_1.15:000b5bf8\nsegment_1.15:000b5bfc\nsegment_1.15:000b5c00\nsegment_1.15:000b5c04\nsegment_1.15:000b5c08\nsegment_1.15:000b5c0c\nsegment_1.15:000b5c10\nsegment_1.15:000b5c14\nsegment_1.15:000b5c18\nsegment_1.15:000b5c1c\nsegment_1.15:000b5c20\nsegment_1.15:000b5c24\nsegment_1.15:000b5c28\nsegment_1.15:000b5c2c\nsegment_1.15:000b5c30\nsegment_1.15:000b5c34\nsegment_1.15:000b5c38\nsegment_1.15:000b5c3c\nsegment_1.15:000b5c40\nsegment_1.15:000b5c44\nsegment_1.15:000b5c48\nsegment_1.15:000b5c4c\nsegment_1.15:000b5c50\nsegment_1.15:000b5c54\nsegment_1.15:000b5c58\nsegment_1.15:000b5c5c\nsegment_1.15:000b5c60\nsegment_1.15:000b5c64\nsegment_1.15:000b5c68\nsegment_1.15:000b5c6c\nsegment_1.15:000b5c70\nsegment_1.15:000b5c74\nsegment_1.15:000b5c78\nsegment_1.15:000b5c7c\nsegment_1.15:000b5c80\nsegment_1.15:000b5c84\nsegment_1.15:000b5c88\nsegment_1.15:000b5c8c\nsegment_1.15:000b5c90\nsegment_1.15:000b5c94\nsegment_1.15:000b5c98\nsegment_1.15:000b5c9c\nsegment_1.15:000b5ca0\nsegment_1.15:000b5ca4\nsegment_1.15:000b5ca8\nsegment_1.15:000b5cac\nsegment_1.15:000b5cb0\nsegment_1.15:000b5cb4\nsegment_1.15:000b5cb8\nsegment_1.15:000b5cbc\nsegment_1.15:000b5cc0\nsegment_1.15:000b5cc4\nsegment_1.15:000b5cc8\nsegment_1.15:000b5ccc\nsegment_1.15:000b5cd0\nsegment_1.15:000b5cd4\nsegment_1.15:000b5cd8\nsegment_1.15:000b5cdc\nsegment_1.15:000b5ce0\nsegment_1.15:000b5ce4\nsegment_1.15:000b5ce8\nsegment_1.15:000b5cec\nsegment_1.15:000b5cf0\nsegment_1.15:000b5cf4\nsegment_1.15:000b5cf8\nsegment_1.15:000b5cfc\nsegment_1.15:000b5d00\nsegment_1.15:000b5d04\nsegment_1.15:000b5d08\nsegment_1.15:000b5d0c\nsegment_1.15:000b5d10\nsegment_1.15:000b5d14\nsegment_1.15:000b5d18\nsegment_1.15:000b5d1c\nsegment_1.15:000b5d20\nsegment_1.15:000b5d24\nsegment_1.15:000b5d28\nsegment_1.15:000b5d2c\nsegment_1.15:000b5d30\nsegment_1.15:000b5d34\nsegment_1.15:000b5d38\nsegment_1.15:000b5d3c\nsegment_1.15:000b5d40\nsegment_1.15:000b5d44\nsegment_1.15:000b5d48\nsegment_1.15:000b5d4c\nsegment_1.15:000b5d50\nsegment_1.15:000b5d54\nsegment_1.15:000b5d58\nsegment_1.15:000b5d5c\nsegment_1.15:000b5d60\nsegment_1.15:000b5d64\nsegment_1.15:000b5d68\nsegment_1.15:000b5d6c\nsegment_1.15:000b5d70\nsegment_1.15:000b5d74\nsegment_1.15:000b5d78\nsegment_1.15:000b5d7c\nsegment_1.15:000b5d80\nsegment_1.15:000b5d84\nsegment_1.15:000b5d88\nsegment_1.15:000b5d8c\nsegment_1.15:000b5d90\nsegment_1.15:000b5d94\nsegment_1.15:000b5d98\nsegment_1.15:000b5d9c\nsegment_1.15:000b5da0\nsegment_1.15:000b5da4\nsegment_1.15:000b5da8\nsegment_1.15:000b5dac\nsegment_1.15:000b5db0\nsegment_1.15:000b5db4\nsegment_1.15:000b5db8\nsegment_1.15:000b5dbc\nsegment_1.15:000b5dc0\nsegment_1.15:000b5dc4\nsegment_1.15:000b5dc8\nsegment_1.15:000b5dcc\nsegment_1.15:000b5dd0\nsegment_1.15:000b5dd4\nsegment_1.15:000b5dd8\nsegment_1.15:000b5ddc\nsegment_1.15:000b5de0\nsegment_1.15:000b5de4\nsegment_1.15:000b5de8\nsegment_1.15:000b5dec\nsegment_1.15:000b5df0\nsegment_1.15:000b5df4\nsegment_1.15:000b5df8\nsegment_1.15:000b5dfc\nsegment_1.15:000b5e00\nsegment_1.15:000b5e04\nsegment_1.15:000b5e08\nsegment_1.15:000b5e0c\nsegment_1.15:000b5e10\nsegment_1.15:000b5e14\nsegment_1.15:000b5e18\nsegment_1.15:000b5e1c\nsegment_1.15:000b5e20\nsegment_1.15:000b5e24\nsegment_1.15:000b5e28\nsegment_1.15:000b5e2c\nsegment_1.15:000b5e30\nsegment_1.15:000b5e34\nsegment_1.15:000b5e38\nsegment_1.15:000b5e3c\nsegment_1.15:000b5e40\nsegment_1.15:000b5e44\nsegment_1.15:000b5e48\nsegment_1.15:000b5e4c\nsegment_1.15:000b5e50\nsegment_1.15:000b5e54\nsegment_1.15:000b5e58\nsegment_1.15:000b5e5c\nsegment_1.15:000b5e60\nsegment_1.15:000b5e64\nsegment_1.15:000b5e68\nsegment_1.15:000b5e6c\nsegment_1.15:000b5e70\nsegment_1.15:000b5e74\nsegment_1.15:000b5e78\nsegment_1.15:000b5e7c\nsegment_1.15:000b5e80\nsegment_1.15:000b5e84\nsegment_1.15:000b5e88\nsegment_1.15:000b5e8c\nsegment_1.15:000b5e90\nsegment_1.15:000b5e94\nsegment_1.15:000b5e98\nsegment_1.15:000b5e9c\nsegment_1.15:000b5ea0\nsegment_1.15:000b5ea4\nsegment_1.15:000b5ea8\nsegment_1.15:000b5eac\nsegment_1.15:000b5eb0\nsegment_1.15:000b5eb4\nsegment_1.15:000b5eb8\nsegment_1.15:000b5ebc\nsegment_1.15:000b5ec0\nsegment_1.15:000b5ec4\nsegment_1.15:000b5ec8\nsegment_1.15:000b5ecc\nsegment_1.15:000b5ed0\nsegment_1.15:000b5ed4\nsegment_1.15:000b5ed8\nsegment_1.15:000b5edc\nsegment_1.15:000b5ee0\nsegment_1.15:000b5ee4\nsegment_1.15:000b5ee8\nsegment_1.15:000b5eec\nsegment_1.15:000b5ef0\nsegment_1.15:000b5ef4\nsegment_1.15:000b5ef8\nsegment_1.15:000b5efc\nsegment_1.15:000b5f00\nsegment_1.15:000b5f04\nsegment_1.15:000b5f08\nsegment_1.15:000b5f0c\nsegment_1.15:000b5f10\nsegment_1.15:000b5f14\nsegment_1.15:000b5f18\nsegment_1.15:000b5f1c\nsegment_1.15:000b5f20\nsegment_1.15:000b5f24\nsegment_1.15:000b5f28\nsegment_1.15:000b5f2c\nsegment_1.15:000b5f30\nsegment_1.15:000b5f34\nsegment_1.15:000b5f38\nsegment_1.15:000b5f3c\nsegment_1.15:000b5f40\nsegment_1.15:000b5f44\nsegment_1.15:000b5f48\nsegment_1.15:000b5f4c\nsegment_1.15:000b5f50\nsegment_1.15:000b5f54\nsegment_1.15:000b5f58\nsegment_1.15:000b5f5c\nsegment_1.15:000b5f60\nsegment_1.15:000b5f64\nsegment_1.15:000b5f68\nsegment_1.15:000b5f6c\nsegment_1.15:000b5f70\nsegment_1.15:000b5f74\nsegment_1.15:000b5f78\nsegment_1.15:000b5f7c\nsegment_1.15:000b5f80\nsegment_1.15:000b5f84\nsegment_1.15:000b5f88\nsegment_1.15:000b5f8c\nsegment_1.15:000b5f90\nsegment_1.15:000b5f94\nsegment_1.15:000b5f98\nsegment_1.15:000b5f9c\nsegment_1.15:000b5fa0\nsegment_1.15:000b5fa4\nsegment_1.15:000b5fa8\nsegment_1.15:000b5fac\nsegment_1.15:000b5fb0\nsegment_1.15:000b5fb4\nsegment_1.15:000b5fb8\nsegment_1.15:000b5fbc\nsegment_1.15:000b5fc0\nsegment_1.15:000b5fc4\nsegment_1.15:000b5fc8\nsegment_1.15:000b5fcc\nsegment_1.15:000b5fd0\nsegment_1.15:000b5fd4\nsegment_1.15:000b5fd8\nsegment_1.15:000b5fdc\nsegment_1.15:000b5fe0\nsegment_1.15:000b5fe4\nsegment_1.15:000b5fe8\nsegment_1.15:000b5fec\nsegment_1.15:000b5ff0\nsegment_1.15:000b5ff4\nsegment_1.15:000b5ff8\nsegment_1.15:000b5ffc\nsegment_1.15:000b6000\nsegment_1.15:000b6004\nsegment_1.15:000b6008\nsegment_1.15:000b600c\nsegment_1.15:000b6010\nsegment_1.15:000b6014\nsegment_1.15:000b6018\nsegment_1.15:000b601c\nsegment_1.15:000b6020\nsegment_1.15:000b6024\nsegment_1.15:000b6028\nsegment_1.15:000b602c\nsegment_1.15:000b6030\nsegment_1.15:000b6034\nsegment_1.15:000b6038\nsegment_1.15:000b603c\nsegment_1.15:000b6040\nsegment_1.15:000b6044\nsegment_1.15:000b6048\nsegment_1.15:000b604c\nsegment_1.15:000b6050\nsegment_1.15:000b6054\nsegment_1.15:000b6058\nsegment_1.15:000b605c\nsegment_1.15:000b6060\nsegment_1.15:000b6064\nsegment_1.15:000b6068\nsegment_1.15:000b606c\nsegment_1.15:000b6070\nsegment_1.15:000b6074\nsegment_1.15:000b6078\nsegment_1.15:000b607c\nsegment_1.15:000b6080\nsegment_1.15:000b6084\nsegment_1.15:000b6088\nsegment_1.15:000b608c\nsegment_1.15:000b6090\nsegment_1.15:000b6094\nsegment_1.15:000b6098\nsegment_1.15:000b609c\nsegment_1.15:000b60a0\nsegment_1.15:000b60a4\nsegment_1.15:000b60a8\nsegment_1.15:000b60ac\nsegment_1.15:000b60b0\nsegment_1.15:000b60b4\nsegment_1.15:000b60b8\nsegment_1.15:000b60bc\nsegment_1.15:000b60c0\nsegment_1.15:000b60c4\nsegment_1.15:000b60c8\nsegment_1.15:000b60cc\nsegment_1.15:000b60d0\nsegment_1.15:000b60d4\nsegment_1.15:000b60d8\nsegment_1.15:000b60dc\nsegment_1.15:000b60e0\nsegment_1.15:000b60e4\nsegment_1.15:000b60e8\nsegment_1.15:000b60ec\nsegment_1.15:000b60f0\nsegment_1.15:000b60f4\nsegment_1.15:000b60f8\nsegment_1.15:000b60fc\nsegment_1.15:000b6100\nsegment_1.15:000b6104\nsegment_1.15:000b6108\nsegment_1.15:000b610c\nsegment_1.15:000b6110\nsegment_1.15:000b6114\nsegment_1.15:000b6118\nsegment_1.15:000b611c\nsegment_1.15:000b6120\nsegment_1.15:000b6124\nsegment_1.15:000b6128\nsegment_1.15:000b612c\nsegment_1.15:000b6130\nsegment_1.15:000b6134\nsegment_1.15:000b6138\nsegment_1.15:000b613c\nsegment_1.15:000b6140\nsegment_1.15:000b6144\nsegment_1.15:000b6148\nsegment_1.15:000b614c\nsegment_1.15:000b6150\nsegment_1.15:000b6154\nsegment_1.15:000b6158\nsegment_1.15:000b615c\nsegment_1.15:000b6160\nsegment_1.15:000b6164\nsegment_1.15:000b6168\nsegment_1.15:000b616c\nsegment_1.15:000b6170\nsegment_1.15:000b6174\nsegment_1.15:000b6178\nsegment_1.15:000b617c\nsegment_1.15:000b6180\nsegment_1.15:000b6184\nsegment_1.15:000b6188\nsegment_1.15:000b618c\nsegment_1.15:000b6190\nsegment_1.15:000b6194\nsegment_1.15:000b6198\nsegment_1.15:000b619c\nsegment_1.15:000b61a0\nsegment_1.15:000b61a4\nsegment_1.15:000b61a8\nsegment_1.15:000b61ac\nsegment_1.15:000b61b0\nsegment_1.15:000b61b4\nsegment_1.15:000b61b8\nsegment_1.15:000b61bc\nsegment_1.15:000b61c0\nsegment_1.15:000b61c4\nsegment_1.15:000b61c8\nsegment_1.15:000b61cc\nsegment_1.15:000b61d0\nsegment_1.15:000b61d4\nsegment_1.15:000b61d8\nsegment_1.15:000b61dc\n'
p76
tp77
s.