(dp0
S'register_tm_clones'
p1
(S'\n__stdcall register_tm_clones()\n'
p2
V\u000a/* WARNING: Removing unreachable block (ram,0x001009d0) */\u000a/* WARNING: Removing unreachable block (ram,0x001009e0) */\u000a/* register_tm_clones */\u000a\u000avoid register_tm_clones(void)\u000a\u000a{\u000a                    /* local function entry for global function register_tm_clones at {@address\u000a                       001009a0} */\u000a  return;\u000a}\u000a\u000a
p3
S'ori r0,r0,0x0\nori r0,r0,0x0\nstdu r1,-0x20(r1)\nsubi r3,r2,0x7e90\nsubi r4,r2,0x7e90\nsubf r4,r3,r4\nsradi r4,r4,0x3\nsradi r4,r4,0x1\naddze. r4,r4\nbeq 0x00100a04\nori r0,r0,0x0\nld r9,-0x7fe8(r2)\ncmpdi cr7,r9,0x0\nbeq cr7,0x00100a04\nmfspr r0,LR\nstd r2,0x18(r1)\nor r12,r9,r9\nmtspr CTR,r9\nstd r0,0x30(r1)\nbctrl\nld r2,0x18(r1)\nld r0,0x30(r1)\nmtspr LR,r0\naddi r1,r1,0x20\nblr\n'
p4
S'00 00 00 60\n00 00 00 60\ne1 ff 21 f8\n70 81 62 38\n70 81 82 38\n50 20 83 7c\n74 1e 84 7c\n74 0e 84 7c\n95 01 84 7c\n38 00 82 41\n00 00 00 60\n18 80 22 e9\n00 00 a9 2f\n28 00 9e 41\na6 02 08 7c\n18 00 41 f8\n78 4b 2c 7d\na6 03 29 7d\n30 00 01 f8\n21 04 80 4e\n18 00 41 e8\n30 00 01 e8\na6 03 08 7c\n20 00 21 38\n20 00 80 4e\n'
p5
S'.text:00000000001009a8\n.text:00000000001009ac\n.text:00000000001009b0\n.text:00000000001009b4\n.text:00000000001009b8\n.text:00000000001009bc\n.text:00000000001009c0\n.text:00000000001009c4\n.text:00000000001009c8\n.text:00000000001009cc\n.text:00000000001009d0\n.text:00000000001009d4\n.text:00000000001009d8\n.text:00000000001009dc\n.text:00000000001009e0\n.text:00000000001009e4\n.text:00000000001009e8\n.text:00000000001009ec\n.text:00000000001009f0\n.text:00000000001009f4\n.text:00000000001009f8\n.text:00000000001009fc\n.text:0000000000100a00\n.text:0000000000100a04\n.text:0000000000100a08\n'
p6
tp7
sS'0000001b.plt_call.__gmon_start__'
p8
(S'\n__stdcall 0000001b.plt_call.__gmon_start__()\n'
p9
V\u000avoid 0000001b_plt_call___gmon_start__(void)\u000a\u000a{\u000a  (*(code *)PTR___gmon_start___00120028)();\u000a  return;\u000a}\u000a\u000a
p10
S'std r2,0x18(r1)\nld r12,-0x7ed8(r2)\nmtspr CTR,r12\nbctr\n'
p11
S'18 00 41 f8\n28 81 82 e9\na6 03 89 7d\n20 04 80 4e\n'
p12
S'.init:0000000000100780\n.init:0000000000100784\n.init:0000000000100788\n.init:000000000010078c\n'
p13
tp14
sS'_init'
p15
(S'\n__stdcall _init(EVP_PKEY_CTX * ctx)\n'
p16
V\u000aint _init(EVP_PKEY_CTX *ctx)\u000a\u000a{\u000a  int iVar1;\u000a  \u000a  if (PTR___gmon_start___0011ff08 != (undefined *)0x0) {\u000a    0000001b_plt_call___gmon_start__((int)ctx);\u000a  }\u000a  frame_dummy();\u000a  iVar1 = __do_global_ctors_aux();\u000a  return iVar1;\u000a}\u000a\u000a
p17
S'addis r2,r12,0x2\naddi r2,r2,0x7760\n'
p18
S'02 00 4c 3c\n60 77 42 38\n'
p19
S'.init:00000000001007a0\n.init:00000000001007a4\n'
p20
tp21
sS'00000017.plt_call.getenv@@GLIBC_2.17'
p22
(S'\n__stdcall 00000017.plt_call.getenv@@GLIBC_2.17(char * __name)\n'
p23
V\u000a/* WARNING: Unknown calling convention yet parameter storage is locked */\u000a\u000achar * 00000017_plt_call_getenv__GLIBC_2_17(char *__name)\u000a\u000a{\u000a  char *pcVar1;\u000a  \u000a  pcVar1 = (char *)(*(code *)PTR_getenv_00120060)();\u000a  return pcVar1;\u000a}\u000a\u000a
p24
S'std r2,0x18(r1)\nld r12,-0x7ea0(r2)\nmtspr CTR,r12\nbctr\n'
p25
S'18 00 41 f8\n60 81 82 e9\na6 03 89 7d\n20 04 80 4e\n'
p26
S'.text:0000000000100920\n.text:0000000000100924\n.text:0000000000100928\n.text:000000000010092c\n'
p27
tp28
sS'00000017.plt_call.setvbuf@@GLIBC_2.17'
p29
(S'\n__stdcall 00000017.plt_call.setvbuf@@GLIBC_2.17(FILE * __stream, char * __buf, int __modes, size_t __n)\n'
p30
V\u000a/* WARNING: Unknown calling convention yet parameter storage is locked */\u000a\u000aint 00000017_plt_call_setvbuf__GLIBC_2_17(FILE *__stream,char *__buf,int __modes,size_t __n)\u000a\u000a{\u000a  int iVar1;\u000a  \u000a  iVar1 = (*(code *)PTR_setvbuf_00120018)((int)__stream);\u000a  return iVar1;\u000a}\u000a\u000a
p31
S'std r2,0x18(r1)\nld r12,-0x7ee8(r2)\nmtspr CTR,r12\nbctr\n'
p32
S'18 00 41 f8\n18 81 82 e9\na6 03 89 7d\n20 04 80 4e\n'
p33
S'.text:0000000000100820\n.text:0000000000100824\n.text:0000000000100828\n.text:000000000010082c\n'
p34
tp35
sS'00000017.plt_call.dcgettext@@GLIBC_2.17'
p36
(S'\n__stdcall 00000017.plt_call.dcgettext@@GLIBC_2.17()\n'
p37
V\u000avoid 00000017_plt_call_dcgettext__GLIBC_2_17(void)\u000a\u000a{\u000a  (*(code *)PTR_dcgettext_00120058)();\u000a  return;\u000a}\u000a\u000a
p38
S'std r2,0x18(r1)\nld r12,-0x7ea8(r2)\nmtspr CTR,r12\nbctr\n'
p39
S'18 00 41 f8\n58 81 82 e9\na6 03 89 7d\n20 04 80 4e\n'
p40
S'.text:0000000000100840\n.text:0000000000100844\n.text:0000000000100848\n.text:000000000010084c\n'
p41
tp42
sS'apply_mode'
p43
(S'\n__stdcall apply_mode()\n'
p44
V\u000a/* apply_mode */\u000a\u000avoid apply_mode(FILE *pFParm1,char *pcParm2)\u000a\u000a{\u000a  int __modes;\u000a  ulong __n;\u000a  undefined8 uVar1;\u000a  undefined8 uVar2;\u000a  char *__buf;\u000a  undefined8 uVar3;\u000a  longlong local_78;\u000a  \u000a                    /* local function entry for global function apply_mode at {@address 00100ba8} */\u000a  if (*pcParm2 == '0') {\u000a    __n = 0;\u000a    __modes = 2;\u000a    __buf = (char *)0x0;\u000a  }\u000a  else {\u000a    if (*pcParm2 == 'L') {\u000a      __n = 0;\u000a      __modes = 1;\u000a      __buf = (char *)0x0;\u000a    }\u000a    else {\u000a      __n = 00000017_plt_call_strtoul__GLIBC_2_17(pcParm2,(char **)0x0,10);\u000a      if (__n == 0) {\u000a        uVar3 = **(undefined8 **)(local_78 + -0x7fd0);\u000a        uVar1 = 00000017_plt_call_dcgettext__GLIBC_2_17(0,local_78 + -0x26f40,5);\u000a        __modes = 00000017_plt_call_fileno__GLIBC_2_17(pFParm1);\u000a        uVar2 = fileno_to_name((longlong)__modes);\u000a        entry(uVar3,1,uVar1,pcParm2,uVar2);\u000a        return;\u000a      }\u000a      __buf = (char *)00000017_plt_call_rpl_malloc((ulonglong)__n);\u000a      if (__buf == (char *)0x0) {\u000a        uVar2 = **(undefined8 **)(local_78 + -0x7fd0);\u000a        uVar1 = 00000017_plt_call_dcgettext__GLIBC_2_17(0,local_78 + -0x26f70,5);\u000a        entry(uVar2,1,uVar1,(ulonglong)__n);\u000a        return;\u000a      }\u000a      __modes = 0;\u000a    }\u000a  }\u000a  __modes = 00000017_plt_call_setvbuf__GLIBC_2_17(pFParm1,__buf,__modes,__n);\u000a  if (__modes != 0) {\u000a    uVar3 = **(undefined8 **)(local_78 + -0x7fd0);\u000a    uVar1 = 00000017_plt_call_dcgettext__GLIBC_2_17(0,local_78 + -0x26f18,5);\u000a    __modes = 00000017_plt_call_fileno__GLIBC_2_17(pFParm1);\u000a    uVar2 = fileno_to_name((longlong)__modes);\u000a    entry(uVar3,1,uVar1,uVar2,pcParm2);\u000a    00000017_plt_call_free__GLIBC_2_17(__buf);\u000a  }\u000a  return;\u000a}\u000a\u000a
p45
S'mfspr r0,LR\nstd r0,0x10(r1)\nstd r28,-0x20(r1)\nstd r29,-0x18(r1)\nstd r30,-0x10(r1)\nstd r31,-0x8(r1)\nstdu r1,-0x90(r1)\nor r30,r3,r3\nor r31,r4,r4\nlbz r9,0x0(r4)\ncmplwi cr7,r9,0x30\nbeq cr7,0x00100cfc\ncmplwi cr7,r9,0x4c\nbne cr7,0x00100c30\nli r29,0x0\nli r5,0x1\nli r28,0x0\nor r6,r29,r29\nor r4,r28,r28\nor r3,r30,r30\nbl 0x00100820\nld r2,0x18(r1)\ncmpdi cr7,r3,0x0\nbne cr7,0x00100d0c\naddi r1,r1,0x90\nld r0,0x10(r1)\nmtspr LR,r0\nld r28,-0x20(r1)\nld r29,-0x18(r1)\nld r30,-0x10(r1)\nld r31,-0x8(r1)\nblr\nli r5,0xa\nli r4,0x0\nor r3,r31,r31\nbl 0x001008e0\nld r2,0x18(r1)\nor. r29,r3,r3\nbeq 0x00100ca4\nor r3,r29,r29\nbl 0x00100900\nld r2,0x18(r1)\nor. r28,r3,r3\nbeq 0x00100c68\nli r5,0x0\nb 0x00100bf4\nori r0,r0,0x0\nld r9,-0x7fd0(r2)\nld r31,0x0(r9)\nli r5,0x5\nsubis r4,r2,0x2\nsubi r4,r4,0x6f70\nbl 0x00100840\nld r2,0x18(r1)\nor r6,r29,r29\nor r5,r3,r3\nli r4,0x1\nor r3,r31,r31\nbl 0x00100800\nld r2,0x18(r1)\nb 0x00100c10\nori r0,r0,0x0\nld r9,-0x7fd0(r2)\nld r29,0x0(r9)\nli r5,0x5\nsubis r4,r2,0x2\nsubi r4,r4,0x6f40\nli r3,0x0\nbl 0x00100840\nld r2,0x18(r1)\nor r28,r3,r3\nor r3,r30,r30\nbl 0x00100860\nld r2,0x18(r1)\nbl 0x00100b54\nor r7,r3,r3\nor r6,r31,r31\nor r5,r28,r28\nli r4,0x1\nor r3,r29,r29\nbl 0x00100800\nld r2,0x18(r1)\nb 0x00100c10\nli r29,0x0\nli r5,0x2\nli r28,0x0\nb 0x00100bf4\nstd r27,0x68(r1)\nori r0,r0,0x0\nld r9,-0x7fd0(r2)\nld r29,0x0(r9)\nli r5,0x5\nsubis r4,r2,0x2\nsubi r4,r4,0x6f18\nli r3,0x0\nbl 0x00100840\nld r2,0x18(r1)\nor r27,r3,r3\nor r3,r30,r30\nbl 0x00100860\nld r2,0x18(r1)\nbl 0x00100b54\nor r7,r31,r31\nor r6,r3,r3\nor r5,r27,r27\nli r4,0x1\nor r3,r29,r29\nbl 0x00100800\nld r2,0x18(r1)\nor r3,r28,r28\nbl 0x00100880\nld r2,0x18(r1)\nld r27,0x68(r1)\nb 0x00100c10\n'
p46
S'a6 02 08 7c\n10 00 01 f8\ne0 ff 81 fb\ne8 ff a1 fb\nf0 ff c1 fb\nf8 ff e1 fb\n71 ff 21 f8\n78 1b 7e 7c\n78 23 9f 7c\n00 00 24 89\n30 00 89 2b\n20 01 9e 41\n4c 00 89 2b\n4c 00 9e 40\n00 00 a0 3b\n01 00 a0 38\n00 00 80 3b\n78 eb a6 7f\n78 e3 84 7f\n78 f3 c3 7f\n21 fc ff 4b\n18 00 41 e8\n00 00 a3 2f\n00 01 9e 40\n90 00 21 38\n10 00 01 e8\na6 03 08 7c\ne0 ff 81 eb\ne8 ff a1 eb\nf0 ff c1 eb\nf8 ff e1 eb\n20 00 80 4e\n0a 00 a0 38\n00 00 80 38\n78 fb e3 7f\na5 fc ff 4b\n18 00 41 e8\n79 1b 7d 7c\n5c 00 82 41\n78 eb a3 7f\nb1 fc ff 4b\n18 00 41 e8\n79 1b 7c 7c\n0c 00 82 41\n00 00 a0 38\n90 ff ff 4b\n00 00 00 60\n30 80 22 e9\n00 00 e9 eb\n05 00 a0 38\nfe ff 82 3c\n90 90 84 38\nc1 fb ff 4b\n18 00 41 e8\n78 eb a6 7f\n78 1b 65 7c\n01 00 80 38\n78 fb e3 7f\n69 fb ff 4b\n18 00 41 e8\n70 ff ff 4b\n00 00 00 60\n30 80 22 e9\n00 00 a9 eb\n05 00 a0 38\nfe ff 82 3c\nc0 90 84 38\n00 00 60 38\n81 fb ff 4b\n18 00 41 e8\n78 1b 7c 7c\n78 f3 c3 7f\n91 fb ff 4b\n18 00 41 e8\n7d fe ff 4b\n78 1b 67 7c\n78 fb e6 7f\n78 e3 85 7f\n01 00 80 38\n78 eb a3 7f\n11 fb ff 4b\n18 00 41 e8\n18 ff ff 4b\n00 00 a0 3b\n02 00 a0 38\n00 00 80 3b\nec fe ff 4b\n68 00 61 fb\n00 00 00 60\n30 80 22 e9\n00 00 a9 eb\n05 00 a0 38\nfe ff 82 3c\ne8 90 84 38\n00 00 60 38\n15 fb ff 4b\n18 00 41 e8\n78 1b 7b 7c\n78 f3 c3 7f\n25 fb ff 4b\n18 00 41 e8\n11 fe ff 4b\n78 fb e7 7f\n78 1b 66 7c\n78 db 65 7f\n01 00 80 38\n78 eb a3 7f\na5 fa ff 4b\n18 00 41 e8\n78 e3 83 7f\n19 fb ff 4b\n18 00 41 e8\n68 00 61 eb\n9c fe ff 4b\n'
p47
S'.text:0000000000100bb0\n.text:0000000000100bb4\n.text:0000000000100bb8\n.text:0000000000100bbc\n.text:0000000000100bc0\n.text:0000000000100bc4\n.text:0000000000100bc8\n.text:0000000000100bcc\n.text:0000000000100bd0\n.text:0000000000100bd4\n.text:0000000000100bd8\n.text:0000000000100bdc\n.text:0000000000100be0\n.text:0000000000100be4\n.text:0000000000100be8\n.text:0000000000100bec\n.text:0000000000100bf0\n.text:0000000000100bf4\n.text:0000000000100bf8\n.text:0000000000100bfc\n.text:0000000000100c00\n.text:0000000000100c04\n.text:0000000000100c08\n.text:0000000000100c0c\n.text:0000000000100c10\n.text:0000000000100c14\n.text:0000000000100c18\n.text:0000000000100c1c\n.text:0000000000100c20\n.text:0000000000100c24\n.text:0000000000100c28\n.text:0000000000100c2c\n.text:0000000000100c30\n.text:0000000000100c34\n.text:0000000000100c38\n.text:0000000000100c3c\n.text:0000000000100c40\n.text:0000000000100c44\n.text:0000000000100c48\n.text:0000000000100c4c\n.text:0000000000100c50\n.text:0000000000100c54\n.text:0000000000100c58\n.text:0000000000100c5c\n.text:0000000000100c60\n.text:0000000000100c64\n.text:0000000000100c68\n.text:0000000000100c6c\n.text:0000000000100c70\n.text:0000000000100c74\n.text:0000000000100c78\n.text:0000000000100c7c\n.text:0000000000100c80\n.text:0000000000100c84\n.text:0000000000100c88\n.text:0000000000100c8c\n.text:0000000000100c90\n.text:0000000000100c94\n.text:0000000000100c98\n.text:0000000000100c9c\n.text:0000000000100ca0\n.text:0000000000100ca4\n.text:0000000000100ca8\n.text:0000000000100cac\n.text:0000000000100cb0\n.text:0000000000100cb4\n.text:0000000000100cb8\n.text:0000000000100cbc\n.text:0000000000100cc0\n.text:0000000000100cc4\n.text:0000000000100cc8\n.text:0000000000100ccc\n.text:0000000000100cd0\n.text:0000000000100cd4\n.text:0000000000100cd8\n.text:0000000000100cdc\n.text:0000000000100ce0\n.text:0000000000100ce4\n.text:0000000000100ce8\n.text:0000000000100cec\n.text:0000000000100cf0\n.text:0000000000100cf4\n.text:0000000000100cf8\n.text:0000000000100cfc\n.text:0000000000100d00\n.text:0000000000100d04\n.text:0000000000100d08\n.text:0000000000100d0c\n.text:0000000000100d10\n.text:0000000000100d14\n.text:0000000000100d18\n.text:0000000000100d1c\n.text:0000000000100d20\n.text:0000000000100d24\n.text:0000000000100d28\n.text:0000000000100d2c\n.text:0000000000100d30\n.text:0000000000100d34\n.text:0000000000100d38\n.text:0000000000100d3c\n.text:0000000000100d40\n.text:0000000000100d44\n.text:0000000000100d48\n.text:0000000000100d4c\n.text:0000000000100d50\n.text:0000000000100d54\n.text:0000000000100d58\n.text:0000000000100d5c\n.text:0000000000100d60\n.text:0000000000100d64\n.text:0000000000100d68\n.text:0000000000100d6c\n.text:0000000000100d70\n.text:0000000000100d74\n'
p48
tp49
sS'00000017.plt_call.free@@GLIBC_2.17'
p50
(S'\n__stdcall 00000017.plt_call.free@@GLIBC_2.17(void * __ptr)\n'
p51
V\u000a/* WARNING: Unknown calling convention yet parameter storage is locked */\u000a\u000avoid 00000017_plt_call_free__GLIBC_2_17(void *__ptr)\u000a\u000a{\u000a  (*(code *)PTR_free_00120040)();\u000a  return;\u000a}\u000a\u000a
p52
S'std r2,0x18(r1)\nld r12,-0x7ec0(r2)\nmtspr CTR,r12\nbctr\n'
p53
S'18 00 41 f8\n40 81 82 e9\na6 03 89 7d\n20 04 80 4e\n'
p54
S'.text:0000000000100880\n.text:0000000000100884\n.text:0000000000100888\n.text:000000000010088c\n'
p55
tp56
sS'._init'
p57
(S'\n__stdcall ._init(EVP_PKEY_CTX * ctx)\n'
p58
V\u000aint __init(EVP_PKEY_CTX *ctx)\u000a\u000a{\u000a  int iVar1;\u000a  \u000a                    /* local function entry for global function _init at {@address 001007a0} */\u000a  if (PTR___gmon_start___0011ff08 != (undefined *)0x0) {\u000a    0000001b_plt_call___gmon_start__((int)ctx);\u000a  }\u000a  frame_dummy();\u000a  iVar1 = __do_global_ctors_aux();\u000a  return iVar1;\u000a}\u000a\u000a
p59
S'mfspr r0,LR\nstd r0,0x10(r1)\nstdu r1,-0x60(r1)\nori r0,r0,0x0\nld r0,-0x7ff8(r2)\ncmpdi cr7,r0,0x0\nbeq cr7,0x001007cc\nbl 0x00100780\nld r2,0x18(r1)\nbl 0x00100b08\nori r0,r0,0x0\nbl 0x00100e68\nori r0,r0,0x0\naddi r1,r1,0x60\nld r0,0x10(r1)\nmtspr LR,r0\nblr\n'
p60
S'a6 02 08 7c\n10 00 01 f8\na1 ff 21 f8\n00 00 00 60\n08 80 02 e8\n00 00 a0 2f\n0c 00 fe 41\nbd ff ff 4b\n18 00 41 e8\n3d 03 00 48\n00 00 00 60\n95 06 00 48\n00 00 00 60\n60 00 21 38\n10 00 01 e8\na6 03 08 7c\n20 00 80 4e\n'
p61
S'.init:00000000001007a8\n.init:00000000001007ac\n.init:00000000001007b0\n.init:00000000001007b4\n.init:00000000001007b8\n.init:00000000001007bc\n.init:00000000001007c0\n.init:00000000001007c4\n.init:00000000001007c8\n.init:00000000001007cc\n.init:00000000001007d0\n.init:00000000001007d4\n.init:00000000001007d8\n.init:00000000001007dc\n.init:00000000001007e0\n.init:00000000001007e4\n.init:00000000001007e8\n'
p62
tp63
sS'00000017.plt_call.__register_frame_info'
p64
(S'\n__stdcall 00000017.plt_call.__register_frame_info()\n'
p65
V\u000avoid 00000017_plt_call___register_frame_info(void)\u000a\u000a{\u000a  (*(code *)PTR___register_frame_info_00120050)();\u000a  return;\u000a}\u000a\u000a
p66
S'std r2,0x18(r1)\nld r12,-0x7eb0(r2)\nmtspr CTR,r12\nbctr\n'
p67
S'18 00 41 f8\n50 81 82 e9\na6 03 89 7d\n20 04 80 4e\n'
p68
S'.text:00000000001008a0\n.text:00000000001008a4\n.text:00000000001008a8\n.text:00000000001008ac\n'
p69
tp70
sS'__glink_PLTresolve'
p71
(S'\n__stdcall __glink_PLTresolve()\n'
p72
V\u000avoid __glink_PLTresolve(void)\u000a\u000a{\u000a                    /* WARNING: Could not recover jumptable at 0x00100f14. Too many branches */\u000a                    /* WARNING: Treating indirect jump as call */\u000a  (**(code **)(DAT_00100ed8 + 0x100ee8))();\u000a  return;\u000a}\u000a\u000a
p73
S'mfspr r0,LR\nbl 0x00100ee8\nmfspr r11,LR\nstd r2,0x18(r1)\nld r2,-0x10(r11)\nmtspr LR,r0\nsubf r12,r11,r12\nadd r11,r2,r11\nsubi r0,r12,0x30\nld r12,0x0(r11)\nrldicl r0,r0,0x3e,0x2\nmtspr CTR,r12\nld r11,0x8(r11)\nbctr\n'
p74
S'a6 02 08 7c\n05 00 9f 42\na6 02 68 7d\n18 00 41 f8\nf0 ff 4b e8\na6 03 08 7c\n50 60 8b 7d\n14 5a 62 7d\nd0 ff 0c 38\n00 00 8b e9\n82 f0 00 78\na6 03 89 7d\n08 00 6b e9\n20 04 80 4e\n'
p75
S'.text:0000000000100ee0\n.text:0000000000100ee4\n.text:0000000000100ee8\n.text:0000000000100eec\n.text:0000000000100ef0\n.text:0000000000100ef4\n.text:0000000000100ef8\n.text:0000000000100efc\n.text:0000000000100f00\n.text:0000000000100f04\n.text:0000000000100f08\n.text:0000000000100f0c\n.text:0000000000100f10\n.text:0000000000100f14\n'
p76
tp77
sS'00000017.plt_call.rpl_malloc'
p78
(S'\n__stdcall 00000017.plt_call.rpl_malloc()\n'
p79
V\u000avoid 00000017_plt_call_rpl_malloc(void)\u000a\u000a{\u000a  (*(code *)PTR_rpl_malloc_00120038)();\u000a  return;\u000a}\u000a\u000a
p80
S'std r2,0x18(r1)\nld r12,-0x7ec8(r2)\nmtspr CTR,r12\nbctr\n'
p81
S'18 00 41 f8\n38 81 82 e9\na6 03 89 7d\n20 04 80 4e\n'
p82
S'.text:0000000000100900\n.text:0000000000100904\n.text:0000000000100908\n.text:000000000010090c\n'
p83
tp84
sS'deregister_tm_clones'
p85
(S'\n__stdcall deregister_tm_clones()\n'
p86
V\u000a/* WARNING: Removing unreachable block (ram,0x00100964) */\u000a/* WARNING: Removing unreachable block (ram,0x00100974) */\u000a/* deregister_tm_clones */\u000a\u000avoid deregister_tm_clones(void)\u000a\u000a{\u000a                    /* local function entry for global function deregister_tm_clones at {@address\u000a                       00100940} */\u000a  return;\u000a}\u000a\u000a
p87
S'ori r0,r0,0x0\nori r0,r0,0x0\nstdu r1,-0x20(r1)\nsubi r3,r2,0x7e90\nsubi r9,r2,0x7e90\ncmpd cr7,r9,r3\nbeq cr7,0x00100998\nori r0,r0,0x0\nld r9,-0x7ff0(r2)\ncmpdi cr7,r9,0x0\nbeq cr7,0x00100998\nmfspr r0,LR\nstd r2,0x18(r1)\nor r12,r9,r9\nmtspr CTR,r9\nstd r0,0x30(r1)\nbctrl\nld r2,0x18(r1)\nld r0,0x30(r1)\nmtspr LR,r0\naddi r1,r1,0x20\nblr\n'
p88
S'00 00 00 60\n00 00 00 60\ne1 ff 21 f8\n70 81 62 38\n70 81 22 39\n00 18 a9 7f\n38 00 9e 41\n00 00 00 60\n10 80 22 e9\n00 00 a9 2f\n28 00 9e 41\na6 02 08 7c\n18 00 41 f8\n78 4b 2c 7d\na6 03 29 7d\n30 00 01 f8\n21 04 80 4e\n18 00 41 e8\n30 00 01 e8\na6 03 08 7c\n20 00 21 38\n20 00 80 4e\n'
p89
S'.text:0000000000100948\n.text:000000000010094c\n.text:0000000000100950\n.text:0000000000100954\n.text:0000000000100958\n.text:000000000010095c\n.text:0000000000100960\n.text:0000000000100964\n.text:0000000000100968\n.text:000000000010096c\n.text:0000000000100970\n.text:0000000000100974\n.text:0000000000100978\n.text:000000000010097c\n.text:0000000000100980\n.text:0000000000100984\n.text:0000000000100988\n.text:000000000010098c\n.text:0000000000100990\n.text:0000000000100994\n.text:0000000000100998\n.text:000000000010099c\n'
p90
tp91
sS'fileno_to_name'
p92
(S'\n__stdcall fileno_to_name()\n'
p93
V\u000a/* fileno_to_name */\u000a\u000achar * fileno_to_name(int iParm1)\u000a\u000a{\u000a                    /* local function entry for global function fileno_to_name at {@address\u000a                       00100b4c} */\u000a  if (iParm1 == 1) {\u000a    return "stdout";\u000a  }\u000a  if (iParm1 != 2) {\u000a    if (iParm1 != 0) {\u000a      return "unknown";\u000a    }\u000a    return "stdin";\u000a  }\u000a  return "stderr";\u000a}\u000a\u000a
p94
S'cmpwi cr7,r3,0x1\nbeq cr7,0x00100b90\ncmpwi cr7,r3,0x2\nbeq cr7,0x00100b84\ncmpwi cr7,r3,0x0\nbeq cr7,0x00100b78\nsubis r3,r2,0x2\nsubi r3,r3,0x6f78\nblr\nsubis r3,r2,0x2\nsubi r3,r3,0x6f90\nblr\nsubis r3,r2,0x2\nsubi r3,r3,0x6f80\nblr\nsubis r3,r2,0x2\nsubi r3,r3,0x6f88\nblr\n'
p95
S'01 00 83 2f\n38 00 9e 41\n02 00 83 2f\n24 00 9e 41\n00 00 83 2f\n10 00 9e 41\nfe ff 62 3c\n88 90 63 38\n20 00 80 4e\nfe ff 62 3c\n70 90 63 38\n20 00 80 4e\nfe ff 62 3c\n80 90 63 38\n20 00 80 4e\nfe ff 62 3c\n78 90 63 38\n20 00 80 4e\n'
p96
S'.text:0000000000100b54\n.text:0000000000100b58\n.text:0000000000100b5c\n.text:0000000000100b60\n.text:0000000000100b64\n.text:0000000000100b68\n.text:0000000000100b6c\n.text:0000000000100b70\n.text:0000000000100b74\n.text:0000000000100b78\n.text:0000000000100b7c\n.text:0000000000100b80\n.text:0000000000100b84\n.text:0000000000100b88\n.text:0000000000100b8c\n.text:0000000000100b90\n.text:0000000000100b94\n.text:0000000000100b98\n'
p97
tp98
sS'entry'
p99
(S'\n__stdcall entry()\n'
p100
V\u000avoid entry(void)\u000a\u000a{\u000a  (*(code *)PTR___fprintf_chk_00120030)();\u000a  return;\u000a}\u000a\u000a
p101
S'std r2,0x18(r1)\nld r12,-0x7ed0(r2)\nmtspr CTR,r12\nbctr\n'
p102
S'18 00 41 f8\n30 81 82 e9\na6 03 89 7d\n20 04 80 4e\n'
p103
S'.text:0000000000100800\n.text:0000000000100804\n.text:0000000000100808\n.text:000000000010080c\n'
p104
tp105
sS'00000017.plt_call.strtoul@@GLIBC_2.17'
p106
(S'\n__stdcall 00000017.plt_call.strtoul@@GLIBC_2.17(char * __nptr, char * * __endptr, int __base)\n'
p107
V\u000a/* WARNING: Unknown calling convention yet parameter storage is locked */\u000a\u000aulong 00000017_plt_call_strtoul__GLIBC_2_17(char *__nptr,char **__endptr,int __base)\u000a\u000a{\u000a  ulong uVar1;\u000a  \u000a  uVar1 = (*(code *)PTR_strtoul_00120010)((int)__nptr);\u000a  return uVar1;\u000a}\u000a\u000a
p108
S'std r2,0x18(r1)\nld r12,-0x7ef0(r2)\nmtspr CTR,r12\nbctr\n'
p109
S'18 00 41 f8\n10 81 82 e9\na6 03 89 7d\n20 04 80 4e\n'
p110
S'.text:00000000001008e0\n.text:00000000001008e4\n.text:00000000001008e8\n.text:00000000001008ec\n'
p111
tp112
sS'__do_global_dtors_aux'
p113
(S'\n__stdcall __do_global_dtors_aux()\n'
p114
V\u000a/* WARNING: Removing unreachable block (ram,0x00100a70) */\u000a/* WARNING: Removing unreachable block (ram,0x00100a80) */\u000a/* WARNING: Removing unreachable block (ram,0x00100ab0) */\u000a/* __do_global_dtors_aux */\u000a\u000avoid __do_global_dtors_aux(void)\u000a\u000a{\u000a  undefined *puVar1;\u000a  undefined *local_28;\u000a  \u000a                    /* local function entry for global function __do_global_dtors_aux at {@address\u000a                       00100a10} */\u000a  if (completed_9107 == 0) {\u000a    deregister_tm_clones();\u000a    puVar1 = &_TOC_;\u000a    if (PTR___deregister_frame_info_0011ff20 != (undefined *)0x0) {\u000a      00000017_plt_call___deregister_frame_info(&__FRAME_END__);\u000a      puVar1 = local_28;\u000a    }\u000a    puVar1[-0x7e90] = 1;\u000a  }\u000a  return;\u000a}\u000a\u000a
p115
S'ori r0,r0,0x0\nlbz r9,-0x7e90(r2)\nstdu r1,-0x40(r1)\ncmpwi cr7,r9,0x0\nbne cr7,0x00100af4\nmfspr r0,LR\nstd r31,0x38(r1)\nsubis r10,r2,0x1\nori r0,r0,0x0\nld r9,-0x7e88(r2)\nsubis r31,r2,0x1\naddi r10,r10,0x7e38\nstd r29,0x28(r1)\naddi r31,r31,0x7e30\nsubis r29,r2,0x1\nsubf r31,r31,r10\naddi r29,r29,0x7e30\nsradi r31,r31,0x3\nsubi r31,r31,0x1\nstd r0,0x50(r1)\ncmpld cr7,r9,r31\nbge cr7,0x00100ab4\nstd r30,0x30(r1)\nori r0,r0,0x0\nsubi r30,r2,0x7e88\nori r2,r2,0x0\naddi r9,r9,0x1\nrldicr r10,r9,0x3,0x3c\nstd r9,0x0(r30)\nldx r9,r29,r10\nstd r2,0x18(r1)\nmtspr CTR,r9\nor r12,r9,r9\nbctrl\nld r2,0x18(r1)\nld r9,0x0(r30)\ncmpld cr7,r9,r31\nblt cr7,0x00100a80\nld r30,0x30(r1)\nbl 0x00100948\nori r0,r0,0x0\nld r9,-0x7fe0(r2)\ncmpdi cr7,r9,0x0\nbeq cr7,0x00100ad8\nsubis r3,r2,0x2\nsubi r3,r3,0x6e64\nbl 0x001008c0\nld r2,0x18(r1)\nld r0,0x50(r1)\nli r9,0x1\nori r0,r0,0x0\nld r29,0x28(r1)\nld r31,0x38(r1)\nstb r9,-0x7e90(r2)\nmtspr LR,r0\naddi r1,r1,0x40\nblr\n'
p116
S'00 00 00 60\n70 81 22 89\nc1 ff 21 f8\n00 00 89 2f\ncc 00 9e 40\na6 02 08 7c\n38 00 e1 fb\nff ff 42 3d\n00 00 00 60\n78 81 22 e9\nff ff e2 3f\n38 7e 4a 39\n28 00 a1 fb\n30 7e ff 3b\nff ff a2 3f\n50 50 ff 7f\n30 7e bd 3b\n74 1e ff 7f\nff ff ff 3b\n50 00 01 f8\n40 f8 a9 7f\n48 00 9c 40\n30 00 c1 fb\n00 00 00 60\n78 81 c2 3b\n00 00 42 60\n01 00 29 39\n24 1f 2a 79\n00 00 3e f9\n2a 50 3d 7d\n18 00 41 f8\na6 03 29 7d\n78 4b 2c 7d\n21 04 80 4e\n18 00 41 e8\n00 00 3e e9\n40 f8 a9 7f\nd4 ff 9c 41\n30 00 c1 eb\n95 fe ff 4b\n00 00 00 60\n20 80 22 e9\n00 00 a9 2f\n14 00 9e 41\nfe ff 62 3c\n9c 91 63 38\nf1 fd ff 4b\n18 00 41 e8\n50 00 01 e8\n01 00 20 39\n00 00 00 60\n28 00 a1 eb\n38 00 e1 eb\n70 81 22 99\na6 03 08 7c\n40 00 21 38\n20 00 80 4e\n'
p117
S'.text:0000000000100a18\n.text:0000000000100a1c\n.text:0000000000100a20\n.text:0000000000100a24\n.text:0000000000100a28\n.text:0000000000100a2c\n.text:0000000000100a30\n.text:0000000000100a34\n.text:0000000000100a38\n.text:0000000000100a3c\n.text:0000000000100a40\n.text:0000000000100a44\n.text:0000000000100a48\n.text:0000000000100a4c\n.text:0000000000100a50\n.text:0000000000100a54\n.text:0000000000100a58\n.text:0000000000100a5c\n.text:0000000000100a60\n.text:0000000000100a64\n.text:0000000000100a68\n.text:0000000000100a6c\n.text:0000000000100a70\n.text:0000000000100a74\n.text:0000000000100a78\n.text:0000000000100a7c\n.text:0000000000100a80\n.text:0000000000100a84\n.text:0000000000100a88\n.text:0000000000100a8c\n.text:0000000000100a90\n.text:0000000000100a94\n.text:0000000000100a98\n.text:0000000000100a9c\n.text:0000000000100aa0\n.text:0000000000100aa4\n.text:0000000000100aa8\n.text:0000000000100aac\n.text:0000000000100ab0\n.text:0000000000100ab4\n.text:0000000000100ab8\n.text:0000000000100abc\n.text:0000000000100ac0\n.text:0000000000100ac4\n.text:0000000000100ac8\n.text:0000000000100acc\n.text:0000000000100ad0\n.text:0000000000100ad4\n.text:0000000000100ad8\n.text:0000000000100adc\n.text:0000000000100ae0\n.text:0000000000100ae4\n.text:0000000000100ae8\n.text:0000000000100aec\n.text:0000000000100af0\n.text:0000000000100af4\n.text:0000000000100af8\n'
p118
tp119
sS'_fini'
p120
(S'\n__stdcall _fini()\n'
p121
V\u000a/* _fini */\u000a\u000avoid _fini(void)\u000a\u000a{\u000a                    /* local function entry for global function _fini at {@address 00100f44} */\u000a  __do_global_dtors_aux();\u000a  return;\u000a}\u000a\u000a
p122
S'mfspr r0,LR\nstd r0,0x10(r1)\nstdu r1,-0x60(r1)\nbl 0x00100a18\nori r0,r0,0x0\naddi r1,r1,0x60\nld r0,0x10(r1)\nmtspr LR,r0\nblr\n'
p123
S'a6 02 08 7c\n10 00 01 f8\na1 ff 21 f8\nc1 fa ff 4b\n00 00 00 60\n60 00 21 38\n10 00 01 e8\na6 03 08 7c\n20 00 80 4e\n'
p124
S'.fini:0000000000100f4c\n.fini:0000000000100f50\n.fini:0000000000100f54\n.fini:0000000000100f58\n.fini:0000000000100f5c\n.fini:0000000000100f60\n.fini:0000000000100f64\n.fini:0000000000100f68\n.fini:0000000000100f6c\n'
p125
tp126
sS'__do_global_ctors_aux'
p127
(S'\n__stdcall __do_global_ctors_aux()\n'
p128
V\u000a/* __do_global_ctors_aux */\u000a\u000avoid __do_global_ctors_aux(void)\u000a\u000a{\u000a  code *pcVar1;\u000a  code **ppcVar2;\u000a  \u000a                    /* local function entry for global function __do_global_ctors_aux at {@address\u000a                       00100e60} */\u000a  if (__CTOR_LIST__ != (code *)0xffffffffffffffff) {\u000a    ppcVar2 = (code **)&__CTOR_LIST__;\u000a    pcVar1 = __CTOR_LIST__;\u000a    do {\u000a      (*pcVar1)();\u000a      ppcVar2 = ppcVar2 + -1;\u000a      pcVar1 = *ppcVar2;\u000a    } while (pcVar1 != (code *)0xffffffffffffffff);\u000a  }\u000a  return;\u000a}\u000a\u000a
p129
S'subis r9,r2,0x1\nld r9,0x7e20(r9)\nstd r31,-0x8(r1)\nsubis r31,r2,0x1\nstdu r1,-0x30(r1)\naddi r31,r31,0x7e28\ncmpdi cr7,r9,-0x1\nbeq cr7,0x00100ec8\nmfspr r0,LR\nsubi r31,r31,0x8\nstd r0,0x40(r1)\nori r0,r0,0x0\nori r0,r0,0x0\nori r2,r2,0x0\nmtspr CTR,r9\nor r12,r9,r9\nstd r2,0x18(r1)\nbctrl\nld r2,0x18(r1)\nldu r9,-0x8(r31)\ncmpdi cr7,r9,-0x1\nbne cr7,0x00100ea0\nld r0,0x40(r1)\nmtspr LR,r0\naddi r1,r1,0x30\nld r31,-0x8(r1)\nblr\n'
p130
S'ff ff 22 3d\n20 7e 29 e9\nf8 ff e1 fb\nff ff e2 3f\nd1 ff 21 f8\n28 7e ff 3b\nff ff a9 2f\n44 00 9e 41\na6 02 08 7c\nf8 ff ff 3b\n40 00 01 f8\n00 00 00 60\n00 00 00 60\n00 00 42 60\na6 03 29 7d\n78 4b 2c 7d\n18 00 41 f8\n21 04 80 4e\n18 00 41 e8\nf9 ff 3f e9\nff ff a9 2f\ne4 ff 9e 40\n40 00 01 e8\na6 03 08 7c\n30 00 21 38\nf8 ff e1 eb\n20 00 80 4e\n'
p131
S'.text:0000000000100e68\n.text:0000000000100e6c\n.text:0000000000100e70\n.text:0000000000100e74\n.text:0000000000100e78\n.text:0000000000100e7c\n.text:0000000000100e80\n.text:0000000000100e84\n.text:0000000000100e88\n.text:0000000000100e8c\n.text:0000000000100e90\n.text:0000000000100e94\n.text:0000000000100e98\n.text:0000000000100e9c\n.text:0000000000100ea0\n.text:0000000000100ea4\n.text:0000000000100ea8\n.text:0000000000100eac\n.text:0000000000100eb0\n.text:0000000000100eb4\n.text:0000000000100eb8\n.text:0000000000100ebc\n.text:0000000000100ec0\n.text:0000000000100ec4\n.text:0000000000100ec8\n.text:0000000000100ecc\n.text:0000000000100ed0\n'
p132
tp133
sS'00000017.plt_call.fileno@@GLIBC_2.17'
p134
(S'\n__stdcall 00000017.plt_call.fileno@@GLIBC_2.17(FILE * __stream)\n'
p135
V\u000a/* WARNING: Unknown calling convention yet parameter storage is locked */\u000a\u000aint 00000017_plt_call_fileno__GLIBC_2_17(FILE *__stream)\u000a\u000a{\u000a  int iVar1;\u000a  \u000a  iVar1 = (*(code *)PTR_fileno_00120020)((int)__stream);\u000a  return iVar1;\u000a}\u000a\u000a
p136
S'std r2,0x18(r1)\nld r12,-0x7ee0(r2)\nmtspr CTR,r12\nbctr\n'
p137
S'18 00 41 f8\n20 81 82 e9\na6 03 89 7d\n20 04 80 4e\n'
p138
S'.text:0000000000100860\n.text:0000000000100864\n.text:0000000000100868\n.text:000000000010086c\n'
p139
tp140
sS'00000017.plt_call.__deregister_frame_info'
p141
(S'\n__stdcall 00000017.plt_call.__deregister_frame_info()\n'
p142
V\u000avoid 00000017_plt_call___deregister_frame_info(void)\u000a\u000a{\u000a  (*(code *)PTR___deregister_frame_info_00120048)();\u000a  return;\u000a}\u000a\u000a
p143
S'std r2,0x18(r1)\nld r12,-0x7eb8(r2)\nmtspr CTR,r12\nbctr\n'
p144
S'18 00 41 f8\n48 81 82 e9\na6 03 89 7d\n20 04 80 4e\n'
p145
S'.text:00000000001008c0\n.text:00000000001008c4\n.text:00000000001008c8\n.text:00000000001008cc\n'
p146
tp147
sS'frame_dummy'
p148
(S'\n__stdcall frame_dummy()\n'
p149
V\u000a/* frame_dummy */\u000a\u000avoid frame_dummy(void)\u000a\u000a{\u000a                    /* local function entry for global function frame_dummy at {@address 00100b00}\u000a                        */\u000a  if (PTR___register_frame_info_0011ff28 != (undefined *)0x0) {\u000a    00000017_plt_call___register_frame_info(&__FRAME_END__,object_9119);\u000a  }\u000a  register_tm_clones();\u000a  return;\u000a}\u000a\u000a
p150
S'ori r0,r0,0x0\nld r9,-0x7fd8(r2)\nstdu r1,-0x20(r1)\ncmpdi cr7,r9,0x0\nbeq cr7,0x00100b44\nmfspr r0,LR\nori r0,r0,0x0\nsubis r3,r2,0x2\nsubi r4,r2,0x7e80\nsubi r3,r3,0x6e64\nstd r0,0x30(r1)\nbl 0x001008a0\nld r2,0x18(r1)\nld r0,0x30(r1)\nmtspr LR,r0\naddi r1,r1,0x20\nb 0x001009a8\n'
p151
S'00 00 00 60\n28 80 22 e9\ne1 ff 21 f8\n00 00 a9 2f\n2c 00 9e 41\na6 02 08 7c\n00 00 00 60\nfe ff 62 3c\n80 81 82 38\n9c 91 63 38\n30 00 01 f8\n6d fd ff 4b\n18 00 41 e8\n30 00 01 e8\na6 03 08 7c\n20 00 21 38\n60 fe ff 4b\n'
p152
S'.text:0000000000100b08\n.text:0000000000100b0c\n.text:0000000000100b10\n.text:0000000000100b14\n.text:0000000000100b18\n.text:0000000000100b1c\n.text:0000000000100b20\n.text:0000000000100b24\n.text:0000000000100b28\n.text:0000000000100b2c\n.text:0000000000100b30\n.text:0000000000100b34\n.text:0000000000100b38\n.text:0000000000100b3c\n.text:0000000000100b40\n.text:0000000000100b44\n.text:0000000000100b48\n'
p153
tp154
sS'stdbuf'
p155
(S'\n__stdcall stdbuf()\n'
p156
V\u000a/* stdbuf */\u000a\u000avoid stdbuf(void)\u000a\u000a{\u000a  char *pcVar1;\u000a  char *pcVar2;\u000a  char *pcVar3;\u000a  longlong local_28;\u000a  \u000a                    /* local function entry for global function stdbuf at {@address 00100d84} */\u000a  pcVar1 = 00000017_plt_call_getenv__GLIBC_2_17("_STDBUF_E");\u000a  pcVar2 = 00000017_plt_call_getenv__GLIBC_2_17((char *)(local_28 + -0x26ed8));\u000a  pcVar3 = 00000017_plt_call_getenv__GLIBC_2_17((char *)(local_28 + -0x26ec8));\u000a  if (pcVar1 != (char *)0x0) {\u000a    apply_mode(**(undefined8 **)(local_28 + -0x7fd0),pcVar1);\u000a  }\u000a  if (pcVar2 != (char *)0x0) {\u000a    apply_mode(**(undefined8 **)(local_28 + -0x7fc8),pcVar2);\u000a  }\u000a  if (pcVar3 != (char *)0x0) {\u000a    apply_mode(**(undefined8 **)(local_28 + -0x7fc0),pcVar3);\u000a  }\u000a  return;\u000a}\u000a\u000a
p157
S'mfspr r0,LR\nstd r0,0x10(r1)\nstd r29,-0x18(r1)\nstd r30,-0x10(r1)\nstd r31,-0x8(r1)\nstdu r1,-0x40(r1)\nsubis r3,r2,0x2\nsubi r3,r3,0x6ee8\nbl 0x00100920\nld r2,0x18(r1)\nor r29,r3,r3\nsubis r3,r2,0x2\nsubi r3,r3,0x6ed8\nbl 0x00100920\nld r2,0x18(r1)\nor r30,r3,r3\nsubis r3,r2,0x2\nsubi r3,r3,0x6ec8\nbl 0x00100920\nld r2,0x18(r1)\nor r31,r3,r3\ncmpdi cr7,r29,0x0\nbeq cr7,0x00100dfc\nor r4,r29,r29\nori r0,r0,0x0\nld r9,-0x7fd0(r2)\nld r3,0x0(r9)\nbl 0x00100bb0\ncmpdi cr7,r30,0x0\nbeq cr7,0x00100e18\nor r4,r30,r30\nori r0,r0,0x0\nld r9,-0x7fc8(r2)\nld r3,0x0(r9)\nbl 0x00100bb0\ncmpdi cr7,r31,0x0\nbeq cr7,0x00100e34\nor r4,r31,r31\nori r0,r0,0x0\nld r9,-0x7fc0(r2)\nld r3,0x0(r9)\nbl 0x00100bb0\naddi r1,r1,0x40\nld r0,0x10(r1)\nmtspr LR,r0\nld r29,-0x18(r1)\nld r30,-0x10(r1)\nld r31,-0x8(r1)\nblr\n'
p158
S'a6 02 08 7c\n10 00 01 f8\ne8 ff a1 fb\nf0 ff c1 fb\nf8 ff e1 fb\nc1 ff 21 f8\nfe ff 62 3c\n18 91 63 38\n75 fb ff 4b\n18 00 41 e8\n78 1b 7d 7c\nfe ff 62 3c\n28 91 63 38\n61 fb ff 4b\n18 00 41 e8\n78 1b 7e 7c\nfe ff 62 3c\n38 91 63 38\n4d fb ff 4b\n18 00 41 e8\n78 1b 7f 7c\n00 00 bd 2f\n18 00 9e 41\n78 eb a4 7f\n00 00 00 60\n30 80 22 e9\n00 00 69 e8\nb9 fd ff 4b\n00 00 be 2f\n18 00 9e 41\n78 f3 c4 7f\n00 00 00 60\n38 80 22 e9\n00 00 69 e8\n9d fd ff 4b\n00 00 bf 2f\n18 00 9e 41\n78 fb e4 7f\n00 00 00 60\n40 80 22 e9\n00 00 69 e8\n81 fd ff 4b\n40 00 21 38\n10 00 01 e8\na6 03 08 7c\ne8 ff a1 eb\nf0 ff c1 eb\nf8 ff e1 eb\n20 00 80 4e\n'
p159
S'.text:0000000000100d8c\n.text:0000000000100d90\n.text:0000000000100d94\n.text:0000000000100d98\n.text:0000000000100d9c\n.text:0000000000100da0\n.text:0000000000100da4\n.text:0000000000100da8\n.text:0000000000100dac\n.text:0000000000100db0\n.text:0000000000100db4\n.text:0000000000100db8\n.text:0000000000100dbc\n.text:0000000000100dc0\n.text:0000000000100dc4\n.text:0000000000100dc8\n.text:0000000000100dcc\n.text:0000000000100dd0\n.text:0000000000100dd4\n.text:0000000000100dd8\n.text:0000000000100ddc\n.text:0000000000100de0\n.text:0000000000100de4\n.text:0000000000100de8\n.text:0000000000100dec\n.text:0000000000100df0\n.text:0000000000100df4\n.text:0000000000100df8\n.text:0000000000100dfc\n.text:0000000000100e00\n.text:0000000000100e04\n.text:0000000000100e08\n.text:0000000000100e0c\n.text:0000000000100e10\n.text:0000000000100e14\n.text:0000000000100e18\n.text:0000000000100e1c\n.text:0000000000100e20\n.text:0000000000100e24\n.text:0000000000100e28\n.text:0000000000100e2c\n.text:0000000000100e30\n.text:0000000000100e34\n.text:0000000000100e38\n.text:0000000000100e3c\n.text:0000000000100e40\n.text:0000000000100e44\n.text:0000000000100e48\n.text:0000000000100e4c\n'
p160
tp161
s.