(dp0
S'__libc_csu_init'
p1
(S'\n__stdcall __libc_csu_init()\n'
p2
V\u000avoid __libc_csu_init(EVP_PKEY_CTX *pEParm1,undefined4 uParm2,undefined4 uParm3,undefined4 uParm4)\u000a\u000a{\u000a  int iVar1;\u000a  int iVar2;\u000a  code **ppcVar3;\u000a  int iVar4;\u000a  \u000a  iVar1 = DAT_00010d54;\u000a  iVar4 = DAT_00010d50 + 0x10d2e;\u000a  _init(pEParm1);\u000a  iVar4 = iVar4 - (int)(code **)(iVar1 + 0x10d34) >> 2;\u000a  if (iVar4 != 0) {\u000a    iVar2 = 0;\u000a    ppcVar3 = (code **)(iVar1 + 0x10d34);\u000a    do {\u000a      iVar2 = iVar2 + 1;\u000a      (**ppcVar3)(pEParm1,uParm2,uParm3,*ppcVar3,uParm4);\u000a      ppcVar3 = ppcVar3 + 1;\u000a    } while (iVar4 != iVar2);\u000a  }\u000a  return;\u000a}\u000a\u000a
p3
S'push { r3, r4, r5, r6, r7, r8, r9, lr  }\nmov r7,r0\nldr r6,[0x00010d50]\nmov r8,r1\nldr r5,[0x00010d54]\nmov r9,r2\nadd r6,pc\nblx 0x00010630\nadd r5,pc\nsub r6,r6,r5\nasr r6,r6,#0x2\nbeq 0x00010d4c\nmov r4,#0x0\nadd r4,#0x1\nldr.w r3,[r5],#0x4\nmov r2,r9\nmov r1,r8\nmov r0,r7\nblx r3\ncmp r6,r4\nbne 0x00010d3a\npop.w { r3, r4, r5, r6, r7, r8, r9, pc }\n'
p4
S'2d e9 f8 43\n07 46\n0b 4e\n88 46\n0b 4d\n91 46\n7e 44\nff f7 80 ec\n7d 44\n76 1b\nb6 10\n09 d0\n00 24\n01 34\n55 f8 04 3b\n4a 46\n41 46\n38 46\n98 47\na6 42\nf6 d1\nbd e8 f8 83\n'
p5
S'.text:00010d1c\n.text:00010d20\n.text:00010d22\n.text:00010d24\n.text:00010d26\n.text:00010d28\n.text:00010d2a\n.text:00010d2c\n.text:00010d30\n.text:00010d32\n.text:00010d34\n.text:00010d36\n.text:00010d38\n.text:00010d3a\n.text:00010d3c\n.text:00010d40\n.text:00010d42\n.text:00010d44\n.text:00010d46\n.text:00010d48\n.text:00010d4a\n.text:00010d4c\n'
p6
tp7
sS'__aeabi_idiv0'
p8
(S'\n__stdcall __aeabi_idiv0()\n'
p9
V\u000avoid __aeabi_idiv0(void)\u000a\u000a{\u000a  raise(8);\u000a  return;\u000a}\u000a\u000a
p10
S'push { r1, lr }\nmov.w r0,#0x8\nblx 0x00010650\npop { r1, pc }\n'
p11
S'02 b5\n4f f0 08 00\nff f7 28 ed\n02 bd\n'
p12
S'.text:00010bf8\n.text:00010bfa\n.text:00010bfe\n.text:00010c02\n'
p13
tp14
sS'_init'
p15
(S'\n__stdcall _init(EVP_PKEY_CTX * ctx)\n'
p16
V\u000aint _init(EVP_PKEY_CTX *ctx)\u000a\u000a{\u000a  int iVar1;\u000a  \u000a  iVar1 = call_weak_fn();\u000a  return iVar1;\u000a}\u000a\u000a
p17
S'stmdb sp!,{ r3 lr }\nbl 0x0001077c\nldmia sp!,{ r3 pc }\n'
p18
S'08 40 2d e9\n50 00 00 eb\n08 80 bd e8\n'
p19
S'.init:00010630\n.init:00010634\n.init:00010638\n'
p20
tp21
sS'_start'
p22
(S'\n__stdcall _start()\n'
p23
V\u000avoid _start(undefined4 uParm1)\u000a\u000a{\u000a  int iVar1;\u000a  undefined4 in_stack_00000000;\u000a  \u000a  iVar1 = (int)&DAT_0001076c + DAT_0001076c;\u000a  __libc_start_main(*(undefined4 *)(iVar1 + DAT_00010778),in_stack_00000000,&stack0x00000004,\u000a                    *(undefined4 *)(iVar1 + DAT_00010774),*(undefined4 *)(iVar1 + DAT_00010770),\u000a                    uParm1);\u000a                    /* WARNING: Subroutine does not return */\u000a  abort();\u000a}\u000a\u000a
p24
S'mov.w r11,#0x0\nmov.w lr,#0x0\npop { r1 }\nmov r2,sp\npush { r2 }\npush { r0 }\nldr.w r10,[0x0001076c]\nadr r3,[0x1076c]\nadd r10,r3\nldr.w r12,[0x00010770]\nldr.w r12,[r10,r12]\npush.w r12\nldr r3,[0x00010774]\nldr.w r3,[r10,r3]\nldr r0,[0x00010778]\nldr.w r0,[r10,r0]\nblx 0x000106b0\nblx 0x00010728\n'
p25
S'4f f0 00 0b\n4f f0 00 0e\n02 bc\n6a 46\n04 b4\n01 b4\ndf f8 24 a0\n08 a3\n9a 44\ndf f8 20 c0\n5a f8 0c c0\n4d f8 04 cd\n06 4b\n5a f8 03 30\n06 48\n5a f8 00 00\nff f7 a4 ef\nff f7 de ef\n'
p26
S'.text:00010734\n.text:00010738\n.text:0001073c\n.text:0001073e\n.text:00010740\n.text:00010742\n.text:00010744\n.text:00010748\n.text:0001074a\n.text:0001074c\n.text:00010750\n.text:00010754\n.text:00010758\n.text:0001075a\n.text:0001075e\n.text:00010760\n.text:00010764\n.text:00010768\n'
p27
tp28
sS'__printf_chk'
p29
(S'\n__stdcall __printf_chk()\n'
p30
V\u000avoid __printf_chk(void)\u000a\u000a{\u000a  (*(code *)PTR___printf_chk_00021fcc)();\u000a  return;\u000a}\u000a\u000a
p31
S'adr r12,0x1070c\nadd r12,r12,#0x11000\nldr pc,[r12,#0x8c0]!\n'
p32
S'00 c6 8f e2\n11 ca 8c e2\nc0 f8 bc e5\n'
p33
S'.plt:00010704\n.plt:00010708\n.plt:0001070c\n'
p34
tp35
sS'output_primes'
p36
(S'\n__stdcall output_primes()\n'
p37
V\u000avoid output_primes(int iParm1,uint uParm2)\u000a\u000a{\u000a  longlong lVar1;\u000a  uint uVar2;\u000a  uint uVar3;\u000a  uint uVar4;\u000a  int iVar5;\u000a  int iVar6;\u000a  int iVar7;\u000a  bool bVar8;\u000a  \u000a  uVar2 = 0xffffffff;\u000a  uVar3 = 0xffffffff;\u000a  iVar6 = 0;\u000a  while ((uVar2 | uVar3) != 0) {\u000a    uVar4 = uVar3 & 1;\u000a    uVar3 = uVar3 >> 1;\u000a    uVar2 = (uint)(uVar4 != 0) << 0x1f | uVar2 >> 1;\u000a    iVar6 = iVar6 + 1;\u000a  }\u000a  puts((char *)(DAT_00010a68 + 68000));\u000a  __printf_chk(1,DAT_00010a6c + 0x109aa,iVar6);\u000a  uVar2 = 2;\u000a  uVar3 = 0;\u000a  while (uVar3 < uParm2) {\u000a    if (uVar3 + 8 < uParm2) {\u000a      uVar4 = *(int *)(iParm1 + uVar3 * 0x18 + 0xc0) - *(int *)(iParm1 + uVar3 * 0x18);\u000a      if (0xff < uVar4) {\u000a                    /* WARNING: Subroutine does not return */\u000a        abort();\u000a      }\u000a    }\u000a    else {\u000a      uVar4 = 0xff;\u000a    }\u000a    iVar7 = uVar3 * 0x18;\u000a    __printf_chk(1,DAT_00010a70 + 0x109cc,*(int *)(iParm1 + iVar7) - uVar2,uVar4);\u000a    print_wide_uint(*(undefined4 *)(iParm1 + iVar7 + 8),*(undefined4 *)(iParm1 + iVar7 + 0xc),0,\u000a                    iVar6);\u000a    __printf_chk(1,DAT_00010a74 + 0x109e4,*(undefined4 *)(iParm1 + iVar7));\u000a    uVar2 = *(uint *)(iParm1 + iVar7);\u000a    uVar3 = uVar3 + 1;\u000a  }\u000a  puts((char *)(DAT_00010a78 + 0x10a18));\u000a  do {\u000a    uVar2 = uVar2 + 2;\u000a    iVar6 = 0;\u000a    while (iVar7 = iParm1 + iVar6 * 0x18, iVar5 = *(int *)(iParm1 + iVar6 * 0x18),\u000a          uVar3 = iVar5 * iVar5, uVar3 < uVar2 || uVar3 - uVar2 == 0) {\u000a      lVar1 = (ulonglong)uVar2 * (ulonglong)*(uint *)(iVar7 + 8);\u000a      uVar3 = uVar2 * *(int *)(iVar7 + 0xc) + (int)((ulonglong)lVar1 >> 0x20);\u000a      bVar8 = uVar3 <= *(uint *)(iVar7 + 0x14);\u000a      if (*(uint *)(iVar7 + 0x14) == uVar3) {\u000a        bVar8 = (uint)lVar1 <= *(uint *)(iVar7 + 0x10);\u000a      }\u000a      if (bVar8) {\u000a        bVar8 = false;\u000a        goto LAB_00010a1e;\u000a      }\u000a      iVar6 = iVar6 + 1;\u000a    }\u000a    bVar8 = true;\u000aLAB_00010a1e:\u000a    if (bVar8) {\u000a      __printf_chk(1,DAT_00010a7c + 0x10a5e,uVar2);\u000a      return;\u000a    }\u000a  } while( true );\u000a}\u000a\u000a
p38
S'push { r4, r5, r6, r7, r8, r9, r10, lr  }\nmov r4,r0\nmov r9,r1\nmov.w r2,#0xffffffff\nmov.w r3,#0xffffffff\nmov r6,#0x0\nb 0x00010994\nlsr r3,r3,#0x1\nrrx r2,r2\nadd r6,#0x1\norrs.w r1,r2,r3\nbne 0x0001098c\nldr r0,[0x00010a68]\nadd r0,pc\nblx 0x00010698\nmov r2,r6\nldr r1,[0x00010a6c]\nadd r1,pc\nmov r0,#0x1\nblx 0x00010704\nmov r5,#0x2\nmov.w r8,#0x0\nb 0x000109ee\nmov r3,#0xff\nmov r7,#0x18\nmul r7,r7,r8\nadd.w r10,r4,r7\nldr r2,[r4,r7]\nsub r2,r2,r5\nldr r1,[0x00010a70]\nadd r1,pc\nmov r0,#0x1\nblx 0x00010704\nmov r3,r6\nmov r2,#0x0\nldrd r0,r1,[r10,#0x8]\nbl 0x000108cc\nldr r2,[r4,r7]\nldr r1,[0x00010a74]\nadd r1,pc\nmov r0,#0x1\nblx 0x00010704\nldr r5,[r4,r7]\nadd.w r8,r8,#0x1\ncmp r8,r9\nbcs 0x00010a12\nadd.w r3,r8,#0x8\ncmp r3,r9\nbcs 0x000109b6\nmov r2,#0x18\nmul r2,r2,r8\nadd.w r3,r2,#0xc0\nldr r3,[r4,r3]\nldr r2,[r4,r2]\nsub r3,r3,r2\ncmp r3,#0xff\nbls 0x000109b8\nblx 0x00010728\nldr r0,[0x00010a78]\nadd r0,pc\nblx 0x00010698\nb 0x00010a20\nmov r3,#0x1\ncbnz r3,0x00010a56\nadd r5,#0x2\nmov r0,#0x0\nmov r3,#0x18\nmul r3,r3,r0\nadd r1,r4,r3\nldr r3,[r4,r3]\nmul r3,r3,r3\ncmp r3,r5\nbhi 0x00010a1c\nldr r2,[r1,#0x8]\nldr r6,[r1,#0xc]\numull r2,r3,r5,r2\nmla r3,r5,r6,r3\nldrd r6,r7,[r1,#0x10]\ncmp r7,r3\nit eq\ncmp.eq r6,r2\nbcs 0x00010a52\nadd r0,#0x1\nb 0x00010a24\nmov r3,#0x0\nb 0x00010a1e\nmov r2,r5\nldr r1,[0x00010a7c]\nadd r1,pc\nmov r0,#0x1\nblx 0x00010704\npop.w { r4, r5, r6, r7, r8, r9, r10, pc }\n'
p39
S'2d e9 f0 47\n04 46\n89 46\n4f f0 ff 32\n4f f0 ff 33\n00 26\n03 e0\n5b 08\n4f ea 32 02\n01 36\n52 ea 03 01\nf8 d1\n33 48\n78 44\nff f7 7c ee\n32 46\n31 49\n79 44\n01 20\nff f7 ac ee\n02 25\n4f f0 00 08\n1b e0\nff 23\n18 27\n07 fb 08 f7\n04 eb 07 0a\ne2 59\n52 1b\n2a 49\n79 44\n01 20\nff f7 9a ee\n33 46\n00 22\nda e9 02 01\nff f7 78 ff\ne2 59\n25 49\n79 44\n01 20\nff f7 8e ee\ne5 59\n08 f1 01 08\nc8 45\n0f d2\n08 f1 08 03\n4b 45\ndd d2\n18 22\n02 fb 08 f2\n02 f1 c0 03\ne3 58\na2 58\n9b 1a\nff 2b\nd4 d9\nff f7 8c ee\n19 48\n78 44\nff f7 40 ee\n01 e0\n01 23\nd3 b9\n02 35\n00 20\n18 23\n03 fb 00 f3\ne1 18\ne3 58\n03 fb 03 f3\nab 42\nf2 d8\n8a 68\nce 68\na5 fb 02 23\n05 fb 06 33\nd1 e9 04 67\n9f 42\n08 bf\n96 42\n01 d2\n01 30\ne8 e7\n00 23\ne3 e7\n2a 46\n08 49\n79 44\n01 20\nff f7 52 ee\nbd e8 f0 87\n'
p40
S'.text:00010978\n.text:0001097c\n.text:0001097e\n.text:00010980\n.text:00010984\n.text:00010988\n.text:0001098a\n.text:0001098c\n.text:0001098e\n.text:00010992\n.text:00010994\n.text:00010998\n.text:0001099a\n.text:0001099c\n.text:0001099e\n.text:000109a2\n.text:000109a4\n.text:000109a6\n.text:000109a8\n.text:000109aa\n.text:000109ae\n.text:000109b0\n.text:000109b4\n.text:000109b6\n.text:000109b8\n.text:000109ba\n.text:000109be\n.text:000109c2\n.text:000109c4\n.text:000109c6\n.text:000109c8\n.text:000109ca\n.text:000109cc\n.text:000109d0\n.text:000109d2\n.text:000109d4\n.text:000109d8\n.text:000109dc\n.text:000109de\n.text:000109e0\n.text:000109e2\n.text:000109e4\n.text:000109e8\n.text:000109ea\n.text:000109ee\n.text:000109f0\n.text:000109f2\n.text:000109f6\n.text:000109f8\n.text:000109fa\n.text:000109fc\n.text:00010a00\n.text:00010a04\n.text:00010a06\n.text:00010a08\n.text:00010a0a\n.text:00010a0c\n.text:00010a0e\n.text:00010a12\n.text:00010a14\n.text:00010a16\n.text:00010a1a\n.text:00010a1c\n.text:00010a1e\n.text:00010a20\n.text:00010a22\n.text:00010a24\n.text:00010a26\n.text:00010a2a\n.text:00010a2c\n.text:00010a2e\n.text:00010a32\n.text:00010a34\n.text:00010a36\n.text:00010a38\n.text:00010a3a\n.text:00010a3e\n.text:00010a42\n.text:00010a46\n.text:00010a48\n.text:00010a4a\n.text:00010a4c\n.text:00010a4e\n.text:00010a50\n.text:00010a52\n.text:00010a54\n.text:00010a56\n.text:00010a58\n.text:00010a5a\n.text:00010a5c\n.text:00010a5e\n.text:00010a62\n'
p41
tp42
sS'main'
p43
(S'\n__stdcall main()\n'
p44
V\u000a/* WARNING: Type propagation algorithm not settling */\u000a\u000aint main(int iParm1,undefined4 *puParm2)\u000a\u000a{\u000a  int iVar1;\u000a  uint __n;\u000a  void *__s;\u000a  void *__ptr;\u000a  int *piVar2;\u000a  char *pcVar3;\u000a  uint uVar4;\u000a  uint uVar5;\u000a  undefined4 uVar6;\u000a  FILE *pFVar7;\u000a  int iVar8;\u000a  int iVar9;\u000a  int iVar10;\u000a  \u000a  iVar9 = DAT_00010bb4 + 0x10ac2;\u000a  if (iParm1 == 2) {\u000a    __n = strtol((char *)puParm2[1],(char **)0x0,10);\u000a    if ((int)__n < 3) {\u000a      iVar1 = 0;\u000a    }\u000a    else {\u000a      if ((__n & 1) == 0) {\u000a        __n = __n - 1;\u000a      }\u000a      __n = (int)((__n - 1) + (__n - 1 >> 0x1f)) >> 1;\u000a      __s = (void *)xalloc(__n);\u000a      memset(__s,1,__n);\u000a      __ptr = (void *)xalloc(__n * 0x18);\u000a      uVar5 = 0;\u000a      iVar1 = 0;\u000aLAB_00010b3c:\u000a      if (uVar5 < __n) {\u000a        iVar8 = uVar5 * 2 + 3;\u000a        iVar10 = iVar1 + 1;\u000a        process_prime((void *)(iVar1 * 0x18 + (int)__ptr),iVar8);\u000a        uVar4 = iVar8 * iVar8 - 3U >> 1;\u000a        while (uVar4 < __n) {\u000a          *(undefined *)((int)__s + uVar4) = 0;\u000a          uVar4 = uVar4 + iVar8;\u000a        }\u000a        do {\u000a          uVar5 = uVar5 + 1;\u000a          iVar1 = iVar10;\u000a          if (__n <= uVar5) break;\u000a          iVar1 = iVar10;\u000a        } while (*(char *)((int)__s + uVar5) == 0);\u000a        goto LAB_00010b3c;\u000a      }\u000a      output_primes(__ptr,iVar1);\u000a      free(__s);\u000a      free(__ptr);\u000a      pFVar7 = *(FILE **)(iVar9 + DAT_00010bc0);\u000a      iVar1 = ferror((FILE *)pFVar7->_flags);\u000a      iVar8 = fclose((FILE *)pFVar7->_flags);\u000a      iVar1 = iVar1 + iVar8;\u000a      if (iVar1 != 0) {\u000a        uVar6 = **(undefined4 **)(iVar9 + DAT_00010bb8);\u000a        piVar2 = __errno_location();\u000a        pcVar3 = strerror(*piVar2);\u000a        __fprintf_chk(uVar6,1,DAT_00010bc4 + 0x10ba4,pcVar3);\u000a        iVar1 = 1;\u000a      }\u000a    }\u000a  }\u000a  else {\u000a    __fprintf_chk(**(undefined4 **)(iVar9 + DAT_00010bb8),1,DAT_00010bbc + 0x10ad2,*puParm2);\u000a    iVar1 = 1;\u000a  }\u000a  return iVar1;\u000a}\u000a\u000a
p45
S'push { r4, r5, r6, r7, r8, r9, r10, lr  }\nmov r3,r1\nldr.w r8,[0x00010bb4]\nadd r8,pc\ncmp r0,#0x2\nbeq 0x00010ade\nldr r2,[0x00010bb8]\nldr.w r0,[r8,r2]\nldr r3,[r1,#0x0]\nldr r2,[0x00010bbc]\nadd r2,pc\nmov r1,#0x1\nldr r0,[r0,#0x0]\nblx 0x00010710\nmov r0,#0x1\npop.w { r4, r5, r6, r7, r8, r9, r10, pc }\nmov r2,#0xa\nmov r1,#0x0\nldr r0,[r3,#0x4]\nblx 0x00010668\ncmp r0,#0x2\nble 0x00010bae\ntst r0,#0x1\nbne 0x00010af4\nsub r0,#0x1\nsub r0,#0x1\nadd.w r0,r0,r0, lsr #0x1f\nasr r4,r0,#0x1\nmov r5,r4\nmov r0,r4\nbl 0x00010a80\nmov r6,r0\nmov r2,r4\nmov r1,#0x1\nblx 0x000106ec\nmov r0,#0x18\nmul r0,r0,r4\nbl 0x00010a80\nmov r10,r0\nmov r3,#0x0\nmov r4,r3\nb 0x00010b3c\nmov r2,#0x0\nstrb r2,[r6,r3]\nadd r3,r7\ncmp r3,r5\nbcc 0x00010b20\nadd r4,#0x1\ncmp r5,r4\nbls 0x00010b3a\nldrb r3,[r6,r4]\ncmp r3,#0x0\nbeq 0x00010b2a\nmov r3,r9\nb 0x00010b3c\nmov r3,r9\ncmp r4,r5\nbcs 0x00010b5e\nlsl r7,r4,#0x1\nadd r7,#0x3\nadd.w r9,r3,#0x1\nmov r1,r7\nmov r0,#0x18\nmla r0,r0,r3,r10\nbl 0x000108a0\nmul r3,r7,r7\nsub r3,#0x3\nlsr r3,r3,#0x1\nb 0x00010b26\nmov r1,r3\nmov r0,r10\nbl 0x00010978\nmov r0,r6\nblx 0x00010674\nmov r0,r10\nblx 0x00010674\nldr r3,[0x00010bc0]\nldr.w r5,[r8,r3]\nldr r0,[r5,#0x0]\nblx 0x00010680\nmov r4,r0\nldr r0,[r5,#0x0]\nblx 0x0001071c\nadd r0,r4,r0\nbeq 0x00010ada\nldr r3,[0x00010bb8]\nldr.w r3,[r8,r3]\nldr r4,[r3,#0x0]\nblx 0x000106e0\nldr r0,[r0,#0x0]\nblx 0x000106bc\nmov r3,r0\nldr r2,[0x00010bc4]\nadd r2,pc\nmov r1,#0x1\nmov r0,r4\nblx 0x00010710\nmov r0,#0x1\nb 0x00010ada\nmov r0,#0x0\nb 0x00010ada\n'
p46
S'2d e9 f0 47\n0b 46\ndf f8 f8 80\nf8 44\n02 28\n0c d0\n3c 4a\n58 f8 02 00\n0b 68\n3b 4a\n7a 44\n01 21\n00 68\nff f7 1c ee\n01 20\nbd e8 f0 87\n0a 22\n00 21\n58 68\nff f7 c0 ed\n02 28\n60 dd\n10 f0 01 0f\n00 d1\n01 38\n01 38\n00 eb d0 70\n44 10\n25 46\n20 46\nff f7 be ff\n06 46\n22 46\n01 21\nff f7 f0 ed\n18 20\n00 fb 04 f0\nff f7 b4 ff\n82 46\n00 23\n1c 46\n0d e0\n00 22\nf2 54\n3b 44\nab 42\nfa d3\n01 34\na5 42\n04 d9\n33 5d\n00 2b\nf9 d0\n4b 46\n00 e0\n4b 46\nac 42\n0e d2\n67 00\n03 37\n03 f1 01 09\n39 46\n18 20\n00 fb 03 a0\nff f7 a6 fe\n07 fb 07 f3\n03 3b\n5b 08\ne3 e7\n19 46\n50 46\nff f7 09 ff\n30 46\nff f7 84 ed\n50 46\nff f7 82 ed\n13 4b\n58 f8 03 50\n28 68\nff f7 82 ed\n04 46\n28 68\nff f7 cc ed\n20 18\na7 d0\n0b 4b\n58 f8 03 30\n1c 68\nff f7 a6 ed\n00 68\nff f7 90 ed\n03 46\n09 4a\n7a 44\n01 21\n20 46\nff f7 b4 ed\n01 20\n95 e7\n00 20\n93 e7\n'
p47
S'.text:00010ab4\n.text:00010ab8\n.text:00010aba\n.text:00010abe\n.text:00010ac0\n.text:00010ac2\n.text:00010ac4\n.text:00010ac6\n.text:00010aca\n.text:00010acc\n.text:00010ace\n.text:00010ad0\n.text:00010ad2\n.text:00010ad4\n.text:00010ad8\n.text:00010ada\n.text:00010ade\n.text:00010ae0\n.text:00010ae2\n.text:00010ae4\n.text:00010ae8\n.text:00010aea\n.text:00010aec\n.text:00010af0\n.text:00010af2\n.text:00010af4\n.text:00010af6\n.text:00010afa\n.text:00010afc\n.text:00010afe\n.text:00010b00\n.text:00010b04\n.text:00010b06\n.text:00010b08\n.text:00010b0a\n.text:00010b0e\n.text:00010b10\n.text:00010b14\n.text:00010b18\n.text:00010b1a\n.text:00010b1c\n.text:00010b1e\n.text:00010b20\n.text:00010b22\n.text:00010b24\n.text:00010b26\n.text:00010b28\n.text:00010b2a\n.text:00010b2c\n.text:00010b2e\n.text:00010b30\n.text:00010b32\n.text:00010b34\n.text:00010b36\n.text:00010b38\n.text:00010b3a\n.text:00010b3c\n.text:00010b3e\n.text:00010b40\n.text:00010b42\n.text:00010b44\n.text:00010b48\n.text:00010b4a\n.text:00010b4c\n.text:00010b50\n.text:00010b54\n.text:00010b58\n.text:00010b5a\n.text:00010b5c\n.text:00010b5e\n.text:00010b60\n.text:00010b62\n.text:00010b66\n.text:00010b68\n.text:00010b6c\n.text:00010b6e\n.text:00010b72\n.text:00010b74\n.text:00010b78\n.text:00010b7a\n.text:00010b7e\n.text:00010b80\n.text:00010b82\n.text:00010b86\n.text:00010b88\n.text:00010b8a\n.text:00010b8c\n.text:00010b90\n.text:00010b92\n.text:00010b96\n.text:00010b98\n.text:00010b9c\n.text:00010b9e\n.text:00010ba0\n.text:00010ba2\n.text:00010ba4\n.text:00010ba6\n.text:00010baa\n.text:00010bac\n.text:00010bae\n.text:00010bb0\n'
p48
tp49
sS'__fprintf_chk'
p50
(S'\n__stdcall __fprintf_chk()\n'
p51
V\u000avoid __fprintf_chk(void)\u000a\u000a{\u000a  (*(code *)PTR___fprintf_chk_00021fd0)();\u000a  return;\u000a}\u000a\u000a
p52
S'adr r12,0x10718\nadd r12,r12,#0x11000\nldr pc,[r12,#0x8b8]!\n'
p53
S'00 c6 8f e2\n11 ca 8c e2\nb8 f8 bc e5\n'
p54
S'.plt:00010710\n.plt:00010714\n.plt:00010718\n'
p55
tp56
sS'deregister_tm_clones'
p57
(S'\n__stdcall deregister_tm_clones()\n'
p58
V\u000avoid deregister_tm_clones(void)\u000a\u000a{\u000a  code *pcVar1;\u000a  \u000a  if ((DAT_000107c0 + 0x107ac != DAT_000107bc + 0x107a8) &&\u000a     (pcVar1 = *(code **)(DAT_000107c4 + 0x107b0 + DAT_000107c8), pcVar1 != (code *)0x0)) {\u000a    (*pcVar1)();\u000a    return;\u000a  }\u000a  return;\u000a}\u000a\u000a
p59
S'ldr r0,[0x000107bc]\nldr r3,[0x000107c0]\nadd r0,pc\nldr r2,[0x000107c4]\nadd r3,pc\ncmp r3,r0\nadd r2,pc\nbeq 0x000107b8\nldr r3,[0x000107c8]\nldr r3,[r2,r3]\ncbz r3,0x000107b8\nbx r3\nbx lr\n'
p60
S'06 48\n07 4b\n78 44\n07 4a\n7b 44\n83 42\n7a 44\n03 d0\n05 4b\nd3 58\n03 b1\n18 47\n70 47\n'
p61
S'.text:000107a0\n.text:000107a2\n.text:000107a4\n.text:000107a6\n.text:000107a8\n.text:000107aa\n.text:000107ac\n.text:000107ae\n.text:000107b0\n.text:000107b2\n.text:000107b4\n.text:000107b6\n.text:000107b8\n'
p62
tp63
sS'__libc_start_main'
p64
(S'\n__stdcall __libc_start_main()\n'
p65
V\u000avoid __libc_start_main(void)\u000a\u000a{\u000a  (*(code *)PTR___libc_start_main_00021fb0)();\u000a  return;\u000a}\u000a\u000a
p66
S'adr r12,0x106b8\nadd r12,r12,#0x11000\nldr pc,[r12,#0x8f8]!\n'
p67
S'00 c6 8f e2\n11 ca 8c e2\nf8 f8 bc e5\n'
p68
S'.plt:000106b0\n.plt:000106b4\n.plt:000106b8\n'
p69
tp70
sS'strtol'
p71
(S'\n__stdcall strtol(char * __nptr, char * * __endptr, int __base)\n'
p72
V\u000a/* WARNING: Unknown calling convention yet parameter storage is locked */\u000a\u000along strtol(char *__nptr,char **__endptr,int __base)\u000a\u000a{\u000a  long lVar1;\u000a  \u000a  lVar1 = (*(code *)PTR_strtol_00021f98)();\u000a  return lVar1;\u000a}\u000a\u000a
p73
S'adr r12,0x10670\nadd r12,r12,#0x11000\nldr pc,[r12,#0x928]!\n'
p74
S'00 c6 8f e2\n11 ca 8c e2\n28 f9 bc e5\n'
p75
S'.plt:00010668\n.plt:0001066c\n.plt:00010670\n'
p76
tp77
sS'putchar'
p78
(S'\n__stdcall putchar(int __c)\n'
p79
V\u000a/* WARNING: Unknown calling convention yet parameter storage is locked */\u000a\u000aint putchar(int __c)\u000a\u000a{\u000a  int iVar1;\u000a  \u000a  iVar1 = (*(code *)PTR_putchar_00021fc8)();\u000a  return iVar1;\u000a}\u000a\u000a
p80
S'adr r12,0x10700\nadd r12,r12,#0x11000\nldr pc,[r12,#0x8c8]!\n'
p81
S'00 c6 8f e2\n11 ca 8c e2\nc8 f8 bc e5\n'
p82
S'.plt:000106f8\n.plt:000106fc\n.plt:00010700\n'
p83
tp84
sS'raise'
p85
(S'\n__stdcall raise(int __sig)\n'
p86
V\u000a/* WARNING: Unknown calling convention yet parameter storage is locked */\u000a\u000aint raise(int __sig)\u000a\u000a{\u000a  int iVar1;\u000a  \u000a  iVar1 = (*(code *)PTR_raise_00021f90)();\u000a  return iVar1;\u000a}\u000a\u000a
p87
S'adr r12,0x10658\nadd r12,r12,#0x11000\nldr pc,[r12,#0x938]!\n'
p88
S'00 c6 8f e2\n11 ca 8c e2\n38 f9 bc e5\n'
p89
S'.plt:00010650\n.plt:00010654\n.plt:00010658\n'
p90
tp91
sS'__errno_location'
p92
(S'\n__stdcall __errno_location()\n'
p93
V\u000a/* WARNING: Unknown calling convention yet parameter storage is locked */\u000a\u000aint * __errno_location(void)\u000a\u000a{\u000a  int *piVar1;\u000a  \u000a  piVar1 = (int *)(*(code *)PTR___errno_location_00021fc0)();\u000a  return piVar1;\u000a}\u000a\u000a
p94
S'adr r12,0x106e8\nadd r12,r12,#0x11000\nldr pc,[r12,#0x8d8]!\n'
p95
S'00 c6 8f e2\n11 ca 8c e2\nd8 f8 bc e5\n'
p96
S'.plt:000106e0\n.plt:000106e4\n.plt:000106e8\n'
p97
tp98
sS'free'
p99
(S'\n__stdcall free(void * __ptr)\n'
p100
V\u000a/* WARNING: Unknown calling convention yet parameter storage is locked */\u000a\u000avoid free(void *__ptr)\u000a\u000a{\u000a  (*(code *)PTR_free_00021f9c)();\u000a  return;\u000a}\u000a\u000a
p101
S'adr r12,0x1067c\nadd r12,r12,#0x11000\nldr pc,[r12,#0x920]!\n'
p102
S'00 c6 8f e2\n11 ca 8c e2\n20 f9 bc e5\n'
p103
S'.plt:00010674\n.plt:00010678\n.plt:0001067c\n'
p104
tp105
sS'frame_dummy'
p106
(S'\n__stdcall frame_dummy()\n'
p107
V\u000avoid frame_dummy(void)\u000a\u000a{\u000a  uint uVar1;\u000a  code *pcVar2;\u000a  \u000a  uVar1 = (DAT_000107f4 + 0x107d8) - (DAT_000107f0 + 0x107d4) >> 2;\u000a  if (((int)(uVar1 + (uVar1 >> 0x1f)) >> 1 != 0) &&\u000a     (pcVar2 = *(code **)(DAT_000107f8 + 0x107dc + DAT_000107fc), pcVar2 != (code *)0x0)) {\u000a    (*pcVar2)();\u000a    return;\u000a  }\u000a  return;\u000a}\u000a\u000a
p108
S'b 0x000107cc\n'
p109
S'c4 e7\n'
p110
S'.text:00010840\n'
p111
tp112
sS'__cxa_finalize'
p113
(S'\n__stdcall __cxa_finalize()\n'
p114
V\u000avoid __cxa_finalize(void)\u000a\u000a{\u000a  (*(code *)PTR___cxa_finalize_00021f94)();\u000a  return;\u000a}\u000a\u000a
p115
S'adr r12,0x10664\nadd r12,r12,#0x11000\nldr pc,[r12,#0x930]!\n'
p116
S'00 c6 8f e2\n11 ca 8c e2\n30 f9 bc e5\n'
p117
S'.plt:0001065c\n.plt:00010660\n.plt:00010664\n'
p118
tp119
sS'malloc'
p120
(S'\n__stdcall malloc(size_t __size)\n'
p121
V\u000a/* WARNING: Unknown calling convention yet parameter storage is locked */\u000a\u000avoid * malloc(size_t __size)\u000a\u000a{\u000a  void *pvVar1;\u000a  \u000a  pvVar1 = (void *)(*(code *)PTR_malloc_00021fac)();\u000a  return pvVar1;\u000a}\u000a\u000a
p122
S'adr r12,0x106ac\nadd r12,r12,#0x11000\nldr pc,[r12,#0x900]!\n'
p123
S'00 c6 8f e2\n11 ca 8c e2\n00 f9 bc e5\n'
p124
S'.plt:000106a4\n.plt:000106a8\n.plt:000106ac\n'
p125
tp126
sS'register_tm_clones'
p127
(S'\n__stdcall register_tm_clones()\n'
p128
V\u000avoid register_tm_clones(void)\u000a\u000a{\u000a  uint uVar1;\u000a  code *pcVar2;\u000a  \u000a  uVar1 = (DAT_000107f4 + 0x107d8) - (DAT_000107f0 + 0x107d4) >> 2;\u000a  if (((int)(uVar1 + (uVar1 >> 0x1f)) >> 1 != 0) &&\u000a     (pcVar2 = *(code **)(DAT_000107f8 + 0x107dc + DAT_000107fc), pcVar2 != (code *)0x0)) {\u000a    (*pcVar2)();\u000a    return;\u000a  }\u000a  return;\u000a}\u000a\u000a
p129
S'ldr r0,[0x000107f0]\nldr r3,[0x000107f4]\nadd r0,pc\nldr r2,[0x000107f8]\nadd r3,pc\nsub r1,r3,r0\nadd r2,pc\nasr r1,r1,#0x2\nadd.w r1,r1,r1, lsr #0x1f\nasr r1,r1,#0x1\nbeq 0x000107ec\nldr r3,[0x000107fc]\nldr r3,[r2,r3]\ncbz r3,0x000107ec\nbx r3\nbx lr\n'
p130
S'08 48\n09 4b\n78 44\n09 4a\n7b 44\n19 1a\n7a 44\n89 10\n01 eb d1 71\n49 10\n03 d0\n05 4b\nd3 58\n03 b1\n18 47\n70 47\n'
p131
S'.text:000107cc\n.text:000107ce\n.text:000107d0\n.text:000107d2\n.text:000107d4\n.text:000107d6\n.text:000107d8\n.text:000107da\n.text:000107dc\n.text:000107e0\n.text:000107e2\n.text:000107e4\n.text:000107e6\n.text:000107e8\n.text:000107ea\n.text:000107ec\n'
p132
tp133
sS'process_prime'
p134
(S'\n__stdcall process_prime()\n'
p135
V\u000avoid process_prime(undefined4 *puParm1,undefined4 uParm2)\u000a\u000a{\u000a  undefined8 uVar1;\u000a  \u000a  *puParm1 = uParm2;\u000a  uVar1 = binvert(uParm2,0);\u000a  puParm1[2] = (int)((ulonglong)uVar1 >> 0x20);\u000a  puParm1[3] = (int)uVar1;\u000a  uVar1 = __aeabi_uldivmod(0xffffffff,0xffffffff,uParm2,0);\u000a  puParm1[4] = (int)((ulonglong)uVar1 >> 0x20);\u000a  puParm1[5] = (int)uVar1;\u000a  return;\u000a}\u000a\u000a
p136
S'push { r4, r5, r6, lr }\nmov r4,r0\nmov r5,r1\nstr r1,[r4,#0x0]\nmov r6,#0x0\nmov r0,r1\nmov r1,r6\nbl 0x00010844\nstrd r0,r1,[r4,#0x8]\nmov r2,r5\nmov r3,r6\nmov.w r0,#0xffffffff\nmov.w r1,#0xffffffff\nbl 0x00010bc8\nstrd r0,r1,[r4,#0x10]\npop { r4, r5, r6, pc }\n'
p137
S'70 b5\n04 46\n0d 46\n21 60\n00 26\n08 46\n31 46\nff f7 c9 ff\nc4 e9 02 01\n2a 46\n33 46\n4f f0 ff 30\n4f f0 ff 31\n00 f0 81 f9\nc4 e9 04 01\n70 bd\n'
p138
S'.text:000108a0\n.text:000108a2\n.text:000108a4\n.text:000108a6\n.text:000108a8\n.text:000108aa\n.text:000108ac\n.text:000108ae\n.text:000108b2\n.text:000108b6\n.text:000108b8\n.text:000108ba\n.text:000108be\n.text:000108c2\n.text:000108c6\n.text:000108ca\n'
p139
tp140
sS'call_weak_fn'
p141
(S'\n__stdcall call_weak_fn()\n'
p142
V\u000avoid call_weak_fn(void)\u000a\u000a{\u000a  if (*(int *)(DAT_00010798 + 0x1078c + DAT_0001079c) == 0) {\u000a    return;\u000a  }\u000a  (*(code *)PTR___gmon_start___00021fb8)();\u000a  return;\u000a}\u000a\u000a
p143
S'ldr r3,[0x10798]\nldr r2,[0x1079c]\nadd r3,pc,r3\nldr r2,[r3,r2]\ncmp r2,#0x0\nbxeq lr\nb 0x000106c8\n'
p144
S'14 30 9f e5\n14 20 9f e5\n03 30 8f e0\n02 20 93 e7\n00 00 52 e3\n1e ff 2f 01\ncb ff ff ea\n'
p145
S'.text:0001077c\n.text:00010780\n.text:00010784\n.text:00010788\n.text:0001078c\n.text:00010790\n.text:00010794\n'
p146
tp147
sS'fclose'
p148
(S'\n__stdcall fclose(FILE * __stream)\n'
p149
V\u000a/* WARNING: Unknown calling convention yet parameter storage is locked */\u000a\u000aint fclose(FILE *__stream)\u000a\u000a{\u000a  int iVar1;\u000a  \u000a  iVar1 = (*(code *)PTR_fclose_00021fd4)();\u000a  return iVar1;\u000a}\u000a\u000a
p150
S'adr r12,0x10724\nadd r12,r12,#0x11000\nldr pc,[r12,#0x8b0]!\n'
p151
S'00 c6 8f e2\n11 ca 8c e2\nb0 f8 bc e5\n'
p152
S'.plt:0001071c\n.plt:00010720\n.plt:00010724\n'
p153
tp154
sS'print_wide_uint'
p155
(S'\n__stdcall print_wide_uint()\n'
p156
V\u000avoid print_wide_uint(uint uParm1,uint uParm2,int iParm3,int iParm4)\u000a\u000a{\u000a  int iVar1;\u000a  \u000a  if (uParm2 == 0 && (uParm1 & 0xfffffff) == uParm1) {\u000a    if (iParm3 == 0) {\u000a      iVar1 = 7;\u000a    }\u000a    else {\u000a      __printf_chk(1,DAT_00010974 + 0x10956);\u000a      iVar1 = (iParm4 - 1U & 3) + 1;\u000a    }\u000a  }\u000a  else {\u000a    if (uParm2 >> 0x18 != 0) {\u000a      putchar(0x28);\u000a    }\u000a    print_wide_uint(uParm1 >> 0x1c | uParm2 << 4,uParm2 >> 0x1c,iParm3 + 1,iParm4);\u000a    if (uParm2 >> 0x18 != 0) {\u000a      __printf_chk(1,DAT_00010970 + 0x1094a,iParm3 + 3,DAT_0001096c + 0x10942);\u000a    }\u000a    __printf_chk(1,DAT_00010964 + 0x1091e,0x1c);\u000a    iVar1 = 7;\u000a  }\u000a  __printf_chk(1,DAT_00010968 + 0x1092c,iVar1,uParm1 & 0xfffffff);\u000a  return;\u000a}\u000a\u000a
p157
S'push { r4, r5, r6, r7, r8, r9, r10, lr  }\nmov r8,r2\nmov r4,r3\nbic r5,r0,#0xf0000000\nmov r3,#0x0\ncmp r3,r1\nit eq\ncmp.eq r5,r0\nbne 0x000108ec\ncmp.w r8,#0x0\nbne 0x00010950\nmov r2,#0x7\nb 0x00010924\nlsr.w r9,r0,#0x1c\norr.w r9,r9,r1, lsl #0x4\nlsr.w r10,r1,#0x1c\nlsr r6,r1,#0x18\nmov r7,#0x0\norrs.w r3,r6,r7\nbne 0x00010934\nmov r3,r4\nadd.w r2,r8,#0x1\nmov r0,r9\nmov r1,r10\nbl 0x000108cc\norrs.w r3,r6,r7\nbne 0x0001093c\nmov r2,#0x1c\nldr r1,[0x00010964]\nadd r1,pc\nmov r0,#0x1\nblx 0x00010704\nmov r2,#0x7\nmov r3,r5\nldr r1,[0x00010968]\nadd r1,pc\nmov r0,#0x1\nblx 0x00010704\npop.w { r4, r5, r6, r7, r8, r9, r10, pc }\nmov r0,#0x28\nblx 0x000106f8\nb 0x00010902\nldr r3,[0x0001096c]\nadd r3,pc\nadd.w r2,r8,#0x3\nldr r1,[0x00010970]\nadd r1,pc\nmov r0,#0x1\nblx 0x00010704\nb 0x00010916\nldr r1,[0x00010974]\nadd r1,pc\nmov r0,#0x1\nblx 0x00010704\nsub r2,r4,#0x1\nand r2,r2,#0x3\nadd r2,#0x1\nb 0x00010924\n'
p158
S'2d e9 f0 47\n90 46\n1c 46\n20 f0 70 45\n00 23\n8b 42\n08 bf\n85 42\n04 d1\nb8 f1 00 0f\n33 d1\n07 22\n1b e0\n4f ea 10 79\n49 ea 01 19\n4f ea 11 7a\n0e 0e\n00 27\n56 ea 07 03\n18 d1\n23 46\n08 f1 01 02\n48 46\n51 46\nff f7 de ff\n56 ea 07 03\n12 d1\n1c 22\n12 49\n79 44\n01 20\nff f7 f2 ee\n07 22\n2b 46\n10 49\n79 44\n01 20\nff f7 ea ee\nbd e8 f0 87\n28 20\nff f7 e0 ee\ne2 e7\n0b 4b\n7b 44\n08 f1 03 02\n0a 49\n79 44\n01 20\nff f7 dc ee\ne2 e7\n08 49\n79 44\n01 20\nff f7 d6 ee\n62 1e\n02 f0 03 02\n01 32\ndf e7\n'
p159
S'.text:000108cc\n.text:000108d0\n.text:000108d2\n.text:000108d4\n.text:000108d8\n.text:000108da\n.text:000108dc\n.text:000108de\n.text:000108e0\n.text:000108e2\n.text:000108e6\n.text:000108e8\n.text:000108ea\n.text:000108ec\n.text:000108f0\n.text:000108f4\n.text:000108f8\n.text:000108fa\n.text:000108fc\n.text:00010900\n.text:00010902\n.text:00010904\n.text:00010908\n.text:0001090a\n.text:0001090c\n.text:00010910\n.text:00010914\n.text:00010916\n.text:00010918\n.text:0001091a\n.text:0001091c\n.text:0001091e\n.text:00010922\n.text:00010924\n.text:00010926\n.text:00010928\n.text:0001092a\n.text:0001092c\n.text:00010930\n.text:00010934\n.text:00010936\n.text:0001093a\n.text:0001093c\n.text:0001093e\n.text:00010940\n.text:00010944\n.text:00010946\n.text:00010948\n.text:0001094a\n.text:0001094e\n.text:00010950\n.text:00010952\n.text:00010954\n.text:00010956\n.text:0001095a\n.text:0001095c\n.text:00010960\n.text:00010962\n'
p160
tp161
sS'fwrite'
p162
(S'\n__stdcall fwrite(void * __ptr, size_t __size, size_t __n, FILE * __s)\n'
p163
V\u000a/* WARNING: Unknown calling convention yet parameter storage is locked */\u000a\u000asize_t fwrite(void *__ptr,size_t __size,size_t __n,FILE *__s)\u000a\u000a{\u000a  size_t sVar1;\u000a  \u000a  sVar1 = (*(code *)PTR_fwrite_00021fa4)();\u000a  return sVar1;\u000a}\u000a\u000a
p164
S'adr r12,0x10694\nadd r12,r12,#0x11000\nldr pc,[r12,#0x910]!\n'
p165
S'00 c6 8f e2\n11 ca 8c e2\n10 f9 bc e5\n'
p166
S'.plt:0001068c\n.plt:00010690\n.plt:00010694\n'
p167
tp168
sS'binvert'
p169
(S'\n__stdcall binvert()\n'
p170
V\u000aundefined8 binvert(uint uParm1,int iParm2)\u000a\u000a{\u000a  ulonglong uVar1;\u000a  longlong lVar2;\u000a  uint uVar3;\u000a  int iVar4;\u000a  uint uVar5;\u000a  uint uVar6;\u000a  int iVar7;\u000a  \u000a  uVar6 = 0xf5397db1 >> ((uParm1 >> 1 & 7) << 2);\u000a  iVar7 = 0;\u000a  do {\u000a    iVar4 = iVar7;\u000a    uVar3 = uVar6;\u000a    uVar1 = (ulonglong)uVar3 * (ulonglong)uVar3;\u000a    lVar2 = (uVar1 & 0xffffffff) * (ulonglong)uParm1;\u000a    uVar5 = (uint)lVar2;\u000a    uVar6 = uVar3 * 2 - uVar5;\u000a    iVar7 = (iVar4 * 2 + (uint)CARRY4(uVar3,uVar3)) -\u000a            ((int)((ulonglong)lVar2 >> 0x20) +\u000a             uParm1 * ((int)(uVar1 >> 0x20) + uVar3 * iVar4 * 2) + (int)uVar1 * iParm2 +\u000a            (uint)(uVar3 * 2 < uVar5));\u000a  } while (iVar4 != iVar7 || uVar3 != uVar6);\u000a  return CONCAT44(uVar3,iVar4);\u000a}\u000a\u000a
p171
S'push { r4, r5, r6, r7, r8, lr  }\nlsr r3,r1,#0x1\nrrx r2,r0\nand r2,r2,#0x7\nlsl r3,r2,#0x2\nmovw r2,#0x7db1\nmovt r2,#0xf539\nlsr r2,r3\nmov r3,#0x0\nb 0x00010866\nmov r2,r6\nmov r3,r7\nadds.w lr,r2,r2\nadc.w r8,r3,r3\nmul r12,r2,r3\numull r4,r5,r2,r2\nadd.w r5,r5,r12, lsl #0x1\nmul r12,r4,r1\nmla r12,r0,r5,r12\numull r4,r5,r4,r0\nadd r5,r12\nsubs.w r6,lr,r4\nsbc.w r7,r8,r5\ncmp r3,r7\nit eq\ncmp.eq r2,r6\nbne 0x00010862\nmov r0,r2\nmov r1,r3\npop.w { r4, r5, r6, r7, r8, pc }\n'
p172
S'2d e9 f0 41\n4b 08\n4f ea 30 02\n02 f0 07 02\n93 00\n47 f6 b1 52\ncf f2 39 52\nda 40\n00 23\n01 e0\n32 46\n3b 46\n12 eb 02 0e\n43 eb 03 08\n02 fb 03 fc\na2 fb 02 45\n05 eb 4c 05\n04 fb 01 fc\n00 fb 05 cc\na4 fb 00 45\n65 44\nbe eb 04 06\n68 eb 05 07\nbb 42\n08 bf\nb2 42\ne4 d1\n10 46\n19 46\nbd e8 f0 81\n'
p173
S'.text:00010844\n.text:00010848\n.text:0001084a\n.text:0001084e\n.text:00010852\n.text:00010854\n.text:00010858\n.text:0001085c\n.text:0001085e\n.text:00010860\n.text:00010862\n.text:00010864\n.text:00010866\n.text:0001086a\n.text:0001086e\n.text:00010872\n.text:00010876\n.text:0001087a\n.text:0001087e\n.text:00010882\n.text:00010886\n.text:00010888\n.text:0001088c\n.text:00010890\n.text:00010892\n.text:00010894\n.text:00010896\n.text:00010898\n.text:0001089a\n.text:0001089c\n'
p174
tp175
sS'memset'
p176
(S'\n__stdcall memset(void * __s, int __c, size_t __n)\n'
p177
V\u000a/* WARNING: Unknown calling convention yet parameter storage is locked */\u000a\u000avoid * memset(void *__s,int __c,size_t __n)\u000a\u000a{\u000a  void *pvVar1;\u000a  \u000a  pvVar1 = (void *)(*(code *)PTR_memset_00021fc4)();\u000a  return pvVar1;\u000a}\u000a\u000a
p178
S'adr r12,0x106f4\nadd r12,r12,#0x11000\nldr pc,[r12,#0x8d0]!\n'
p179
S'00 c6 8f e2\n11 ca 8c e2\nd0 f8 bc e5\n'
p180
S'.plt:000106ec\n.plt:000106f0\n.plt:000106f4\n'
p181
tp182
sS'strerror'
p183
(S'\n__stdcall strerror(int __errnum)\n'
p184
V\u000a/* WARNING: Unknown calling convention yet parameter storage is locked */\u000a\u000achar * strerror(int __errnum)\u000a\u000a{\u000a  char *pcVar1;\u000a  \u000a  pcVar1 = (char *)(*(code *)PTR_strerror_00021fb4)();\u000a  return pcVar1;\u000a}\u000a\u000a
p185
S'adr r12,0x106c4\nadd r12,r12,#0x11000\nldr pc,[r12,#0x8f0]!\n'
p186
S'00 c6 8f e2\n11 ca 8c e2\nf0 f8 bc e5\n'
p187
S'.plt:000106bc\n.plt:000106c0\n.plt:000106c4\n'
p188
tp189
sS'puts'
p190
(S'\n__stdcall puts(char * __s)\n'
p191
V\u000a/* WARNING: Unknown calling convention yet parameter storage is locked */\u000a\u000aint puts(char *__s)\u000a\u000a{\u000a  int iVar1;\u000a  \u000a  iVar1 = (*(code *)PTR_puts_00021fa8)();\u000a  return iVar1;\u000a}\u000a\u000a
p192
S'adr r12,0x106a0\nadd r12,r12,#0x11000\nldr pc,[r12,#0x908]!\n'
p193
S'00 c6 8f e2\n11 ca 8c e2\n08 f9 bc e5\n'
p194
S'.plt:00010698\n.plt:0001069c\n.plt:000106a0\n'
p195
tp196
sS'ferror'
p197
(S'\n__stdcall ferror(FILE * __stream)\n'
p198
V\u000a/* WARNING: Unknown calling convention yet parameter storage is locked */\u000a\u000aint ferror(FILE *__stream)\u000a\u000a{\u000a  int iVar1;\u000a  \u000a  iVar1 = (*(code *)PTR_ferror_00021fa0)();\u000a  return iVar1;\u000a}\u000a\u000a
p199
S'adr r12,0x10688\nadd r12,r12,#0x11000\nldr pc,[r12,#0x918]!\n'
p200
S'00 c6 8f e2\n11 ca 8c e2\n18 f9 bc e5\n'
p201
S'.plt:00010680\n.plt:00010684\n.plt:00010688\n'
p202
tp203
sS'exit'
p204
(S'\n__stdcall exit(int __status)\n'
p205
V\u000a/* WARNING: Unknown calling convention yet parameter storage is locked */\u000a\u000avoid exit(int __status)\u000a\u000a{\u000a  (*(code *)PTR_exit_00021fbc)();\u000a  return;\u000a}\u000a\u000a
p206
S'adr r12,0x106dc\nadd r12,r12,#0x11000\nldr pc,[r12,#0x8e0]!\n'
p207
S'00 c6 8f e2\n11 ca 8c e2\ne0 f8 bc e5\n'
p208
S'.plt:000106d4\n.plt:000106d8\n.plt:000106dc\n'
p209
tp210
sS'__libc_csu_fini'
p211
(S'\n__stdcall __libc_csu_fini()\n'
p212
V\u000avoid __libc_csu_fini(void)\u000a\u000a{\u000a  return;\u000a}\u000a\u000a
p213
S'bx lr\n'
p214
S'70 47\n'
p215
S'.text:00010d58\n'
p216
tp217
sS'xalloc'
p218
(S'\n__stdcall xalloc()\n'
p219
V\u000a/* WARNING: Type propagation algorithm not settling */\u000a\u000avoid xalloc(size_t sParm1)\u000a\u000a{\u000a  void *pvVar1;\u000a  int iVar2;\u000a  \u000a  iVar2 = DAT_00010aa8 + 0x10a88;\u000a  pvVar1 = malloc(sParm1);\u000a  if (pvVar1 != (void *)0x0) {\u000a    return;\u000a  }\u000a  fwrite((void *)(DAT_00010ab0 + 0x10a9e),1,0x1a,(FILE *)(*(FILE **)(iVar2 + DAT_00010aac))->_flags)\u000a  ;\u000a                    /* WARNING: Subroutine does not return */\u000a  exit(1);\u000a}\u000a\u000a
p220
S'push { r4, lr }\nldr r4,[0x00010aa8]\nadd r4,pc\nblx 0x000106a4\ncbz r0,0x00010a8e\npop { r4, pc }\nldr r3,[0x00010aac]\nldr r3,[r4,r3]\nldr r3,[r3,#0x0]\nmov r2,#0x1a\nmov r1,#0x1\nldr r0,[0x00010ab0]\nadd r0,pc\nblx 0x0001068c\nmov r0,#0x1\nblx 0x000106d4\n'
p221
S'10 b5\n09 4c\n7c 44\nff f7 0e ee\n00 b1\n10 bd\n07 4b\ne3 58\n1b 68\n1a 22\n01 21\n05 48\n78 44\nff f7 f6 ed\n01 20\nff f7 18 ee\n'
p222
S'.text:00010a80\n.text:00010a82\n.text:00010a84\n.text:00010a86\n.text:00010a8a\n.text:00010a8c\n.text:00010a8e\n.text:00010a90\n.text:00010a92\n.text:00010a94\n.text:00010a96\n.text:00010a98\n.text:00010a9a\n.text:00010a9c\n.text:00010aa0\n.text:00010aa2\n'
p223
tp224
sS'__aeabi_uldivmod'
p225
(S'\n__stdcall __aeabi_uldivmod()\n'
p226
V\u000avoid __aeabi_uldivmod(int iParm1,int iParm2,int iParm3,int iParm4)\u000a\u000a{\u000a  if ((iParm4 == 0) && (iParm3 == 0)) {\u000a    if (iParm2 != 0 || iParm1 != 0) {\u000a      iParm2 = -1;\u000a      iParm1 = -1;\u000a    }\u000a    __aeabi_idiv0(iParm1,iParm2);\u000a    return;\u000a  }\u000a  __udivmoddi4();\u000a  return;\u000a}\u000a\u000a
p227
S'cbnz r3,0x00010be0\ncbnz r2,0x00010be0\ncmp r1,#0x0\nit eq\ncmp.eq r0,#0x0\nitT ne\nmov.ne.w r1,#0xffffffff\nmov.ne.w r0,#0xffffffff\nb.w 0x00010bf8\nsub.w r12,sp,#0x8\nstrd r12,lr,[sp,#-0x10]!\nbl 0x00010c04\nldr.w lr,[sp,#0x4]\nldrd r2,r3,[sp,#0x8]\nadd sp,#0x10\nbx lr\n'
p228
S'53 b9\n4a b9\n00 29\n08 bf\n00 28\n1c bf\n4f f0 ff 31\n4f f0 ff 30\n00 f0 0c b8\nad f1 08 0c\n6d e9 04 ce\n00 f0 0c f8\ndd f8 04 e0\ndd e9 02 23\n04 b0\n70 47\n'
p229
S'.text:00010bc8\n.text:00010bca\n.text:00010bcc\n.text:00010bce\n.text:00010bd0\n.text:00010bd2\n.text:00010bd4\n.text:00010bd8\n.text:00010bdc\n.text:00010be0\n.text:00010be4\n.text:00010be8\n.text:00010bec\n.text:00010bf0\n.text:00010bf4\n.text:00010bf6\n'
p230
tp231
sS'abort'
p232
(S'\n__stdcall abort()\n'
p233
V\u000a/* WARNING: Unknown calling convention yet parameter storage is locked */\u000a\u000avoid abort(void)\u000a\u000a{\u000a  (*(code *)PTR_abort_00021fd8)();\u000a  return;\u000a}\u000a\u000a
p234
S'adr r12,0x10730\nadd r12,r12,#0x11000\nldr pc,[r12,#0x8a8]!\n'
p235
S'00 c6 8f e2\n11 ca 8c e2\na8 f8 bc e5\n'
p236
S'.plt:00010728\n.plt:0001072c\n.plt:00010730\n'
p237
tp238
sS'__udivmoddi4'
p239
(S'\n__stdcall __udivmoddi4(undefined param_1, undefined param_2, undefined param_3, undefined param_4, undefined4 param_5)\n'
p240
V\u000aundefined8 __udivmoddi4(uint param_1,uint param_2,uint param_3,uint param_4,uint *param_5)\u000a\u000a{\u000a  uint uVar1;\u000a  int iVar2;\u000a  uint uVar3;\u000a  int iVar4;\u000a  uint uVar5;\u000a  uint uVar6;\u000a  uint uVar7;\u000a  int iVar8;\u000a  int iVar9;\u000a  bool bVar10;\u000a  \u000a  bVar10 = param_4 <= param_2;\u000a  if (param_2 == param_4) {\u000a    bVar10 = param_3 <= param_1;\u000a  }\u000a  if (bVar10) {\u000a    iVar9 = count_leading_zeroes(param_4);\u000a    if (param_4 == 0) {\u000a      iVar9 = count_leading_zeroes(param_3);\u000a      iVar2 = count_leading_zeroes(param_2);\u000a      iVar9 = iVar9 + 0x20;\u000a    }\u000a    else {\u000a      iVar2 = count_leading_zeroes(param_2);\u000a    }\u000a    if (param_2 == 0) {\u000a      iVar2 = count_leading_zeroes(param_1);\u000a      iVar2 = iVar2 + 0x20;\u000a    }\u000a    iVar9 = iVar9 - iVar2;\u000a    iVar2 = iVar9 + -0x20;\u000a    iVar8 = 0x20 - iVar9;\u000a    uVar6 = param_4 << iVar9 | param_3 << iVar2 | param_3 >> iVar8;\u000a    param_3 = param_3 << iVar9;\u000a    bVar10 = uVar6 <= param_2;\u000a    if (param_2 == uVar6) {\u000a      bVar10 = param_3 <= param_1;\u000a    }\u000a    if (bVar10) {\u000a      bVar10 = param_1 < param_3;\u000a      param_1 = param_1 - param_3;\u000a      param_2 = param_2 - (uVar6 + (uint)bVar10);\u000a      uVar3 = 1 << iVar2 | 1U >> iVar8;\u000a      uVar1 = 1 << iVar9;\u000a    }\u000a    else {\u000a      uVar1 = 0;\u000a      uVar3 = uVar1;\u000a    }\u000a    if (iVar9 != 0) {\u000a      uVar7 = uVar6 >> 1;\u000a      uVar6 = (uint)((uVar6 & 1) != 0) << 0x1f | param_3 >> 1;\u000a      iVar4 = iVar9;\u000a      do {\u000a        while( true ) {\u000a          bVar10 = uVar7 <= param_2;\u000a          if (param_2 == uVar7) {\u000a            bVar10 = uVar6 <= param_1;\u000a          }\u000a          if (bVar10) break;\u000a          bVar10 = CARRY4(param_1,param_1);\u000a          param_1 = param_1 * 2;\u000a          param_2 = param_2 * 2 + (uint)bVar10;\u000a          iVar4 = iVar4 + -1;\u000a          uVar5 = param_2;\u000a          if (iVar4 == 0) goto LAB_00010cac;\u000a        }\u000a        bVar10 = param_1 < uVar6;\u000a        uVar5 = param_1 - uVar6;\u000a        param_1 = uVar5 * 2 + 1;\u000a        param_2 = (param_2 - (uVar7 + (uint)bVar10)) * 2 + (uint)CARRY4(uVar5,uVar5) +\u000a                  (uint)(0xfffffffe < uVar5 * 2);\u000a        iVar4 = iVar4 + -1;\u000a        uVar5 = param_2;\u000a      } while (iVar4 != 0);\u000aLAB_00010cac:\u000a      bVar10 = CARRY4(uVar1,param_1);\u000a      uVar6 = uVar1 + param_1;\u000a      param_2 = uVar5 >> iVar9;\u000a      param_1 = param_1 >> iVar9 | uVar5 << iVar8 | uVar5 >> iVar2;\u000a      uVar1 = uVar6 - (param_1 << iVar9);\u000a      uVar3 = (uVar5 + uVar3 + (uint)bVar10) -\u000a              ((param_2 << iVar9 | param_1 << iVar9 + -0x20 | param_1 >> 0x20 - iVar9) +\u000a              (uint)(uVar6 < param_1 << iVar9));\u000a    }\u000a  }\u000a  else {\u000a    uVar1 = 0;\u000a    uVar3 = uVar1;\u000a  }\u000a  if (param_5 != (uint *)0x0) {\u000a    *param_5 = param_1;\u000a    param_5[1] = param_2;\u000a  }\u000a  return CONCAT44(uVar1,uVar3);\u000a}\u000a\u000a
p241
S'push { r4, r5, r6, r7, r8, r9, r10, lr  }\nmov r5,r1\ncmp r5,r3\nmov r4,r0\nit eq\ncmp.eq r0,r2\nmov r1,r2\nldr.w lr,[sp,#0x20]\nitT cc\nmov.cc r0,#0x0\nmov.cc r1,r0\nbcc 0x00010cf2\nmov r2,r3\nclz r12,r3\ncmp r3,#0x0\nbeq 0x00010d08\nclz r0,r5\ncmp r5,#0x0\nbeq 0x00010d00\nsub.w r12,r12,r0\nsub.w r8,r12,#0x20\nlsl.w r7,r2,r12\nlsl.w r3,r1,r8\nrsb r9,r12,#0x20\norr r7,r3\nlsr.w r3,r1,r9\norr r7,r3\nlsl.w r6,r1,r12\ncmp r5,r7\nit eq\ncmp.eq r4,r6\nitT cc\nmov.cc r0,#0x0\nmov.cc r1,r0\nbcc 0x00010c76\nmov r0,#0x1\nsub r4,r4,r6\nlsl.w r1,r0,r8\nlsr.w r3,r0,r9\nsbc.w r5,r5,r7\norr r1,r3\nlsl.w r0,r0,r12\ncmp.w r12,#0x0\nbeq 0x00010cf2\nlsr r7,r7,#0x1\nrrx r6,r6\nmov r2,r12\nb 0x00010c9c\nsub r3,r4,r6\nsbc.w r10,r5,r7\nadd r3,r3,r3\nadc.w r10,r10,r10\nadd r4,r3,#0x1\nadc r5,r10,#0x0\nsub r2,#0x1\nbeq 0x00010cac\ncmp r5,r7\nit eq\ncmp.eq r4,r6\nbcs 0x00010c86\nadd r4,r4,r4\nadc r5,r5\nsub r2,#0x1\nbne 0x00010c9c\nlsr.w r3,r4,r12\nlsl.w r9,r5,r9\nlsr.w r8,r5,r8\norr.w r3,r3,r9\nadd r0,r0,r4\nlsr.w r7,r5,r12\norr.w r4,r3,r8\nsub.w r6,r12,#0x20\nrsb r2,r12,#0x20\nlsl.w r3,r7,r12\nlsl.w r6,r4,r6\nlsl.w r12,r4,r12\norr.w r3,r3,r6\nlsr.w r2,r4,r2\nadc.w r1,r5,r1\norr r3,r2\nsubs.w r0,r0,r12\nmov r5,r7\nsbc.w r1,r1,r3\ncmp.w lr,#0x0\nbeq 0x00010cfc\nstrd r4,r5,[lr,#0x0]\npop.w { r4, r5, r6, r7, r8, r9, r10, pc }\nclz r0,r4\nadd r0,#0x20\nb 0x00010c32\nclz r12,r1\nclz r0,r5\nadd.w r12,r12,#0x20\ncmp r5,#0x0\nbne 0x00010c32\nb 0x00010d00\n'
p242
S'2d e9 f0 47\n0d 46\n9d 42\n04 46\n08 bf\n90 42\n11 46\ndd f8 20 e0\n3c bf\n00 20\n01 46\n68 d3\n1a 46\nb3 fa 83 fc\n00 2b\n6e d0\nb5 fa 85 f0\n00 2d\n66 d0\nac eb 00 0c\nac f1 20 08\n02 fa 0c f7\n01 fa 08 f3\ncc f1 20 09\n1f 43\n21 fa 09 f3\n1f 43\n01 fa 0c f6\nbd 42\n08 bf\nb4 42\n3c bf\n00 20\n01 46\n0a d3\n01 20\na4 1b\n00 fa 08 f1\n20 fa 09 f3\n65 eb 07 05\n19 43\n00 fa 0c f0\nbc f1 00 0f\n3a d0\n7f 08\n4f ea 36 06\n62 46\n0a e0\na3 1b\n65 eb 07 0a\ndb 18\n4a eb 0a 0a\n5c 1c\n4a f1 00 05\n01 3a\n07 d0\nbd 42\n08 bf\nb4 42\nf0 d2\n24 19\n6d 41\n01 3a\nf7 d1\n24 fa 0c f3\n05 fa 09 f9\n25 fa 08 f8\n43 ea 09 03\n00 19\n25 fa 0c f7\n43 ea 08 04\nac f1 20 06\ncc f1 20 02\n07 fa 0c f3\n04 fa 06 f6\n04 fa 0c fc\n43 ea 06 03\n24 fa 02 f2\n45 eb 01 01\n13 43\nb0 eb 0c 00\n3d 46\n61 eb 03 01\nbe f1 00 0f\n01 d0\nce e9 00 45\nbd e8 f0 87\nb4 fa 84 f0\n20 30\n94 e7\nb1 fa 81 fc\nb5 fa 85 f0\n0c f1 20 0c\n00 2d\n8c d1\nf2 e7\n'
p243
S'.text:00010c04\n.text:00010c08\n.text:00010c0a\n.text:00010c0c\n.text:00010c0e\n.text:00010c10\n.text:00010c12\n.text:00010c14\n.text:00010c18\n.text:00010c1a\n.text:00010c1c\n.text:00010c1e\n.text:00010c20\n.text:00010c22\n.text:00010c26\n.text:00010c28\n.text:00010c2a\n.text:00010c2e\n.text:00010c30\n.text:00010c32\n.text:00010c36\n.text:00010c3a\n.text:00010c3e\n.text:00010c42\n.text:00010c46\n.text:00010c48\n.text:00010c4c\n.text:00010c4e\n.text:00010c52\n.text:00010c54\n.text:00010c56\n.text:00010c58\n.text:00010c5a\n.text:00010c5c\n.text:00010c5e\n.text:00010c60\n.text:00010c62\n.text:00010c64\n.text:00010c68\n.text:00010c6c\n.text:00010c70\n.text:00010c72\n.text:00010c76\n.text:00010c7a\n.text:00010c7c\n.text:00010c7e\n.text:00010c82\n.text:00010c84\n.text:00010c86\n.text:00010c88\n.text:00010c8c\n.text:00010c8e\n.text:00010c92\n.text:00010c94\n.text:00010c98\n.text:00010c9a\n.text:00010c9c\n.text:00010c9e\n.text:00010ca0\n.text:00010ca2\n.text:00010ca4\n.text:00010ca6\n.text:00010ca8\n.text:00010caa\n.text:00010cac\n.text:00010cb0\n.text:00010cb4\n.text:00010cb8\n.text:00010cbc\n.text:00010cbe\n.text:00010cc2\n.text:00010cc6\n.text:00010cca\n.text:00010cce\n.text:00010cd2\n.text:00010cd6\n.text:00010cda\n.text:00010cde\n.text:00010ce2\n.text:00010ce6\n.text:00010ce8\n.text:00010cec\n.text:00010cee\n.text:00010cf2\n.text:00010cf6\n.text:00010cf8\n.text:00010cfc\n.text:00010d00\n.text:00010d04\n.text:00010d06\n.text:00010d08\n.text:00010d0c\n.text:00010d10\n.text:00010d14\n.text:00010d16\n.text:00010d18\n'
p244
tp245
sS'__do_global_dtors_aux'
p246
(S'\n__stdcall __do_global_dtors_aux()\n'
p247
V\u000avoid __do_global_dtors_aux(void)\u000a\u000a{\u000a  if (*(char *)(DAT_0001082c + 0x1080a) == 0) {\u000a    if (*(int *)(DAT_00010830 + 0x1080c + DAT_00010834) != 0) {\u000a      __cxa_finalize(*(undefined4 *)(DAT_00010838 + 0x1081a));\u000a    }\u000a    deregister_tm_clones();\u000a    *(undefined *)(DAT_0001083c + 0x1082a) = 1;\u000a  }\u000a  return;\u000a}\u000a\u000a
p248
S'push { r3, lr }\nldr r3,[0x0001082c]\nldr r2,[0x00010830]\nadd r3,pc\nadd r2,pc\nldrb r3,[r3,#0x0]\ncbnz r3,0x0001082a\nldr r3,[0x00010834]\nldr r3,[r2,r3]\ncbz r3,0x0001081e\nldr r3,[0x00010838]\nadd r3,pc\nldr r0,[r3,#0x0]\nblx 0x0001065c\nbl 0x000107a0\nldr r3,[0x0001083c]\nmov r2,#0x1\nadd r3,pc\nstrb r2,[r3,#0x0]\npop { r3, pc }\n'
p249
S'08 b5\n0a 4b\n0a 4a\n7b 44\n7a 44\n1b 78\n6b b9\n09 4b\nd3 58\n23 b1\n08 4b\n7b 44\n18 68\nff f7 20 ef\nff f7 bf ff\n06 4b\n01 22\n7b 44\n1a 70\n08 bd\n'
p250
S'.text:00010800\n.text:00010802\n.text:00010804\n.text:00010806\n.text:00010808\n.text:0001080a\n.text:0001080c\n.text:0001080e\n.text:00010810\n.text:00010812\n.text:00010814\n.text:00010816\n.text:00010818\n.text:0001081a\n.text:0001081e\n.text:00010822\n.text:00010824\n.text:00010826\n.text:00010828\n.text:0001082a\n'
p251
tp252
sS'_fini'
p253
(S'\n__stdcall _fini()\n'
p254
V\u000avoid _fini(void)\u000a\u000a{\u000a  return;\u000a}\u000a\u000a
p255
S'stmdb sp!,{ r3 lr }\nldmia sp!,{ r3 pc }\n'
p256
S'08 40 2d e9\n08 80 bd e8\n'
p257
S'.fini:00010d5c\n.fini:00010d60\n'
p258
tp259
s.