(dp0
S'XF86VidModeGetGamma'
p1
(S'\n__stdcall XF86VidModeGetGamma()\n'
p2
V\u000avoid XF86VidModeGetGamma(void)\u000a\u000a{\u000a  (*(code *)PTR_XF86VidModeGetGamma_00602020)();\u000a  return;\u000a}\u000a\u000a
p3
S'JMP qword ptr [0x00602020]\n'
p4
S'ff 25 7a 17 20 00\n'
p5
S'.plt:00000000004008a0\n'
p6
tp7
sS'__libc_csu_init'
p8
(S'\n__stdcall __libc_csu_init()\n'
p9
V\u000avoid __libc_csu_init(EVP_PKEY_CTX *pEParm1,undefined8 uParm2,undefined8 uParm3)\u000a\u000a{\u000a  long lVar1;\u000a  \u000a  _init(pEParm1);\u000a  lVar1 = 0;\u000a  do {\u000a    (*(code *)(&__frame_dummy_init_array_entry)[lVar1])((ulong)pEParm1 & 0xffffffff,uParm2,uParm3);\u000a    lVar1 = lVar1 + 1;\u000a  } while (lVar1 != 1);\u000a  return;\u000a}\u000a\u000a
p10
S'PUSH R15\nPUSH R14\nMOV R15D,EDI\nPUSH R13\nPUSH R12\nLEA R12,[0x601de8]\nPUSH RBP\nLEA RBP,[0x601df0]\nPUSH RBX\nMOV R14,RSI\nMOV R13,RDX\nSUB RBP,R12\nSUB RSP,0x8\nSAR RBP,0x3\nCALL 0x00400868\nTEST RBP,RBP\nJZ 0x004012b6\nXOR EBX,EBX\nNOP dword ptr [RAX + RAX*0x1]\nMOV RDX,R13\nMOV RSI,R14\nMOV EDI,R15D\nCALL qword ptr [R12 + RBX*0x8]\nADD RBX,0x1\nCMP RBP,RBX\nJNZ 0x004012a0\nADD RSP,0x8\nPOP RBX\nPOP RBP\nPOP R12\nPOP R13\nPOP R14\nPOP R15\nRET\n'
p11
S'41 57\n41 56\n41 89 ff\n41 55\n41 54\n4c 8d 25 76 0b 20 00\n55\n48 8d 2d 76 0b 20 00\n53\n49 89 f6\n49 89 d5\n4c 29 e5\n48 83 ec 08\n48 c1 fd 03\ne8 d7 f5 ff ff\n48 85 ed\n74 20\n31 db\n0f 1f 84 00 00 00 00 00\n4c 89 ea\n4c 89 f6\n44 89 ff\n41 ff 14 dc\n48 83 c3 01\n48 39 dd\n75 ea\n48 83 c4 08\n5b\n5d\n41 5c\n41 5d\n41 5e\n41 5f\nc3\n'
p12
S'.text:0000000000401260\n.text:0000000000401262\n.text:0000000000401264\n.text:0000000000401267\n.text:0000000000401269\n.text:000000000040126b\n.text:0000000000401272\n.text:0000000000401273\n.text:000000000040127a\n.text:000000000040127b\n.text:000000000040127e\n.text:0000000000401281\n.text:0000000000401284\n.text:0000000000401288\n.text:000000000040128c\n.text:0000000000401291\n.text:0000000000401294\n.text:0000000000401296\n.text:0000000000401298\n.text:00000000004012a0\n.text:00000000004012a3\n.text:00000000004012a6\n.text:00000000004012a9\n.text:00000000004012ad\n.text:00000000004012b1\n.text:00000000004012b4\n.text:00000000004012b6\n.text:00000000004012ba\n.text:00000000004012bb\n.text:00000000004012bc\n.text:00000000004012be\n.text:00000000004012c0\n.text:00000000004012c2\n.text:00000000004012c4\n'
p13
tp14
sS'_init'
p15
(S'\n__stdcall _init(EVP_PKEY_CTX * ctx)\n'
p16
V\u000aint _init(EVP_PKEY_CTX *ctx)\u000a\u000a{\u000a  int iVar1;\u000a  \u000a  iVar1 = (int)PTR___gmon_start___00601ff8;\u000a  if (PTR___gmon_start___00601ff8 != (undefined *)0x0) {\u000a    iVar1 = (*(code *)PTR___gmon_start___00601ff8)();\u000a  }\u000a  return iVar1;\u000a}\u000a\u000a
p17
S'SUB RSP,0x8\nMOV RAX,qword ptr [0x00601ff8]\nTEST RAX,RAX\nJZ 0x0040087a\nCALL RAX\nADD RSP,0x8\nRET\n'
p18
S'48 83 ec 08\n48 8b 05 85 17 20 00\n48 85 c0\n74 02\nff d0\n48 83 c4 08\nc3\n'
p19
S'.init:0000000000400868\n.init:000000000040086c\n.init:0000000000400873\n.init:0000000000400876\n.init:0000000000400878\n.init:000000000040087a\n.init:000000000040087e\n'
p20
tp21
sS'XOpenDisplay'
p22
(S'\n__stdcall XOpenDisplay()\n'
p23
V\u000avoid XOpenDisplay(void)\u000a\u000a{\u000a  (*(code *)PTR_XOpenDisplay_00602058)();\u000a  return;\u000a}\u000a\u000a
p24
S'JMP qword ptr [0x00602058]\n'
p25
S'ff 25 42 17 20 00\n'
p26
S'.plt:0000000000400910\n'
p27
tp28
sS'_start'
p29
(S'\n__stdcall _start()\n'
p30
V\u000avoid _start(undefined8 uParm1,undefined8 uParm2,undefined8 uParm3)\u000a\u000a{\u000a  undefined8 in_stack_00000000;\u000a  undefined auStack8 [8];\u000a  \u000a  (*(code *)PTR___libc_start_main_00601ff0)\u000a            (main,in_stack_00000000,&stack0x00000008,__libc_csu_init,__libc_csu_fini,uParm3,auStack8\u000a            );\u000a  do {\u000a                    /* WARNING: Do nothing block with infinite loop */\u000a  } while( true );\u000a}\u000a\u000a
p31
S'XOR EBP,EBP\nMOV R9,RDX\nPOP RSI\nMOV RDX,RSP\nAND RSP,-0x10\nPUSH RAX\nPUSH RSP\nMOV R8,0x4012d0\nMOV RCX,0x401260\nMOV RDI,0x400a90\nCALL qword ptr [0x00601ff0]\nHLT\n'
p32
S'31 ed\n49 89 d1\n5e\n48 89 e2\n48 83 e4 f0\n50\n54\n49 c7 c0 d0 12 40 00\n48 c7 c1 60 12 40 00\n48 c7 c7 90 0a 40 00\nff 15 36 16 20 00\nf4\n'
p33
S'.text:0000000000400990\n.text:0000000000400992\n.text:0000000000400995\n.text:0000000000400996\n.text:0000000000400999\n.text:000000000040099d\n.text:000000000040099e\n.text:000000000040099f\n.text:00000000004009a6\n.text:00000000004009ad\n.text:00000000004009b4\n.text:00000000004009ba\n'
p34
tp35
sS'main'
p36
(S'\n__stdcall main(char * * argv)\n'
p37
V\u000a/* WARNING: Globals starting with '_' overlap smaller symbols at the same address */\u000a\u000aint main(char **argv)\u000a\u000a{\u000a  char *s;\u000a  bool bVar1;\u000a  FILE *__stream;\u000a  int iVar2;\u000a  int __status;\u000a  long lVar3;\u000a  undefined8 uVar4;\u000a  uint uVar5;\u000a  char **in_RSI;\u000a  size_t __size;\u000a  char *__ptr;\u000a  int iVar6;\u000a  float fVar7;\u000a  double dVar8;\u000a  float fVar9;\u000a  float local_4c;\u000a  float local_48;\u000a  float local_44;\u000a  float local_40;\u000a  float local_3c;\u000a  float local_38;\u000a  uint local_34;\u000a  \u000a  __status = (int)argv;\u000a  ProgramName = *in_RSI;\u000a  if (__status < 2) {\u000aLAB_00400ea0:\u000a    local_34 = 0xffffffff;\u000a    __ptr = (char *)0x0;\u000a    local_44 = DAT_004012e4;\u000a    local_48 = DAT_004012e4;\u000a    local_4c = DAT_004012e4;\u000a    bVar1 = false;\u000a    fVar9 = DAT_004012e4;\u000a  }\u000a  else {\u000a    bVar1 = false;\u000a    local_34 = 0xffffffff;\u000a    iVar6 = 1;\u000a    local_48 = DAT_004012e4;\u000a    local_44 = DAT_004012e4;\u000a    local_4c = DAT_004012e4;\u000a    __ptr = (char *)0x0;\u000a    fVar9 = DAT_004012e4;\u000a    do {\u000a      s = in_RSI[(long)iVar6];\u000a      if (*s != '-') {\u000a        fprintf(stderr,"%s: unrecognized argument %s\u005cn\u005cn",ProgramName,s);\u000a        Syntax((char *)0x0);\u000aLAB_00400dc4:\u000a        Syntax("-display requires an argument");\u000aLAB_00400dce:\u000a        puts("xgamma 1.0.6");\u000a                    /* WARNING: Subroutine does not return */\u000a        exit(0);\u000a      }\u000a      iVar2 = isabbreviation("-display",s,1);\u000a      if (iVar2 == 0) {\u000a        iVar2 = isabbreviation("-quiet",s,1);\u000a        if (iVar2 == 0) {\u000a          iVar2 = isabbreviation("-version",s,1);\u000a          if (iVar2 != 0) goto LAB_00400dce;\u000a          iVar2 = isabbreviation("-screen",s,1);\u000a          if (iVar2 != 0) {\u000a            iVar6 = iVar6 + 1;\u000a            if (__status <= iVar6) {\u000a              Syntax("-screen requires an argument");\u000a              goto LAB_00400de9;\u000a            }\u000a            local_34 = atoi(in_RSI[(long)iVar6]);\u000a            goto LAB_00400d20;\u000a          }\u000a          iVar2 = isabbreviation("-gamma",s,2);\u000a          if (iVar2 == 0) {\u000a            iVar2 = isabbreviation("-rgamma",s,2);\u000a            if (iVar2 != 0) {\u000a              if (__status <= iVar6 + 1) goto LAB_00400e2a;\u000a              if (local_4c < 0.00000000) {\u000a                dVar8 = atof(in_RSI[(long)(iVar6 + 1)]);\u000a                fVar7 = (float)dVar8;\u000a                local_44 = fVar7;\u000a                if (_DAT_004012e8 < fVar7) goto LAB_00400de9;\u000a                goto LAB_00400d00;\u000a              }\u000a              goto LAB_00400e34;\u000a            }\u000a            iVar2 = isabbreviation("-ggamma",s,2);\u000a            if (iVar2 != 0) {\u000a              if (__status <= iVar6 + 1) goto LAB_00400e3e;\u000a              if (local_4c < 0.00000000) {\u000a                dVar8 = atof(in_RSI[(long)(iVar6 + 1)]);\u000a                fVar7 = (float)dVar8;\u000a                local_48 = fVar7;\u000a                if (_DAT_004012e8 < fVar7) goto LAB_00400de9;\u000a                goto LAB_00400d00;\u000a              }\u000a              goto LAB_00400e48;\u000a            }\u000a            iVar2 = isabbreviation("-bgamma",s,2);\u000a            if (iVar2 == 0) goto LAB_00400e52;\u000a            if (__status <= iVar6 + 1) goto LAB_00400e8c;\u000a            if (local_4c < 0.00000000) {\u000a              dVar8 = atof(in_RSI[(long)(iVar6 + 1)]);\u000a              fVar7 = (float)dVar8;\u000a              fVar9 = fVar7;\u000a              if (_DAT_004012e8 < fVar7) goto LAB_00400de9;\u000a              goto LAB_00400d00;\u000a            }\u000a          }\u000a          else {\u000a            if (iVar6 + 1 < __status) {\u000a              if (((local_44 < 0.00000000) && (local_48 < 0.00000000)) && (fVar9 < 0.00000000)) {\u000a                dVar8 = atof(in_RSI[(long)(iVar6 + 1)]);\u000a                fVar7 = (float)dVar8;\u000a                local_4c = fVar7;\u000a                if (_DAT_004012e8 < fVar7) goto LAB_00400de9;\u000aLAB_00400d00:\u000a                iVar6 = iVar6 + 1;\u000a                if ((double)fVar7 < (double)DAT_004012f0) {\u000aLAB_00400de9:\u000a                  fprintf(DAT_004012f0,_DAT_004012f8,stderr,\u000a                          "Gamma values must be between %6.3f and %6.3f\u005cn");\u000a                    /* WARNING: Subroutine does not return */\u000a                  exit(1);\u000a                }\u000a                goto LAB_00400d20;\u000a              }\u000a            }\u000a            else {\u000a              Syntax("-gamma requires an argument");\u000a            }\u000a            Syntax("-gamma cannot be used with -rgamma, -ggamma, or -bgamma");\u000aLAB_00400e2a:\u000a            Syntax("-rgamma requires an argument");\u000aLAB_00400e34:\u000a            Syntax("cannot set both -gamma and -rgamma");\u000aLAB_00400e3e:\u000a            Syntax("-ggamma requires an argument");\u000aLAB_00400e48:\u000a            Syntax("cannot set both -gamma and -ggamma");\u000aLAB_00400e52:\u000a            __status = isabbreviation("-help",s,1);\u000a            if (__status == 0) {\u000a              fprintf(stderr,"%s: unrecognized argument %s\u005cn\u005cn",ProgramName);\u000a            }\u000a            Syntax((char *)0x0);\u000aLAB_00400e8c:\u000a            Syntax("-bgamma requires an argument");\u000a          }\u000a          Syntax("cannot set both -gamma and -bgamma");\u000a          goto LAB_00400ea0;\u000a        }\u000a        bVar1 = true;\u000a      }\u000a      else {\u000a        iVar6 = iVar6 + 1;\u000a        if (__status <= iVar6) goto LAB_00400dc4;\u000a        __ptr = in_RSI[(long)iVar6];\u000a      }\u000aLAB_00400d20:\u000a      iVar6 = iVar6 + 1;\u000a    } while (iVar6 < __status);\u000a  }\u000a  lVar3 = XOpenDisplay(__ptr);\u000a  s = ProgramName;\u000a  __stream = stderr;\u000a  if (lVar3 == 0) {\u000a    uVar4 = XDisplayName(__ptr);\u000a    fprintf(__stream,"%s:  unable to open display \u005c'%s\u005c'\u005cn",s,uVar4);\u000a                    /* WARNING: Subroutine does not return */\u000a    exit(1);\u000a  }\u000a  uVar5 = local_34;\u000a  if (local_34 == 0xffffffff) {\u000a    uVar5 = *(uint *)(lVar3 + 0xe0);\u000a  }\u000a  __status = XF86VidModeQueryVersion(lVar3,&MajorVersion,&MinorVersion);\u000a  if (__status == 0) {\u000a    __ptr = "Unable to query video extension version\u005cn";\u000a    __size = 0x28;\u000aLAB_00400f72:\u000a    fwrite(__ptr,__size,1,stderr);\u000a                    /* WARNING: Subroutine does not return */\u000a    exit(2);\u000a  }\u000a  __status = XF86VidModeQueryExtension(lVar3,&EventBase,&ErrorBase);\u000a  if (__status == 0) {\u000a    __ptr = "Unable to query video extension information\u005cn";\u000a    __size = 0x2c;\u000a    goto LAB_00400f72;\u000a  }\u000a  if ((MajorVersion < 2) || ((MajorVersion == 2 && (MinorVersion < 0)))) {\u000a    fprintf(stderr,"Xserver is running an old XFree86-VidModeExtension version (%d.%d)\u005cn");\u000a    fprintf(stderr,"Minimum required version is %d.%d\u005cn",2,0);\u000a                    /* WARNING: Subroutine does not return */\u000a    exit(2);\u000a  }\u000a  __status = XF86VidModeGetGamma(lVar3,(ulong)uVar5,&local_40);\u000a  if (__status == 0) {\u000a    fwrite("Unable to query gamma correction\u005cn",0x21,1,stderr);\u000a    XCloseDisplay(lVar3);\u000a                    /* WARNING: Subroutine does not return */\u000a    exit(2);\u000a  }\u000a  if (!bVar1) {\u000a    fprintf((FILE *)(double)local_40,(char *)stderr,"-> Red %6.3f, Green %6.3f, Blue %6.3f\u005cn");\u000a  }\u000a  if (0.00000000 <= local_4c) {\u000a    local_40 = local_4c;\u000a    local_3c = local_4c;\u000a    local_38 = local_4c;\u000a    __status = XF86VidModeSetGamma(lVar3,(ulong)uVar5,&local_40);\u000a    if (__status == 0) goto LAB_0040110f;\u000a    __status = XF86VidModeGetGamma(lVar3,(ulong)uVar5,&local_40);\u000a    if (__status != 0) goto LAB_00401169;\u000aLAB_0040113c:\u000a    __ptr = "Unable to query gamma correction\u005cn";\u000a    __size = 0x21;\u000a  }\u000a  else {\u000a    __status = 0;\u000a    if (((local_48 < 0.00000000) && (local_44 < 0.00000000)) && (fVar9 < 0.00000000))\u000a    goto LAB_00401156;\u000a    if (0.00000000 <= local_44) {\u000a      local_40 = local_44;\u000a    }\u000a    if (0.00000000 <= local_48) {\u000a      local_3c = local_48;\u000a    }\u000a    if (0.00000000 <= fVar9) {\u000a      local_38 = fVar9;\u000a    }\u000a    __status = XF86VidModeSetGamma(lVar3,(ulong)uVar5,&local_40);\u000a    if (__status != 0) {\u000a      __status = XF86VidModeGetGamma(lVar3,(ulong)uVar5,&local_40);\u000a      if (__status == 0) goto LAB_0040113c;\u000aLAB_00401169:\u000a      __status = 0;\u000a      if (!bVar1) {\u000a        fprintf((FILE *)(double)local_40,(char *)(double)local_3c,(double)local_38,stderr,\u000a                "<- Red %6.3f, Green %6.3f, Blue %6.3f\u005cn");\u000a      }\u000a      goto LAB_00401156;\u000a    }\u000aLAB_0040110f:\u000a    __ptr = "Unable to set gamma correction\u005cn";\u000a    __size = 0x1f;\u000a  }\u000a  fwrite(__ptr,__size,1,stderr);\u000a  __status = 2;\u000aLAB_00401156:\u000a  XCloseDisplay();\u000a                    /* WARNING: Subroutine does not return */\u000a  exit(__status);\u000a}\u000a\u000a
p38
S'PUSH RBP\nPUSH R15\nPUSH R14\nPUSH R13\nPUSH R12\nPUSH RBX\nSUB RSP,0x28\nMOV R12,RSI\nMOV EBP,EDI\nMOV RAX,qword ptr [R12]\nMOV qword ptr [0x006020d0],RAX\nCMP EBP,0x2\nJL 0x00400ea0\nMOVSS XMM1,dword ptr [0x004012e4]\nXOR R13D,R13D\nMOV dword ptr [RSP + 0x24],0xffffffff\nMOV R14D,0x1\nMOVSS dword ptr [RSP + 0x10],XMM1\nMOVSS dword ptr [RSP + 0x14],XMM1\nMOVSS dword ptr [RSP + 0xc],XMM1\nXOR R15D,R15D\nJMP 0x00400d90\nMOVSS dword ptr [RSP + 0x8],XMM1\nMOV EDI,0x401300\nMOV EDX,0x1\nMOV RSI,RBX\nCALL 0x004011a0\nTEST EAX,EAX\nJZ 0x00400b30\nINC R14D\nCMP R14D,EBP\nMOVSS XMM1,dword ptr [RSP + 0x8]\nJGE 0x00400dc4\nMOVSXD RAX,R14D\nMOV R15,qword ptr [R12 + RAX*0x8]\nJMP 0x00400d20\nMOV EDI,0x401327\nMOV EDX,0x1\nMOV RSI,RBX\nCALL 0x004011a0\nTEST EAX,EAX\nJZ 0x00400b57\nMOV R13D,0x1\nMOVSS XMM1,dword ptr [RSP + 0x8]\nJMP 0x00400d20\nMOV EDI,0x40132e\nMOV EDX,0x1\nMOV RSI,RBX\nCALL 0x004011a0\nTEST EAX,EAX\nJNZ 0x00400dce\nMOV EDI,0x401344\nMOV EDX,0x1\nMOV RSI,RBX\nCALL 0x004011a0\nTEST EAX,EAX\nJZ 0x00400bae\nINC R14D\nCMP R14D,EBP\nJGE 0x00400ddf\nMOVSXD RAX,R14D\nMOV RDI,qword ptr [R12 + RAX*0x8]\nCALL 0x00400940\nMOV dword ptr [RSP + 0x24],EAX\nMOVSS XMM1,dword ptr [RSP + 0x8]\nJMP 0x00400d20\nMOV EDI,0x401369\nMOV EDX,0x2\nMOV RSI,RBX\nCALL 0x004011a0\nTEST EAX,EAX\nJZ 0x00400c34\nINC R14D\nCMP R14D,EBP\nJGE 0x00400e16\nMOVSS XMM0,dword ptr [RSP + 0x14]\nXORPS XMM1,XMM1\nUCOMISS XMM0,XMM1\nMOVSS XMM0,dword ptr [RSP + 0x10]\nJNC 0x00400e20\nUCOMISS XMM0,XMM1\nJNC 0x00400e20\nMOVSS XMM0,dword ptr [RSP + 0x8]\nUCOMISS XMM0,XMM1\nJNC 0x00400e20\nMOVSXD RAX,R14D\nMOV RDI,qword ptr [R12 + RAX*0x8]\nCALL 0x004008c0\nCVTSD2SS XMM0,XMM0\nMOVSS dword ptr [RSP + 0xc],XMM0\nUCOMISS XMM0,dword ptr [0x004012e8]\nMOVSS XMM1,dword ptr [RSP + 0x8]\nJA 0x00400de9\nMOVSS XMM0,dword ptr [RSP + 0xc]\nJMP 0x00400cfc\nMOV EDI,0x40142a\nMOV EDX,0x2\nMOV RSI,RBX\nCALL 0x004011a0\nTEST EAX,EAX\nJZ 0x00400c99\nINC R14D\nCMP R14D,EBP\nJGE 0x00400e2a\nMOVSS XMM0,dword ptr [RSP + 0xc]\nXORPS XMM1,XMM1\nUCOMISS XMM0,XMM1\nJNC 0x00400e34\nMOVSXD RAX,R14D\nMOV RDI,qword ptr [R12 + RAX*0x8]\nCALL 0x004008c0\nCVTSD2SS XMM0,XMM0\nMOVSS dword ptr [RSP + 0x14],XMM0\nUCOMISS XMM0,dword ptr [0x004012e8]\nMOVSS XMM1,dword ptr [RSP + 0x8]\nJA 0x00400de9\nMOVSS XMM0,dword ptr [RSP + 0x14]\nJMP 0x00400cfc\nMOV EDI,0x40146a\nMOV EDX,0x2\nMOV RSI,RBX\nCALL 0x004011a0\nTEST EAX,EAX\nJZ 0x00400d2d\nINC R14D\nCMP R14D,EBP\nJGE 0x00400e3e\nMOVSS XMM0,dword ptr [RSP + 0xc]\nXORPS XMM1,XMM1\nUCOMISS XMM0,XMM1\nJNC 0x00400e48\nMOVSXD RAX,R14D\nMOV RDI,qword ptr [R12 + RAX*0x8]\nCALL 0x004008c0\nCVTSD2SS XMM0,XMM0\nMOVSS dword ptr [RSP + 0x10],XMM0\nUCOMISS XMM0,dword ptr [0x004012e8]\nMOVSS XMM1,dword ptr [RSP + 0x8]\nJA 0x00400de9\nMOVSS XMM0,dword ptr [RSP + 0x10]\nCVTSS2SD XMM0,XMM0\nMOVSD XMM2,qword ptr [0x004012f0]\nUCOMISD XMM2,XMM0\nJA 0x00400de9\nNOP word ptr CS:[RAX + RAX*0x1]\nINC R14D\nCMP R14D,EBP\nJL 0x00400d90\nJMP 0x00400ec8\nMOV EDI,0x4014aa\nMOV EDX,0x2\nMOV RSI,RBX\nCALL 0x004011a0\nTEST EAX,EAX\nJZ 0x00400e52\nINC R14D\nCMP R14D,EBP\nJGE 0x00400e8c\nMOVSS XMM0,dword ptr [RSP + 0xc]\nXORPS XMM1,XMM1\nUCOMISS XMM0,XMM1\nJNC 0x00400e96\nMOVSXD RAX,R14D\nMOV RDI,qword ptr [R12 + RAX*0x8]\nCALL 0x004008c0\nXORPS XMM1,XMM1\nCVTSD2SS XMM1,XMM0\nUCOMISS XMM1,dword ptr [0x004012e8]\nJA 0x00400de9\nXORPS XMM0,XMM0\nCVTSS2SD XMM0,XMM1\nJMP 0x00400d00\nMOVSXD RAX,R14D\nMOV RBX,qword ptr [R12 + RAX*0x8]\nCMP byte ptr [RBX],0x2d\nJZ 0x00400af0\nMOV RDI,qword ptr [0x006020c0]\nMOV RDX,qword ptr [0x006020d0]\nMOV ESI,0x4014b8\nXOR EAX,EAX\nMOV RCX,RBX\nCALL 0x00400920\nXOR EDI,EDI\nCALL 0x00401210\nMOV EDI,0x401309\nCALL 0x00401210\nMOV EDI,0x401337\nCALL 0x004008b0\nXOR EDI,EDI\nCALL 0x00400950\nMOV EDI,0x40134c\nCALL 0x00401210\nMOV RDI,qword ptr [0x006020c0]\nMOVSD XMM0,qword ptr [0x004012f0]\nMOVSD XMM1,qword ptr [0x004012f8]\nMOV ESI,0x4013c4\nMOV AL,0x2\nCALL 0x00400920\nMOV EDI,0x1\nCALL 0x00400950\nMOV EDI,0x401370\nCALL 0x00401210\nMOV EDI,0x40138c\nCALL 0x00401210\nMOV EDI,0x4013f2\nCALL 0x00401210\nMOV EDI,0x40140f\nCALL 0x00401210\nMOV EDI,0x401432\nCALL 0x00401210\nMOV EDI,0x40144f\nCALL 0x00401210\nMOV EDI,0x4014b2\nMOV EDX,0x1\nMOV RSI,RBX\nCALL 0x004011a0\nTEST EAX,EAX\nJNZ 0x00400e85\nMOV RDI,qword ptr [0x006020c0]\nMOV RDX,qword ptr [0x006020d0]\nMOV ESI,0x4014b8\nXOR EAX,EAX\nMOV RCX,RBX\nCALL 0x00400920\nXOR EDI,EDI\nCALL 0x00401210\nMOV EDI,0x401472\nCALL 0x00401210\nMOV EDI,0x40148f\nCALL 0x00401210\nMOV dword ptr [RSP + 0x24],0xffffffff\nXOR R15D,R15D\nMOVSS XMM1,dword ptr [0x004012e4]\nMOVSS dword ptr [RSP + 0x14],XMM1\nMOVSS dword ptr [RSP + 0x10],XMM1\nMOVSS dword ptr [RSP + 0xc],XMM1\nXOR R13D,R13D\nMOVSS dword ptr [RSP + 0x8],XMM1\nMOV RDI,R15\nCALL 0x00400910\nMOV RBX,RAX\nTEST RBX,RBX\nJNZ 0x00400f13\nMOV RBX,qword ptr [0x006020c0]\nMOV RBP,qword ptr [0x006020d0]\nMOV RDI,R15\nCALL 0x00400930\nMOV RCX,RAX\nMOV ESI,0x4014d7\nXOR EAX,EAX\nMOV RDI,RBX\nMOV RDX,RBP\nCALL 0x00400920\nMOV EDI,0x1\nCALL 0x00400950\nMOV EBP,dword ptr [RSP + 0x24]\nCMP EBP,-0x1\nJNZ 0x00400f22\nMOV EBP,dword ptr [0xe0 + RBX]\nMOV ESI,0x6020d8\nMOV EDX,0x6020dc\nMOV RDI,RBX\nCALL 0x004008f0\nTEST EAX,EAX\nJNZ 0x00400f4b\nMOV RCX,qword ptr [0x006020c0]\nMOV EDI,0x4014f9\nMOV ESI,0x28\nJMP 0x00400f72\nMOV ESI,0x6020e0\nMOV EDX,0x6020e4\nMOV RDI,RBX\nCALL 0x00400970\nTEST EAX,EAX\nJNZ 0x00400f86\nMOV RCX,qword ptr [0x006020c0]\nMOV EDI,0x401522\nMOV ESI,0x2c\nMOV EDX,0x1\nCALL 0x00400960\nMOV EDI,0x2\nCALL 0x00400950\nMOV EDX,dword ptr [0x006020d8]\nCMP EDX,0x2\nMOV ECX,dword ptr [0x006020dc]\nJL 0x00400f9d\nJNZ 0x00400fd4\nTEST ECX,ECX\nJNS 0x00400fd4\nMOV RDI,qword ptr [0x006020c0]\nMOV ESI,0x40154f\nXOR EAX,EAX\nCALL 0x00400920\nMOV RDI,qword ptr [0x006020c0]\nMOV ESI,0x401593\nMOV EDX,0x2\nXOR ECX,ECX\nXOR EAX,EAX\nCALL 0x00400920\nMOV EDI,0x2\nCALL 0x00400950\nLEA RDX,[RSP + 0x18]\nMOV RDI,RBX\nMOV ESI,EBP\nCALL 0x004008a0\nMOV RCX,qword ptr [0x006020c0]\nTEST EAX,EAX\nJNZ 0x00401014\nMOV EDI,0x4015b6\nMOV ESI,0x21\nMOV EDX,0x1\nCALL 0x00400960\nMOV RDI,RBX\nCALL 0x00400980\nMOV EDI,0x2\nCALL 0x00400950\nTEST R13D,R13D\nJNZ 0x00401046\nMOVSS XMM0,dword ptr [RSP + 0x18]\nMOVSS XMM1,dword ptr [RSP + 0x1c]\nCVTSS2SD XMM0,XMM0\nCVTSS2SD XMM1,XMM1\nMOVSS XMM2,dword ptr [RSP + 0x20]\nCVTSS2SD XMM2,XMM2\nMOV ESI,0x4015d8\nMOV AL,0x3\nMOV RDI,RCX\nCALL 0x00400920\nXORPS XMM0,XMM0\nMOVSS XMM1,dword ptr [RSP + 0xc]\nUCOMISS XMM1,XMM0\nJNC 0x004010ea\nMOVSS XMM1,dword ptr [RSP + 0x14]\nUCOMISS XMM1,XMM0\nSETC AL\nXOR R14D,R14D\nMOVSS XMM1,dword ptr [RSP + 0x10]\nUCOMISS XMM1,XMM0\nMOVSS XMM1,dword ptr [RSP + 0x8]\nJNC 0x00401088\nTEST AL,AL\nJZ 0x00401088\nXORPS XMM0,XMM0\nUCOMISS XMM1,XMM0\nJC 0x00401156\nXORPS XMM0,XMM0\nMOVSS XMM2,dword ptr [RSP + 0x14]\nUCOMISS XMM2,XMM0\nJC 0x0040109c\nMOVSS dword ptr [RSP + 0x18],XMM2\nMOVSS XMM2,dword ptr [RSP + 0x10]\nUCOMISS XMM2,XMM0\nJC 0x004010ad\nMOVSS dword ptr [RSP + 0x1c],XMM2\nXORPS XMM0,XMM0\nUCOMISS XMM1,XMM0\nJC 0x004010bb\nMOVSS dword ptr [RSP + 0x20],XMM1\nLEA RDX,[RSP + 0x18]\nMOV RDI,RBX\nMOV ESI,EBP\nCALL 0x004008d0\nTEST EAX,EAX\nJZ 0x0040110f\nLEA RDX,[RSP + 0x18]\nMOV RDI,RBX\nMOV ESI,EBP\nCALL 0x004008a0\nMOV RCX,qword ptr [0x006020c0]\nTEST EAX,EAX\nJZ 0x0040113c\nJMP 0x00401169\nMOVSS dword ptr [RSP + 0x18],XMM1\nMOVSS dword ptr [RSP + 0x1c],XMM1\nMOVSS dword ptr [RSP + 0x20],XMM1\nLEA RDX,[RSP + 0x18]\nMOV RDI,RBX\nMOV ESI,EBP\nCALL 0x004008d0\nTEST EAX,EAX\nJNZ 0x00401122\nMOV RCX,qword ptr [0x006020c0]\nMOV EDI,0x4015ff\nMOV ESI,0x1f\nJMP 0x00401146\nLEA RDX,[RSP + 0x18]\nMOV RDI,RBX\nMOV ESI,EBP\nCALL 0x004008a0\nMOV RCX,qword ptr [0x006020c0]\nTEST EAX,EAX\nJNZ 0x00401166\nMOV EDI,0x4015b6\nMOV ESI,0x21\nMOV EDX,0x1\nCALL 0x00400960\nMOV R14D,0x2\nMOV RDI,RBX\nCALL 0x00400980\nMOV EDI,R14D\nCALL 0x00400950\nXOR R14D,R14D\nTEST R13D,R13D\nJNZ 0x00401156\nMOVSS XMM0,dword ptr [RSP + 0x18]\nMOVSS XMM1,dword ptr [RSP + 0x1c]\nCVTSS2SD XMM0,XMM0\nCVTSS2SD XMM1,XMM1\nMOVSS XMM2,dword ptr [RSP + 0x20]\nCVTSS2SD XMM2,XMM2\nMOV ESI,0x40161f\nMOV AL,0x3\nMOV RDI,RCX\nCALL 0x00400920\nJMP 0x00401156\n'
p39
S'55\n41 57\n41 56\n41 55\n41 54\n53\n48 83 ec 28\n49 89 f4\n89 fd\n49 8b 04 24\n48 89 05 22 16 20 00\n83 fd 02\n0f 8c e9 03 00 00\nf3 0f 10 0d 25 08 00 00\n45 31 ed\nc7 44 24 24 ff ff ff ff\n41 be 01 00 00 00\nf3 0f 11 4c 24 10\nf3 0f 11 4c 24 14\nf3 0f 11 4c 24 0c\n45 31 ff\ne9 a6 02 00 00\nf3 0f 11 4c 24 08\nbf 00 13 40 00\nba 01 00 00 00\n48 89 de\ne8 98 06 00 00\n85 c0\n74 24\n41 ff c6\n41 39 ee\nf3 0f 10 4c 24 08\n0f 8d a6 02 00 00\n49 63 c6\n4d 8b 3c c4\ne9 f6 01 00 00\nbf 27 13 40 00\nba 01 00 00 00\n48 89 de\ne8 5e 06 00 00\n85 c0\n74 11\n41 bd 01 00 00 00\nf3 0f 10 4c 24 08\ne9 c9 01 00 00\nbf 2e 13 40 00\nba 01 00 00 00\n48 89 de\ne8 37 06 00 00\n85 c0\n0f 85 5d 02 00 00\nbf 44 13 40 00\nba 01 00 00 00\n48 89 de\ne8 1d 06 00 00\n85 c0\n74 27\n41 ff c6\n41 39 ee\n0f 8d 4c 02 00 00\n49 63 c6\n49 8b 3c c4\ne8 a1 fd ff ff\n89 44 24 24\nf3 0f 10 4c 24 08\ne9 72 01 00 00\nbf 69 13 40 00\nba 02 00 00 00\n48 89 de\ne8 e0 05 00 00\n85 c0\n74 70\n41 ff c6\n41 39 ee\n0f 8d 46 02 00 00\nf3 0f 10 44 24 14\n0f 57 c9\n0f 2e c1\nf3 0f 10 44 24 10\n0f 83 38 02 00 00\n0f 2e c1\n0f 83 2f 02 00 00\nf3 0f 10 44 24 08\n0f 2e c1\n0f 83 20 02 00 00\n49 63 c6\n49 8b 3c c4\ne8 b4 fc ff ff\nf2 0f 5a c0\nf3 0f 11 44 24 0c\n0f 2e 05 cb 06 00 00\nf3 0f 10 4c 24 08\n0f 87 c0 01 00 00\nf3 0f 10 44 24 0c\ne9 c8 00 00 00\nbf 2a 14 40 00\nba 02 00 00 00\n48 89 de\ne8 5a 05 00 00\n85 c0\n74 4f\n41 ff c6\n41 39 ee\n0f 8d d4 01 00 00\nf3 0f 10 44 24 0c\n0f 57 c9\n0f 2e c1\n0f 83 cc 01 00 00\n49 63 c6\n49 8b 3c c4\ne8 4c fc ff ff\nf2 0f 5a c0\nf3 0f 11 44 24 14\n0f 2e 05 63 06 00 00\nf3 0f 10 4c 24 08\n0f 87 58 01 00 00\nf3 0f 10 44 24 14\neb 63\nbf 6a 14 40 00\nba 02 00 00 00\n48 89 de\ne8 f5 04 00 00\n85 c0\n74 7e\n41 ff c6\n41 39 ee\n0f 8d 83 01 00 00\nf3 0f 10 44 24 0c\n0f 57 c9\n0f 2e c1\n0f 83 7b 01 00 00\n49 63 c6\n49 8b 3c c4\ne8 e7 fb ff ff\nf2 0f 5a c0\nf3 0f 11 44 24 10\n0f 2e 05 fe 05 00 00\nf3 0f 10 4c 24 08\n0f 87 f3 00 00 00\nf3 0f 10 44 24 10\nf3 0f 5a c0\nf2 0f 10 15 e8 05 00 00\n66 0f 2e d0\n0f 87 d7 00 00 00\n66 66 66 66 66 2e 0f 1f 84 00 00 00 00 00\n41 ff c6\n41 39 ee\n7c 68\ne9 9b 01 00 00\nbf aa 14 40 00\nba 02 00 00 00\n48 89 de\ne8 61 04 00 00\n85 c0\n0f 84 0b 01 00 00\n41 ff c6\n41 39 ee\n0f 8d 39 01 00 00\nf3 0f 10 44 24 0c\n0f 57 c9\n0f 2e c1\n0f 83 31 01 00 00\n49 63 c6\n49 8b 3c c4\ne8 4f fb ff ff\n0f 57 c9\nf2 0f 5a c8\n0f 2e 0d 69 05 00 00\n77 68\n0f 57 c0\nf3 0f 5a c1\ne9 73 ff ff ff\n49 63 c6\n49 8b 1c c4\n80 3b 2d\n0f 84 50 fd ff ff\n48 8b 3d 19 13 20 00\n48 8b 15 22 13 20 00\nbe b8 14 40 00\n31 c0\n48 89 d9\ne8 63 fb ff ff\n31 ff\ne8 4c 04 00 00\nbf 09 13 40 00\ne8 42 04 00 00\nbf 37 13 40 00\ne8 d8 fa ff ff\n31 ff\ne8 71 fb ff ff\nbf 4c 13 40 00\ne8 27 04 00 00\n48 8b 3d d0 12 20 00\nf2 0f 10 05 f8 04 00 00\nf2 0f 10 0d f8 04 00 00\nbe c4 13 40 00\nb0 02\ne8 14 fb ff ff\nbf 01 00 00 00\ne8 3a fb ff ff\nbf 70 13 40 00\ne8 f0 03 00 00\nbf 8c 13 40 00\ne8 e6 03 00 00\nbf f2 13 40 00\ne8 dc 03 00 00\nbf 0f 14 40 00\ne8 d2 03 00 00\nbf 32 14 40 00\ne8 c8 03 00 00\nbf 4f 14 40 00\ne8 be 03 00 00\nbf b2 14 40 00\nba 01 00 00 00\n48 89 de\ne8 3c 03 00 00\n85 c0\n75 1d\n48 8b 3d 51 12 20 00\n48 8b 15 5a 12 20 00\nbe b8 14 40 00\n31 c0\n48 89 d9\ne8 9b fa ff ff\n31 ff\ne8 84 03 00 00\nbf 72 14 40 00\ne8 7a 03 00 00\nbf 8f 14 40 00\ne8 70 03 00 00\nc7 44 24 24 ff ff ff ff\n45 31 ff\nf3 0f 10 0d 31 04 00 00\nf3 0f 11 4c 24 14\nf3 0f 11 4c 24 10\nf3 0f 11 4c 24 0c\n45 31 ed\nf3 0f 11 4c 24 08\n4c 89 ff\ne8 3a fa ff ff\n48 89 c3\n48 85 db\n75 35\n48 8b 1d db 11 20 00\n48 8b 2d e4 11 20 00\n4c 89 ff\ne8 3c fa ff ff\n48 89 c1\nbe d7 14 40 00\n31 c0\n48 89 df\n48 89 ea\ne8 17 fa ff ff\nbf 01 00 00 00\ne8 3d fa ff ff\n8b 6c 24 24\n83 fd ff\n75 06\n8b ab e0 00 00 00\nbe d8 20 60 00\nba dc 20 60 00\n48 89 df\ne8 bc f9 ff ff\n85 c0\n75 13\n48 8b 0d 81 11 20 00\nbf f9 14 40 00\nbe 28 00 00 00\neb 27\nbe e0 20 60 00\nba e4 20 60 00\n48 89 df\ne8 13 fa ff ff\n85 c0\n75 25\n48 8b 0d 58 11 20 00\nbf 22 15 40 00\nbe 2c 00 00 00\nba 01 00 00 00\ne8 e4 f9 ff ff\nbf 02 00 00 00\ne8 ca f9 ff ff\n8b 15 4c 11 20 00\n83 fa 02\n8b 0d 47 11 20 00\n7c 06\n75 3b\n85 c9\n79 37\n48 8b 3d 1c 11 20 00\nbe 4f 15 40 00\n31 c0\ne8 70 f9 ff ff\n48 8b 3d 09 11 20 00\nbe 93 15 40 00\nba 02 00 00 00\n31 c9\n31 c0\ne8 56 f9 ff ff\nbf 02 00 00 00\ne8 7c f9 ff ff\n48 8d 54 24 18\n48 89 df\n89 ee\ne8 bd f8 ff ff\n48 8b 0d d6 10 20 00\n85 c0\n75 26\nbf b6 15 40 00\nbe 21 00 00 00\nba 01 00 00 00\ne8 5e f9 ff ff\n48 89 df\ne8 76 f9 ff ff\nbf 02 00 00 00\ne8 3c f9 ff ff\n45 85 ed\n75 2d\nf3 0f 10 44 24 18\nf3 0f 10 4c 24 1c\nf3 0f 5a c0\nf3 0f 5a c9\nf3 0f 10 54 24 20\nf3 0f 5a d2\nbe d8 15 40 00\nb0 03\n48 89 cf\ne8 da f8 ff ff\n0f 57 c0\nf3 0f 10 4c 24 0c\n0f 2e c8\n0f 83 92 00 00 00\nf3 0f 10 4c 24 14\n0f 2e c8\n0f 92 c0\n45 31 f6\nf3 0f 10 4c 24 10\n0f 2e c8\nf3 0f 10 4c 24 08\n73 10\n84 c0\n74 0c\n0f 57 c0\n0f 2e c8\n0f 82 ce 00 00 00\n0f 57 c0\nf3 0f 10 54 24 14\n0f 2e d0\n72 06\nf3 0f 11 54 24 18\nf3 0f 10 54 24 10\n0f 2e d0\n72 06\nf3 0f 11 54 24 1c\n0f 57 c0\n0f 2e c8\n72 06\nf3 0f 11 4c 24 20\n48 8d 54 24 18\n48 89 df\n89 ee\ne8 06 f8 ff ff\n85 c0\n74 41\n48 8d 54 24 18\n48 89 df\n89 ee\ne8 c3 f7 ff ff\n48 8b 0d dc 0f 20 00\n85 c0\n74 54\neb 7f\nf3 0f 11 4c 24 18\nf3 0f 11 4c 24 1c\nf3 0f 11 4c 24 20\n48 8d 54 24 18\n48 89 df\n89 ee\ne8 c5 f7 ff ff\n85 c0\n75 13\n48 8b 0d aa 0f 20 00\nbf ff 15 40 00\nbe 1f 00 00 00\neb 24\n48 8d 54 24 18\n48 89 df\n89 ee\ne8 6f f7 ff ff\n48 8b 0d 88 0f 20 00\n85 c0\n75 2a\nbf b6 15 40 00\nbe 21 00 00 00\nba 01 00 00 00\ne8 10 f8 ff ff\n41 be 02 00 00 00\n48 89 df\ne8 22 f8 ff ff\n44 89 f7\ne8 ea f7 ff ff\n45 31 f6\n45 85 ed\n75 e8\nf3 0f 10 44 24 18\nf3 0f 10 4c 24 1c\nf3 0f 5a c0\nf3 0f 5a c9\nf3 0f 10 54 24 20\nf3 0f 5a d2\nbe 1f 16 40 00\nb0 03\n48 89 cf\ne8 85 f7 ff ff\neb b9\n'
p40
S'.text:0000000000400a90\n.text:0000000000400a91\n.text:0000000000400a93\n.text:0000000000400a95\n.text:0000000000400a97\n.text:0000000000400a99\n.text:0000000000400a9a\n.text:0000000000400a9e\n.text:0000000000400aa1\n.text:0000000000400aa3\n.text:0000000000400aa7\n.text:0000000000400aae\n.text:0000000000400ab1\n.text:0000000000400ab7\n.text:0000000000400abf\n.text:0000000000400ac2\n.text:0000000000400aca\n.text:0000000000400ad0\n.text:0000000000400ad6\n.text:0000000000400adc\n.text:0000000000400ae2\n.text:0000000000400ae5\n.text:0000000000400af0\n.text:0000000000400af6\n.text:0000000000400afb\n.text:0000000000400b00\n.text:0000000000400b03\n.text:0000000000400b08\n.text:0000000000400b0a\n.text:0000000000400b0c\n.text:0000000000400b0f\n.text:0000000000400b12\n.text:0000000000400b18\n.text:0000000000400b1e\n.text:0000000000400b21\n.text:0000000000400b25\n.text:0000000000400b30\n.text:0000000000400b35\n.text:0000000000400b3a\n.text:0000000000400b3d\n.text:0000000000400b42\n.text:0000000000400b44\n.text:0000000000400b46\n.text:0000000000400b4c\n.text:0000000000400b52\n.text:0000000000400b57\n.text:0000000000400b5c\n.text:0000000000400b61\n.text:0000000000400b64\n.text:0000000000400b69\n.text:0000000000400b6b\n.text:0000000000400b71\n.text:0000000000400b76\n.text:0000000000400b7b\n.text:0000000000400b7e\n.text:0000000000400b83\n.text:0000000000400b85\n.text:0000000000400b87\n.text:0000000000400b8a\n.text:0000000000400b8d\n.text:0000000000400b93\n.text:0000000000400b96\n.text:0000000000400b9a\n.text:0000000000400b9f\n.text:0000000000400ba3\n.text:0000000000400ba9\n.text:0000000000400bae\n.text:0000000000400bb3\n.text:0000000000400bb8\n.text:0000000000400bbb\n.text:0000000000400bc0\n.text:0000000000400bc2\n.text:0000000000400bc4\n.text:0000000000400bc7\n.text:0000000000400bca\n.text:0000000000400bd0\n.text:0000000000400bd6\n.text:0000000000400bd9\n.text:0000000000400bdc\n.text:0000000000400be2\n.text:0000000000400be8\n.text:0000000000400beb\n.text:0000000000400bf1\n.text:0000000000400bf7\n.text:0000000000400bfa\n.text:0000000000400c00\n.text:0000000000400c03\n.text:0000000000400c07\n.text:0000000000400c0c\n.text:0000000000400c10\n.text:0000000000400c16\n.text:0000000000400c1d\n.text:0000000000400c23\n.text:0000000000400c29\n.text:0000000000400c2f\n.text:0000000000400c34\n.text:0000000000400c39\n.text:0000000000400c3e\n.text:0000000000400c41\n.text:0000000000400c46\n.text:0000000000400c48\n.text:0000000000400c4a\n.text:0000000000400c4d\n.text:0000000000400c50\n.text:0000000000400c56\n.text:0000000000400c5c\n.text:0000000000400c5f\n.text:0000000000400c62\n.text:0000000000400c68\n.text:0000000000400c6b\n.text:0000000000400c6f\n.text:0000000000400c74\n.text:0000000000400c78\n.text:0000000000400c7e\n.text:0000000000400c85\n.text:0000000000400c8b\n.text:0000000000400c91\n.text:0000000000400c97\n.text:0000000000400c99\n.text:0000000000400c9e\n.text:0000000000400ca3\n.text:0000000000400ca6\n.text:0000000000400cab\n.text:0000000000400cad\n.text:0000000000400caf\n.text:0000000000400cb2\n.text:0000000000400cb5\n.text:0000000000400cbb\n.text:0000000000400cc1\n.text:0000000000400cc4\n.text:0000000000400cc7\n.text:0000000000400ccd\n.text:0000000000400cd0\n.text:0000000000400cd4\n.text:0000000000400cd9\n.text:0000000000400cdd\n.text:0000000000400ce3\n.text:0000000000400cea\n.text:0000000000400cf0\n.text:0000000000400cf6\n.text:0000000000400cfc\n.text:0000000000400d00\n.text:0000000000400d08\n.text:0000000000400d0c\n.text:0000000000400d12\n.text:0000000000400d20\n.text:0000000000400d23\n.text:0000000000400d26\n.text:0000000000400d28\n.text:0000000000400d2d\n.text:0000000000400d32\n.text:0000000000400d37\n.text:0000000000400d3a\n.text:0000000000400d3f\n.text:0000000000400d41\n.text:0000000000400d47\n.text:0000000000400d4a\n.text:0000000000400d4d\n.text:0000000000400d53\n.text:0000000000400d59\n.text:0000000000400d5c\n.text:0000000000400d5f\n.text:0000000000400d65\n.text:0000000000400d68\n.text:0000000000400d6c\n.text:0000000000400d71\n.text:0000000000400d74\n.text:0000000000400d78\n.text:0000000000400d7f\n.text:0000000000400d81\n.text:0000000000400d84\n.text:0000000000400d88\n.text:0000000000400d90\n.text:0000000000400d93\n.text:0000000000400d97\n.text:0000000000400d9a\n.text:0000000000400da0\n.text:0000000000400da7\n.text:0000000000400dae\n.text:0000000000400db3\n.text:0000000000400db5\n.text:0000000000400db8\n.text:0000000000400dbd\n.text:0000000000400dbf\n.text:0000000000400dc4\n.text:0000000000400dc9\n.text:0000000000400dce\n.text:0000000000400dd3\n.text:0000000000400dd8\n.text:0000000000400dda\n.text:0000000000400ddf\n.text:0000000000400de4\n.text:0000000000400de9\n.text:0000000000400df0\n.text:0000000000400df8\n.text:0000000000400e00\n.text:0000000000400e05\n.text:0000000000400e07\n.text:0000000000400e0c\n.text:0000000000400e11\n.text:0000000000400e16\n.text:0000000000400e1b\n.text:0000000000400e20\n.text:0000000000400e25\n.text:0000000000400e2a\n.text:0000000000400e2f\n.text:0000000000400e34\n.text:0000000000400e39\n.text:0000000000400e3e\n.text:0000000000400e43\n.text:0000000000400e48\n.text:0000000000400e4d\n.text:0000000000400e52\n.text:0000000000400e57\n.text:0000000000400e5c\n.text:0000000000400e5f\n.text:0000000000400e64\n.text:0000000000400e66\n.text:0000000000400e68\n.text:0000000000400e6f\n.text:0000000000400e76\n.text:0000000000400e7b\n.text:0000000000400e7d\n.text:0000000000400e80\n.text:0000000000400e85\n.text:0000000000400e87\n.text:0000000000400e8c\n.text:0000000000400e91\n.text:0000000000400e96\n.text:0000000000400e9b\n.text:0000000000400ea0\n.text:0000000000400ea8\n.text:0000000000400eab\n.text:0000000000400eb3\n.text:0000000000400eb9\n.text:0000000000400ebf\n.text:0000000000400ec5\n.text:0000000000400ec8\n.text:0000000000400ece\n.text:0000000000400ed1\n.text:0000000000400ed6\n.text:0000000000400ed9\n.text:0000000000400edc\n.text:0000000000400ede\n.text:0000000000400ee5\n.text:0000000000400eec\n.text:0000000000400eef\n.text:0000000000400ef4\n.text:0000000000400ef7\n.text:0000000000400efc\n.text:0000000000400efe\n.text:0000000000400f01\n.text:0000000000400f04\n.text:0000000000400f09\n.text:0000000000400f0e\n.text:0000000000400f13\n.text:0000000000400f17\n.text:0000000000400f1a\n.text:0000000000400f1c\n.text:0000000000400f22\n.text:0000000000400f27\n.text:0000000000400f2c\n.text:0000000000400f2f\n.text:0000000000400f34\n.text:0000000000400f36\n.text:0000000000400f38\n.text:0000000000400f3f\n.text:0000000000400f44\n.text:0000000000400f49\n.text:0000000000400f4b\n.text:0000000000400f50\n.text:0000000000400f55\n.text:0000000000400f58\n.text:0000000000400f5d\n.text:0000000000400f5f\n.text:0000000000400f61\n.text:0000000000400f68\n.text:0000000000400f6d\n.text:0000000000400f72\n.text:0000000000400f77\n.text:0000000000400f7c\n.text:0000000000400f81\n.text:0000000000400f86\n.text:0000000000400f8c\n.text:0000000000400f8f\n.text:0000000000400f95\n.text:0000000000400f97\n.text:0000000000400f99\n.text:0000000000400f9b\n.text:0000000000400f9d\n.text:0000000000400fa4\n.text:0000000000400fa9\n.text:0000000000400fab\n.text:0000000000400fb0\n.text:0000000000400fb7\n.text:0000000000400fbc\n.text:0000000000400fc1\n.text:0000000000400fc3\n.text:0000000000400fc5\n.text:0000000000400fca\n.text:0000000000400fcf\n.text:0000000000400fd4\n.text:0000000000400fd9\n.text:0000000000400fdc\n.text:0000000000400fde\n.text:0000000000400fe3\n.text:0000000000400fea\n.text:0000000000400fec\n.text:0000000000400fee\n.text:0000000000400ff3\n.text:0000000000400ff8\n.text:0000000000400ffd\n.text:0000000000401002\n.text:0000000000401005\n.text:000000000040100a\n.text:000000000040100f\n.text:0000000000401014\n.text:0000000000401017\n.text:0000000000401019\n.text:000000000040101f\n.text:0000000000401025\n.text:0000000000401029\n.text:000000000040102d\n.text:0000000000401033\n.text:0000000000401037\n.text:000000000040103c\n.text:000000000040103e\n.text:0000000000401041\n.text:0000000000401046\n.text:0000000000401049\n.text:000000000040104f\n.text:0000000000401052\n.text:0000000000401058\n.text:000000000040105e\n.text:0000000000401061\n.text:0000000000401064\n.text:0000000000401067\n.text:000000000040106d\n.text:0000000000401070\n.text:0000000000401076\n.text:0000000000401078\n.text:000000000040107a\n.text:000000000040107c\n.text:000000000040107f\n.text:0000000000401082\n.text:0000000000401088\n.text:000000000040108b\n.text:0000000000401091\n.text:0000000000401094\n.text:0000000000401096\n.text:000000000040109c\n.text:00000000004010a2\n.text:00000000004010a5\n.text:00000000004010a7\n.text:00000000004010ad\n.text:00000000004010b0\n.text:00000000004010b3\n.text:00000000004010b5\n.text:00000000004010bb\n.text:00000000004010c0\n.text:00000000004010c3\n.text:00000000004010c5\n.text:00000000004010ca\n.text:00000000004010cc\n.text:00000000004010ce\n.text:00000000004010d3\n.text:00000000004010d6\n.text:00000000004010d8\n.text:00000000004010dd\n.text:00000000004010e4\n.text:00000000004010e6\n.text:00000000004010e8\n.text:00000000004010ea\n.text:00000000004010f0\n.text:00000000004010f6\n.text:00000000004010fc\n.text:0000000000401101\n.text:0000000000401104\n.text:0000000000401106\n.text:000000000040110b\n.text:000000000040110d\n.text:000000000040110f\n.text:0000000000401116\n.text:000000000040111b\n.text:0000000000401120\n.text:0000000000401122\n.text:0000000000401127\n.text:000000000040112a\n.text:000000000040112c\n.text:0000000000401131\n.text:0000000000401138\n.text:000000000040113a\n.text:000000000040113c\n.text:0000000000401141\n.text:0000000000401146\n.text:000000000040114b\n.text:0000000000401150\n.text:0000000000401156\n.text:0000000000401159\n.text:000000000040115e\n.text:0000000000401161\n.text:0000000000401166\n.text:0000000000401169\n.text:000000000040116c\n.text:000000000040116e\n.text:0000000000401174\n.text:000000000040117a\n.text:000000000040117e\n.text:0000000000401182\n.text:0000000000401188\n.text:000000000040118c\n.text:0000000000401191\n.text:0000000000401193\n.text:0000000000401196\n.text:000000000040119b\n'
p41
tp42
sS'isabbreviation'
p43
(S'\n__stdcall isabbreviation(char * arg, char * s, size_t minslen)\n'
p44
V\u000aint isabbreviation(char *arg,char *s,size_t minslen)\u000a\u000a{\u000a  int iVar1;\u000a  uint uVar2;\u000a  size_t sVar3;\u000a  size_t __n;\u000a  \u000a  iVar1 = strcmp(arg,s);\u000a  if (iVar1 == 0) {\u000a    uVar2 = 1;\u000a  }\u000a  else {\u000a    sVar3 = strlen(arg);\u000a    __n = strlen(s);\u000a    uVar2 = 0;\u000a    if ((__n < sVar3) && (minslen <= __n)) {\u000a      iVar1 = strncmp(arg,s,__n);\u000a      uVar2 = (uint)(iVar1 == 0);\u000a    }\u000a  }\u000a  return (int)uVar2;\u000a}\u000a\u000a
p45
S'PUSH R15\nPUSH R14\nPUSH R12\nPUSH RBX\nPUSH RAX\nMOV R15,RDX\nMOV R14,RSI\nMOV RBX,RDI\nCALL 0x00400900\nTEST EAX,EAX\nJZ 0x004011f5\nMOV RDI,RBX\nCALL 0x004008e0\nMOV R12,RAX\nMOV RDI,R14\nCALL 0x004008e0\nMOV RCX,RAX\nXOR EAX,EAX\nCMP RCX,R12\nJNC 0x004011fa\nCMP RCX,R15\nJC 0x004011fa\nMOV RDI,RBX\nMOV RSI,R14\nMOV RDX,RCX\nCALL 0x00400890\nMOV ECX,EAX\nXOR EAX,EAX\nTEST ECX,ECX\nSETZ AL\nJMP 0x004011fa\nMOV EAX,0x1\nADD RSP,0x8\nPOP RBX\nPOP R12\nPOP R14\nPOP R15\nRET\n'
p46
S'41 57\n41 56\n41 54\n53\n50\n49 89 d7\n49 89 f6\n48 89 fb\ne8 4a f7 ff ff\n85 c0\n74 3b\n48 89 df\ne8 1e f7 ff ff\n49 89 c4\n4c 89 f7\ne8 13 f7 ff ff\n48 89 c1\n31 c0\n4c 39 e1\n73 23\n4c 39 f9\n72 1e\n48 89 df\n4c 89 f6\n48 89 ca\ne8 a6 f6 ff ff\n89 c1\n31 c0\n85 c9\n0f 94 c0\neb 05\nb8 01 00 00 00\n48 83 c4 08\n5b\n41 5c\n41 5e\n41 5f\nc3\n'
p47
S'.text:00000000004011a0\n.text:00000000004011a2\n.text:00000000004011a4\n.text:00000000004011a6\n.text:00000000004011a7\n.text:00000000004011a8\n.text:00000000004011ab\n.text:00000000004011ae\n.text:00000000004011b1\n.text:00000000004011b6\n.text:00000000004011b8\n.text:00000000004011ba\n.text:00000000004011bd\n.text:00000000004011c2\n.text:00000000004011c5\n.text:00000000004011c8\n.text:00000000004011cd\n.text:00000000004011d0\n.text:00000000004011d2\n.text:00000000004011d5\n.text:00000000004011d7\n.text:00000000004011da\n.text:00000000004011dc\n.text:00000000004011df\n.text:00000000004011e2\n.text:00000000004011e5\n.text:00000000004011ea\n.text:00000000004011ec\n.text:00000000004011ee\n.text:00000000004011f0\n.text:00000000004011f3\n.text:00000000004011f5\n.text:00000000004011fa\n.text:00000000004011fe\n.text:00000000004011ff\n.text:0000000000401201\n.text:0000000000401203\n.text:0000000000401205\n'
p48
tp49
sS'deregister_tm_clones'
p50
(S'\n__stdcall deregister_tm_clones()\n'
p51
V\u000a/* WARNING: Removing unreachable block (ram,0x004009d5) */\u000a/* WARNING: Removing unreachable block (ram,0x004009df) */\u000a\u000avoid deregister_tm_clones(void)\u000a\u000a{\u000a  return;\u000a}\u000a\u000a
p52
S'MOV EAX,0x6020af\nPUSH RBP\nSUB RAX,0x6020a8\nCMP RAX,0xe\nMOV RBP,RSP\nJBE 0x004009f0\nMOV EAX,0x0\nTEST RAX,RAX\nJZ 0x004009f0\nPOP RBP\nMOV EDI,0x6020a8\nJMP RAX\nPOP RBP\nRET\n'
p53
S'b8 af 20 60 00\n55\n48 2d a8 20 60 00\n48 83 f8 0e\n48 89 e5\n76 1b\nb8 00 00 00 00\n48 85 c0\n74 11\n5d\nbf a8 20 60 00\nff e0\n5d\nc3\n'
p54
S'.text:00000000004009c0\n.text:00000000004009c5\n.text:00000000004009c6\n.text:00000000004009cc\n.text:00000000004009d0\n.text:00000000004009d3\n.text:00000000004009d5\n.text:00000000004009da\n.text:00000000004009dd\n.text:00000000004009df\n.text:00000000004009e0\n.text:00000000004009e5\n.text:00000000004009f0\n.text:00000000004009f1\n'
p55
tp56
sS'strlen'
p57
(S'\n__stdcall strlen(char * __s)\n'
p58
V\u000a/* WARNING: Unknown calling convention yet parameter storage is locked */\u000a\u000asize_t strlen(char *__s)\u000a\u000a{\u000a  size_t sVar1;\u000a  \u000a  sVar1 = (*(code *)PTR_strlen_00602040)();\u000a  return sVar1;\u000a}\u000a\u000a
p59
S'JMP qword ptr [0x00602040]\n'
p60
S'ff 25 5a 17 20 00\n'
p61
S'.plt:00000000004008e0\n'
p62
tp63
sS'strncmp'
p64
(S'\n__stdcall strncmp(char * __s1, char * __s2, size_t __n)\n'
p65
V\u000a/* WARNING: Unknown calling convention yet parameter storage is locked */\u000a\u000aint strncmp(char *__s1,char *__s2,size_t __n)\u000a\u000a{\u000a  int iVar1;\u000a  \u000a  iVar1 = (*(code *)PTR_strncmp_00602018)();\u000a  return iVar1;\u000a}\u000a\u000a
p66
S'JMP qword ptr [0x00602018]\n'
p67
S'ff 25 82 17 20 00\n'
p68
S'.plt:0000000000400890\n'
p69
tp70
sS'XDisplayName'
p71
(S'\n__stdcall XDisplayName()\n'
p72
V\u000avoid XDisplayName(void)\u000a\u000a{\u000a  (*(code *)PTR_XDisplayName_00602068)();\u000a  return;\u000a}\u000a\u000a
p73
S'JMP qword ptr [0x00602068]\n'
p74
S'ff 25 32 17 20 00\n'
p75
S'.plt:0000000000400930\n'
p76
tp77
sS'XF86VidModeQueryVersion'
p78
(S'\n__stdcall XF86VidModeQueryVersion()\n'
p79
V\u000avoid XF86VidModeQueryVersion(void)\u000a\u000a{\u000a  (*(code *)PTR_XF86VidModeQueryVersion_00602048)();\u000a  return;\u000a}\u000a\u000a
p80
S'JMP qword ptr [0x00602048]\n'
p81
S'ff 25 52 17 20 00\n'
p82
S'.plt:00000000004008f0\n'
p83
tp84
sS'frame_dummy'
p85
(S'\n__stdcall frame_dummy()\n'
p86
V\u000a/* WARNING: Removing unreachable block (ram,0x00400a7a) */\u000a\u000avoid frame_dummy(void)\u000a\u000a{\u000a  register_tm_clones();\u000a  return;\u000a}\u000a\u000a
p87
S'MOV EDI,0x601df8\nCMP qword ptr [RDI],0x0\nJNZ 0x00400a70\nJMP 0x00400a00\nMOV EAX,0x0\nTEST RAX,RAX\nJZ 0x00400a6b\nPUSH RBP\nMOV RBP,RSP\nCALL RAX\nPOP RBP\nJMP 0x00400a00\n'
p88
S'bf f8 1d 60 00\n48 83 3f 00\n75 05\neb 93\nb8 00 00 00 00\n48 85 c0\n74 f1\n55\n48 89 e5\nff d0\n5d\ne9 7a ff ff ff\n'
p89
S'.text:0000000000400a60\n.text:0000000000400a65\n.text:0000000000400a69\n.text:0000000000400a6b\n.text:0000000000400a70\n.text:0000000000400a75\n.text:0000000000400a78\n.text:0000000000400a7a\n.text:0000000000400a7b\n.text:0000000000400a7e\n.text:0000000000400a80\n.text:0000000000400a81\n'
p90
tp91
sS'strcmp'
p92
(S'\n__stdcall strcmp(char * __s1, char * __s2)\n'
p93
V\u000a/* WARNING: Unknown calling convention yet parameter storage is locked */\u000a\u000aint strcmp(char *__s1,char *__s2)\u000a\u000a{\u000a  int iVar1;\u000a  \u000a  iVar1 = (*(code *)PTR_strcmp_00602050)();\u000a  return iVar1;\u000a}\u000a\u000a
p94
S'JMP qword ptr [0x00602050]\n'
p95
S'ff 25 4a 17 20 00\n'
p96
S'.plt:0000000000400900\n'
p97
tp98
sS'atoi'
p99
(S'\n__stdcall atoi(char * __nptr)\n'
p100
V\u000a/* WARNING: Unknown calling convention yet parameter storage is locked */\u000a\u000aint atoi(char *__nptr)\u000a\u000a{\u000a  int iVar1;\u000a  \u000a  iVar1 = (*(code *)PTR_atoi_00602070)();\u000a  return iVar1;\u000a}\u000a\u000a
p101
S'JMP qword ptr [0x00602070]\n'
p102
S'ff 25 2a 17 20 00\n'
p103
S'.plt:0000000000400940\n'
p104
tp105
sS'XF86VidModeQueryExtension'
p106
(S'\n__stdcall XF86VidModeQueryExtension()\n'
p107
V\u000avoid XF86VidModeQueryExtension(void)\u000a\u000a{\u000a  (*(code *)PTR_XF86VidModeQueryExtension_00602088)();\u000a  return;\u000a}\u000a\u000a
p108
S'JMP qword ptr [0x00602088]\n'
p109
S'ff 25 12 17 20 00\n'
p110
S'.plt:0000000000400970\n'
p111
tp112
sS'register_tm_clones'
p113
(S'\n__stdcall register_tm_clones()\n'
p114
V\u000a/* WARNING: Removing unreachable block (ram,0x00400a23) */\u000a/* WARNING: Removing unreachable block (ram,0x00400a2d) */\u000a\u000avoid register_tm_clones(void)\u000a\u000a{\u000a  return;\u000a}\u000a\u000a
p115
S'MOV ESI,0x6020a8\nPUSH RBP\nSUB RSI,0x6020a8\nSAR RSI,0x3\nMOV RBP,RSP\nMOV RAX,RSI\nSHR RAX,0x3f\nADD RSI,RAX\nSAR RSI,1\nJZ 0x00400a38\nMOV EAX,0x0\nTEST RAX,RAX\nJZ 0x00400a38\nPOP RBP\nMOV EDI,0x6020a8\nJMP RAX\nPOP RBP\nRET\n'
p116
S'be a8 20 60 00\n55\n48 81 ee a8 20 60 00\n48 c1 fe 03\n48 89 e5\n48 89 f0\n48 c1 e8 3f\n48 01 c6\n48 d1 fe\n74 15\nb8 00 00 00 00\n48 85 c0\n74 0b\n5d\nbf a8 20 60 00\nff e0\n5d\nc3\n'
p117
S'.text:0000000000400a00\n.text:0000000000400a05\n.text:0000000000400a06\n.text:0000000000400a0d\n.text:0000000000400a11\n.text:0000000000400a14\n.text:0000000000400a17\n.text:0000000000400a1b\n.text:0000000000400a1e\n.text:0000000000400a21\n.text:0000000000400a23\n.text:0000000000400a28\n.text:0000000000400a2b\n.text:0000000000400a2d\n.text:0000000000400a2e\n.text:0000000000400a33\n.text:0000000000400a38\n.text:0000000000400a39\n'
p118
tp119
sS'atof'
p120
(S'\n__stdcall atof(char * __nptr)\n'
p121
V\u000a/* WARNING: Unknown calling convention yet parameter storage is locked */\u000a\u000adouble atof(char *__nptr)\u000a\u000a{\u000a  double dVar1;\u000a  \u000a  dVar1 = (double)(*(code *)PTR_atof_00602030)();\u000a  return dVar1;\u000a}\u000a\u000a
p122
S'JMP qword ptr [0x00602030]\n'
p123
S'ff 25 6a 17 20 00\n'
p124
S'.plt:00000000004008c0\n'
p125
tp126
sS'fwrite'
p127
(S'\n__stdcall fwrite(void * __ptr, size_t __size, size_t __n, FILE * __s)\n'
p128
V\u000a/* WARNING: Unknown calling convention yet parameter storage is locked */\u000a\u000asize_t fwrite(void *__ptr,size_t __size,size_t __n,FILE *__s)\u000a\u000a{\u000a  size_t sVar1;\u000a  \u000a  sVar1 = (*(code *)PTR_fwrite_00602080)();\u000a  return sVar1;\u000a}\u000a\u000a
p129
S'JMP qword ptr [0x00602080]\n'
p130
S'ff 25 1a 17 20 00\n'
p131
S'.plt:0000000000400960\n'
p132
tp133
sS'XF86VidModeSetGamma'
p134
(S'\n__stdcall XF86VidModeSetGamma()\n'
p135
V\u000avoid XF86VidModeSetGamma(void)\u000a\u000a{\u000a  (*(code *)PTR_XF86VidModeSetGamma_00602038)();\u000a  return;\u000a}\u000a\u000a
p136
S'JMP qword ptr [0x00602038]\n'
p137
S'ff 25 62 17 20 00\n'
p138
S'.plt:00000000004008d0\n'
p139
tp140
sS'XCloseDisplay'
p141
(S'\n__stdcall XCloseDisplay()\n'
p142
V\u000avoid XCloseDisplay(void)\u000a\u000a{\u000a  (*(code *)PTR_XCloseDisplay_00602090)();\u000a  return;\u000a}\u000a\u000a
p143
S'JMP qword ptr [0x00602090]\n'
p144
S'ff 25 0a 17 20 00\n'
p145
S'.plt:0000000000400980\n'
p146
tp147
sS'fprintf'
p148
(S'\n__stdcall fprintf(FILE * __stream, char * __format)\n'
p149
V\u000a/* WARNING: Unknown calling convention yet parameter storage is locked */\u000a\u000aint fprintf(FILE *__stream,char *__format,...)\u000a\u000a{\u000a  int iVar1;\u000a  \u000a  iVar1 = (*(code *)PTR_fprintf_00602060)();\u000a  return iVar1;\u000a}\u000a\u000a
p150
S'JMP qword ptr [0x00602060]\n'
p151
S'ff 25 3a 17 20 00\n'
p152
S'.plt:0000000000400920\n'
p153
tp154
sS'puts'
p155
(S'\n__stdcall puts(char * __s)\n'
p156
V\u000a/* WARNING: Unknown calling convention yet parameter storage is locked */\u000a\u000aint puts(char *__s)\u000a\u000a{\u000a  int iVar1;\u000a  \u000a  iVar1 = (*(code *)PTR_puts_00602028)();\u000a  return iVar1;\u000a}\u000a\u000a
p157
S'JMP qword ptr [0x00602028]\n'
p158
S'ff 25 72 17 20 00\n'
p159
S'.plt:00000000004008b0\n'
p160
tp161
sS'exit'
p162
(S'\n__stdcall exit(int __status)\n'
p163
V\u000a/* WARNING: Unknown calling convention yet parameter storage is locked */\u000a\u000avoid exit(int __status)\u000a\u000a{\u000a  (*(code *)PTR_exit_00602078)();\u000a  return;\u000a}\u000a\u000a
p164
S'JMP qword ptr [0x00602078]\n'
p165
S'ff 25 22 17 20 00\n'
p166
S'.plt:0000000000400950\n'
p167
tp168
sS'__libc_csu_fini'
p169
(S'\n__stdcall __libc_csu_fini()\n'
p170
V\u000avoid __libc_csu_fini(void)\u000a\u000a{\u000a  return;\u000a}\u000a\u000a
p171
S'RET\n'
p172
S'f3 c3\n'
p173
S'.text:00000000004012d0\n'
p174
tp175
sS'__do_global_dtors_aux'
p176
(S'\n__stdcall __do_global_dtors_aux()\n'
p177
V\u000avoid __do_global_dtors_aux(void)\u000a\u000a{\u000a  if (completed_7561 == 0) {\u000a    deregister_tm_clones();\u000a    completed_7561 = 1;\u000a  }\u000a  return;\u000a}\u000a\u000a
p178
S'CMP byte ptr [0x006020c8],0x0\nJNZ 0x00400a5a\nPUSH RBP\nMOV RBP,RSP\nCALL 0x004009c0\nPOP RBP\nMOV byte ptr [0x006020c8],0x1\nRET\n'
p179
S'80 3d 81 16 20 00 00\n75 11\n55\n48 89 e5\ne8 6e ff ff ff\n5d\nc6 05 6e 16 20 00 01\nf3 c3\n'
p180
S'.text:0000000000400a40\n.text:0000000000400a47\n.text:0000000000400a49\n.text:0000000000400a4a\n.text:0000000000400a4d\n.text:0000000000400a52\n.text:0000000000400a53\n.text:0000000000400a5a\n'
p181
tp182
sS'_fini'
p183
(S'\n__stdcall _fini()\n'
p184
V\u000avoid _fini(void)\u000a\u000a{\u000a  return;\u000a}\u000a\u000a
p185
S'SUB RSP,0x8\nADD RSP,0x8\nRET\n'
p186
S'48 83 ec 08\n48 83 c4 08\nc3\n'
p187
S'.fini:00000000004012d4\n.fini:00000000004012d8\n.fini:00000000004012dc\n'
p188
tp189
sS'Syntax'
p190
(S'\n__stdcall Syntax(char * errmsg)\n'
p191
V\u000avoid Syntax(char *errmsg)\u000a\u000a{\u000a  if (errmsg != (char *)0x0) {\u000a    fprintf(stderr,"%s: %s\u005cn\u005cn",ProgramName);\u000a  }\u000a  fprintf(stderr,"usage:  %s [-options]\u005cn\u005cn%s",ProgramName,\u000a                    \u000a          "where the available options are:\u005cn    -display host:dpy       or -d\u005cn    -quiet                  or -q\u005cn    -screen                 or -s\u005cn    -version                or -v\u005cn    -gamma f.f              Gamma Value\u005cn    -rgamma f.f             Red Gamma Value\u005cn    -ggamma f.f             Green Gamma Value\u005cn    -bgamma f.f             Blue Gamma Value\u005cn\u005cnIf no gamma is specified, returns the current setting\u005cn"\u000a         );\u000a                    /* WARNING: Subroutine does not return */\u000a  exit(1);\u000a}\u000a\u000a
p192
S'PUSH RAX\nMOV RCX,RDI\nTEST RCX,RCX\nJZ 0x00401233\nMOV RDI,qword ptr [0x006020c0]\nMOV RDX,qword ptr [0x006020d0]\nMOV ESI,0x401646\nXOR EAX,EAX\nCALL 0x00400920\nMOV RDI,qword ptr [0x006020c0]\nMOV RDX,qword ptr [0x006020d0]\nMOV ESI,0x40164f\nMOV ECX,0x401669\nXOR EAX,EAX\nCALL 0x00400920\nMOV EDI,0x1\nCALL 0x00400950\n'
p193
S'50\n48 89 f9\n48 85 c9\n74 1a\n48 8b 3d a0 0e 20 00\n48 8b 15 a9 0e 20 00\nbe 46 16 40 00\n31 c0\ne8 ed f6 ff ff\n48 8b 3d 86 0e 20 00\n48 8b 15 8f 0e 20 00\nbe 4f 16 40 00\nb9 69 16 40 00\n31 c0\ne8 ce f6 ff ff\nbf 01 00 00 00\ne8 f4 f6 ff ff\n'
p194
S'.text:0000000000401210\n.text:0000000000401211\n.text:0000000000401214\n.text:0000000000401217\n.text:0000000000401219\n.text:0000000000401220\n.text:0000000000401227\n.text:000000000040122c\n.text:000000000040122e\n.text:0000000000401233\n.text:000000000040123a\n.text:0000000000401241\n.text:0000000000401246\n.text:000000000040124b\n.text:000000000040124d\n.text:0000000000401252\n.text:0000000000401257\n'
p195
tp196
sS'FUN_00400880'
p197
(S'\n__stdcall FUN_00400880()\n'
p198
V\u000avoid FUN_00400880(void)\u000a\u000a{\u000a                    /* WARNING: Treating indirect jump as call */\u000a  (*(code *)PTR_00602010)();\u000a  return;\u000a}\u000a\u000a
p199
S'PUSH qword ptr [0x00602008]\nJMP qword ptr [0x00602010]\n'
p200
S'ff 35 82 17 20 00\nff 25 84 17 20 00\n'
p201
S'.plt:0000000000400880\n.plt:0000000000400886\n'
p202
tp203
s.