(dp0
S'FUN_00c0d304'
p1
(S'\n__cdecl FUN_00c0d304()\n'
p2
V\u000a/* WARNING: Instruction at (ram,0x00c0d332) overlaps instruction at (ram,0x00c0d331)\u000a    */\u000a\u000avoid FUN_00c0d304(void)\u000a\u000a{\u000a  undefined4 uVar1;\u000a  int *piVar2;\u000a  uint uVar3;\u000a  int iVar4;\u000a  undefined4 *puVar5;\u000a  code *unaff_EBP;\u000a  code *pcVar6;\u000a  undefined4 *puVar7;\u000a  undefined8 uVar8;\u000a  \u000a  while( true ) {\u000a    puVar7 = *(undefined4 **)register0x00000010;\u000a    piVar2 = (int *)((int)(unaff_EBP + -9) - *(int *)(unaff_EBP + -9));\u000a    uVar3 = (int)piVar2 + piVar2[0x12] + 0xfff & 0xfffff000;\u000a    *(undefined4 *)register0x00000010 = 1;\u000a    ((undefined4 *)register0x00000010)[-1] = uVar3;\u000a    ((undefined4 *)register0x00000010)[-2] = 0xffffffff;\u000a    ((undefined4 *)register0x00000010)[-3] = 0x32;\u000a    ((undefined4 *)register0x00000010)[-4] = 7;\u000a    ((undefined4 *)register0x00000010)[-5] = 0x1000;\u000a    ((undefined4 *)register0x00000010)[-6] = uVar3;\u000a    ((undefined4 *)register0x00000010)[-7] = 0x5a;\u000a    pcVar6 = (code *)swi(0x80);\u000a    iVar4 = (*pcVar6)();\u000a    puVar5 = (undefined4 *)register0x00000010 + -5;\u000a    pcVar6 = unaff_EBP;\u000a    if (iVar4 == ((undefined4 *)register0x00000010)[-6]) break;\u000a    ((undefined4 *)register0x00000010)[-6] = 0x1d;\u000a                    /* WARNING: Call to offcut address within same function */\u000a    ((undefined4 *)register0x00000010)[-6] = 0xc0d2d7;\u000a    uVar8 = func_0x00c0d2f4();\u000a    iVar4 = (int)((ulonglong)uVar8 >> 0x20);\u000a    ((undefined4 *)register0x00000010)[-6] = (int)uVar8;\u000a    ((undefined4 *)register0x00000010)[-7] = iVar4;\u000a    *(undefined4 **)((undefined4 *)register0x00000010 + -8) = (undefined4 *)register0x00000010 + -7;\u000a    uVar1 = ((undefined4 *)register0x00000010)[-7];\u000a    puVar5 = (undefined4 *)register0x00000010 + -6;\u000a    pcVar6 = unaff_EBP + 2;\u000a    if (SCARRY4((int)((undefined4 *)register0x00000010 + -6),1) !=\u000a        (int)register0x00000010 + -0x17 < 0) break;\u000a    ((undefined4 *)register0x00000010)[-7] = iVar4;\u000a    *(undefined4 **)((undefined4 *)register0x00000010 + -8) = (undefined4 *)register0x00000010 + -7;\u000a    ((undefined4 *)register0x00000010)[-8] = ((undefined4 *)register0x00000010)[-8];\u000a    ((undefined4 *)register0x00000010)[-9] = iVar4;\u000a    *(undefined4 **)((undefined4 *)register0x00000010 + -10) = (undefined4 *)register0x00000010 + -9\u000a    ;\u000a    *(byte *)((int)puVar7 + 0x61) = *(byte *)((int)puVar7 + 0x61) & (byte)((uint)uVar1 >> 8);\u000a    unaff_EBP = (code *)(*(int *)(unaff_EBP + 0x67) * 0x6a590a2e);\u000a    pcVar6 = (code *)swi(0x80);\u000a    (*pcVar6)();\u000a    ((undefined4 *)register0x00000010)[-10] = 1;\u000a    pcVar6 = (code *)swi(0x80);\u000a    (*pcVar6)();\u000a    register0x00000010 = (BADSPACEBASE *)((undefined4 *)register0x00000010 + -8);\u000a  }\u000a  uVar1 = *puVar7;\u000a  *(undefined4 *)((undefined *)puVar5 + -4) = uVar1;\u000a  *(undefined4 *)((undefined *)puVar5 + -8) = uVar1;\u000a  *(undefined **)((undefined *)puVar5 + -0xc) = (undefined *)puVar5 + -4;\u000a  *(int *)((undefined *)puVar5 + -0x10) = iVar4;\u000a  *(undefined4 *)((undefined *)puVar5 + -0x14) = puVar7[1];\u000a  *(undefined4 *)((undefined *)puVar5 + -8) = puVar7[2];\u000a  *(undefined4 **)((undefined *)puVar5 + -0x18) = puVar7 + 3;\u000a  *(undefined4 *)((undefined *)puVar5 + -0x1c) = 0xc0d34d;\u000a  (*pcVar6)();\u000a  return;\u000a}\u000a\u000a
p3
S'POP ESI\nLEA EAX,[EBP + -0x9]\nMOV EDI,dword ptr [EAX]\nSUB EAX,EDI\nMOV EDX,EAX\nADD EAX,dword ptr [EAX + 0x48]\nADD EAX,0xfff\nAND EAX,0xfffff000\nPUSH 0x1\nPUSH EAX\n'
p4
S'5e\n8d 45 f7\n8b 38\n29 f8\n89 c2\n03 40 48\n05 ff 0f 00 00\n25 00 f0 ff ff\n6a 01\n50\n'
p5
S'segment_0:00c0d304\nsegment_0:00c0d305\nsegment_0:00c0d308\nsegment_0:00c0d30a\nsegment_0:00c0d30c\nsegment_0:00c0d30e\nsegment_0:00c0d311\nsegment_0:00c0d316\nsegment_0:00c0d31b\nsegment_0:00c0d31d\n'
p6
tp7
sS'entry'
p8
(S'\n__cdecl entry(undefined4 param_1, undefined4 param_2, undefined4 param_3, undefined4 param_4)\n'
p9
V\u000aundefined8 entry(byte *param_1,int param_2,undefined4 param_3,undefined4 *param_4)\u000a\u000a{\u000a  int iVar1;\u000a  byte bVar2;\u000a  ushort uVar3;\u000a  undefined4 *puVar4;\u000a  undefined4 uVar5;\u000a  uint uVar6;\u000a  undefined2 *puVar7;\u000a  uint uVar8;\u000a  undefined4 uVar9;\u000a  uint uVar10;\u000a  ushort *puVar11;\u000a  int iVar12;\u000a  undefined *puVar13;\u000a  undefined *puVar14;\u000a  undefined *puVar15;\u000a  undefined uVar16;\u000a  byte *pbVar17;\u000a  undefined *puVar18;\u000a  int iVar19;\u000a  int iVar20;\u000a  byte bVar21;\u000a  undefined auStack3728 [3696];\u000a  undefined4 uStack4;\u000a  \u000a  bVar21 = 0;\u000a  uStack4 = 0xc0c6d5;\u000a  uVar6 = FUN_00c0d351();\u000a  pbVar17 = param_1 + (uint)bVar21 * -2 + 1;\u000a  bVar2 = *param_1;\u000a  puVar13 = (undefined *)((uint)(auStack3728 + (-0x300 << (bVar2 >> 3)) * 2) & 0xffffffe0);\u000a  *(undefined4 *)(puVar13 + -4) = 0;\u000a  *(undefined4 *)(puVar13 + -8) = 0;\u000a  *(undefined **)(puVar13 + -0xc) = puVar13 + -8;\u000a  *(undefined4 *)(puVar13 + -0x10) = *param_4;\u000a  *(undefined4 *)(puVar13 + -0x14) = param_3;\u000a  *(undefined **)(puVar13 + -0x18) = puVar13 + -4;\u000a  puVar13[2] = bVar2 & 7;\u000a  bVar2 = *pbVar17;\u000a  uVar10 = (uint)bVar2 & 0xffffff0f;\u000a  *puVar13 = (char)uVar10;\u000a  puVar13[1] = bVar2 >> 4;\u000a  *(int *)(puVar13 + -0x1c) = param_2 + -2;\u000a  *(byte **)(puVar13 + -0x20) = pbVar17 + (uint)bVar21 * -2 + 1;\u000a  *(undefined **)(puVar13 + -0x24) = puVar13;\u000a  *(uint *)(puVar13 + -0x28) = uVar6 & 0xffffff00 | uVar10;\u000a  *(undefined **)(puVar13 + -0x2c) = &stack0xffffffe0;\u000a  *(undefined4 *)(puVar13 + -0x30) = param_3;\u000a  *(byte **)(puVar13 + -0x34) = pbVar17 + (uint)bVar21 * -2 + 1;\u000a  *(undefined **)(puVar13 + -0x38) = puVar13;\u000a  pbVar17 = *(byte **)(puVar13 + -0x24);\u000a  *(undefined4 *)(puVar13 + -0x40) = 0;\u000a  puVar13[-0x41] = 0;\u000a  *(byte **)(puVar13 + -0x3c) = pbVar17 + 4;\u000a  *(int *)(puVar13 + -0x48) = (1 << (pbVar17[2] & 0x1f)) + -1;\u000a  *(int *)(puVar13 + -0x4c) = (1 << (pbVar17[1] & 0x1f)) + -1;\u000a  puVar4 = *(undefined4 **)(puVar13 + -0xc);\u000a  bVar2 = *pbVar17;\u000a  **(undefined4 **)(puVar13 + -0x18) = 0;\u000a  *(undefined4 *)(puVar13 + -0x54) = 0;\u000a  *puVar4 = 0;\u000a  *(uint *)(puVar13 + -0x50) = (uint)bVar2;\u000a  *(undefined4 *)(puVar13 + -0x58) = 1;\u000a  *(undefined4 *)(puVar13 + -0x5c) = 1;\u000a  *(undefined4 *)(puVar13 + -0x60) = 1;\u000a  *(undefined4 *)(puVar13 + -100) = 1;\u000a  uVar10 = (0x300 << (pbVar17[1] + bVar2 & 0x1f)) + 0x736;\u000a  if (*(uint *)(puVar13 + -0x40) < uVar10) {\u000a    puVar7 = *(undefined2 **)(puVar13 + -0x3c);\u000a    do {\u000a      *puVar7 = 0x400;\u000a      puVar7 = puVar7 + 1;\u000a      uVar10 = uVar10 - 1;\u000a    } while (uVar10 != 0);\u000a  }\u000a  pbVar17 = *(byte **)(puVar13 + -0x20);\u000a  uVar10 = 0;\u000a  *(undefined4 *)(puVar13 + -0x6c) = 0xffffffff;\u000a  *(byte **)(puVar13 + -0x68) = pbVar17 + *(int *)(puVar13 + -0x1c);\u000a  iVar12 = 0;\u000a  do {\u000a    if (pbVar17 == *(byte **)(puVar13 + -0x68)) goto LAB_00c0d1bf;\u000a    bVar2 = *pbVar17;\u000a    iVar12 = iVar12 + 1;\u000a    pbVar17 = pbVar17 + 1;\u000a    uVar10 = uVar10 << 8 | (uint)bVar2;\u000a  } while (iVar12 < 5);\u000a  if (*(uint *)(puVar13 + -0x40) < *(uint *)(puVar13 + -0x10)) {\u000aLAB_00c0c83c:\u000a    *(uint *)(puVar13 + -0x70) = *(uint *)(puVar13 + -0x40) & *(uint *)(puVar13 + -0x48);\u000a    puVar11 = (ushort *)\u000a              (*(int *)(puVar13 + -0x3c) +\u000a              (*(int *)(puVar13 + -0x54) * 0x10 +\u000a              (*(uint *)(puVar13 + -0x40) & *(uint *)(puVar13 + -0x48))) * 2);\u000a    if (*(uint *)(puVar13 + -0x6c) < 0x1000000) {\u000a      if (pbVar17 == *(byte **)(puVar13 + -0x68)) goto LAB_00c0d1bf;\u000a      *(int *)(puVar13 + -0x6c) = *(int *)(puVar13 + -0x6c) << 8;\u000a      bVar2 = *pbVar17;\u000a      pbVar17 = pbVar17 + 1;\u000a      uVar10 = uVar10 << 8 | (uint)bVar2;\u000a    }\u000a    uVar3 = *puVar11;\u000a    uVar6 = (*(uint *)(puVar13 + -0x6c) >> 0xb) * (uint)uVar3;\u000a    if (uVar10 < uVar6) {\u000a      *(uint *)(puVar13 + -0x6c) = uVar6;\u000a      bVar2 = puVar13[-0x50];\u000a      iVar12 = 1;\u000a      bVar21 = puVar13[-0x41];\u000a      *puVar11 = uVar3 + (short)((int)(0x800 - (uint)uVar3) >> 5);\u000a      *(uint *)(puVar13 + -0xa0) =\u000a           *(int *)(puVar13 + -0x3c) + 0xe6c +\u000a           (((*(uint *)(puVar13 + -0x40) & *(uint *)(puVar13 + -0x4c)) << (bVar2 & 0x1f)) +\u000a           ((int)(uint)bVar21 >> (8U - (char)*(undefined4 *)(puVar13 + -0x50) & 0x1f))) * 0x600;\u000a      if (*(int *)(puVar13 + -0x54) < 7) goto LAB_00c0c9b7;\u000a      *(uint *)(puVar13 + -0x74) =\u000a           (uint)*(byte *)(*(int *)(puVar13 + -0x14) +\u000a                          (*(int *)(puVar13 + -0x40) - *(int *)(puVar13 + -0x58)));\u000a      do {\u000a        *(int *)(puVar13 + -0x74) = *(int *)(puVar13 + -0x74) << 1;\u000a        iVar12 = iVar12 * 2;\u000a        *(uint *)(puVar13 + -0x78) = *(uint *)(puVar13 + -0x74) & 0x100;\u000a        iVar1 = *(int *)(puVar13 + -0xa0) + (*(uint *)(puVar13 + -0x74) & 0x100) * 2 + iVar12;\u000a        if (*(uint *)(puVar13 + -0x6c) < 0x1000000) {\u000a          if (pbVar17 == *(byte **)(puVar13 + -0x68)) goto LAB_00c0d1bf;\u000a          *(int *)(puVar13 + -0x6c) = *(int *)(puVar13 + -0x6c) << 8;\u000a          bVar2 = *pbVar17;\u000a          pbVar17 = pbVar17 + 1;\u000a          uVar10 = uVar10 << 8 | (uint)bVar2;\u000a        }\u000a        uVar3 = *(ushort *)(iVar1 + 0x200);\u000a        uVar6 = (*(uint *)(puVar13 + -0x6c) >> 0xb) * (uint)uVar3;\u000a        if (uVar10 < uVar6) {\u000a          *(uint *)(puVar13 + -0x6c) = uVar6;\u000a          iVar19 = *(int *)(puVar13 + -0x78);\u000a          *(short *)(iVar1 + 0x200) = uVar3 + (short)((int)(0x800 - (uint)uVar3) >> 5);\u000a          if (iVar19 != 0) goto LAB_00c0c9af;\u000a        }\u000a        else {\u000a          *(uint *)(puVar13 + -0x6c) = *(int *)(puVar13 + -0x6c) - uVar6;\u000a          uVar10 = uVar10 - uVar6;\u000a          iVar12 = iVar12 + 1;\u000a          iVar19 = *(int *)(puVar13 + -0x78);\u000a          *(short *)(iVar1 + 0x200) = uVar3 - (uVar3 >> 5);\u000a          if (iVar19 == 0) goto LAB_00c0c9af;\u000a        }\u000a        uVar16 = (undefined)iVar12;\u000a      } while (iVar12 < 0x100);\u000a      goto LAB_00c0ca28;\u000a    }\u000a    uVar10 = uVar10 - uVar6;\u000a    iVar12 = *(int *)(puVar13 + -0x54);\u000a    uVar6 = *(int *)(puVar13 + -0x6c) - uVar6;\u000a    *puVar11 = uVar3 - (uVar3 >> 5);\u000a    *(int *)(puVar13 + -0x7c) = *(int *)(puVar13 + -0x3c) + iVar12 * 2;\u000a    if (uVar6 < 0x1000000) {\u000a      if (pbVar17 == *(byte **)(puVar13 + -0x68)) goto LAB_00c0d1bf;\u000a      bVar2 = *pbVar17;\u000a      uVar6 = uVar6 * 0x100;\u000a      pbVar17 = pbVar17 + 1;\u000a      uVar10 = uVar10 * 0x100 | (uint)bVar2;\u000a    }\u000a    uVar3 = *(ushort *)(*(int *)(puVar13 + -0x7c) + 0x180);\u000a    uVar8 = (uVar6 >> 0xb) * (uint)uVar3;\u000a    if (uVar8 <= uVar10) {\u000a      uVar10 = uVar10 - uVar8;\u000a      uVar6 = uVar6 - uVar8;\u000a      *(short *)(*(int *)(puVar13 + -0x7c) + 0x180) = uVar3 - (uVar3 >> 5);\u000a      if (uVar6 < 0x1000000) {\u000a        if (pbVar17 == *(byte **)(puVar13 + -0x68)) goto LAB_00c0d1bf;\u000a        bVar2 = *pbVar17;\u000a        uVar6 = uVar6 * 0x100;\u000a        pbVar17 = pbVar17 + 1;\u000a        uVar10 = uVar10 * 0x100 | (uint)bVar2;\u000a      }\u000a      uVar3 = *(ushort *)(*(int *)(puVar13 + -0x7c) + 0x198);\u000a      uVar8 = (uVar6 >> 0xb) * (uint)uVar3;\u000a      if (uVar10 < uVar8) {\u000a        *(undefined4 *)(puVar13 + -0x80) = 0x800;\u000a        *(short *)(*(int *)(puVar13 + -0x7c) + 0x198) =\u000a             uVar3 + (short)((int)(0x800 - (uint)uVar3) >> 5);\u000a        iVar12 = *(int *)(puVar13 + -0x54) * 0x20 + *(int *)(puVar13 + -0x3c) +\u000a                 *(int *)(puVar13 + -0x70) * 2;\u000a        if (uVar8 < 0x1000000) {\u000a          if (pbVar17 == *(byte **)(puVar13 + -0x68)) goto LAB_00c0d1bf;\u000a          bVar2 = *pbVar17;\u000a          uVar8 = uVar8 * 0x100;\u000a          pbVar17 = pbVar17 + 1;\u000a          uVar10 = uVar10 << 8 | (uint)bVar2;\u000a        }\u000a        uVar3 = *(ushort *)(iVar12 + 0x1e0);\u000a        uVar6 = (uVar8 >> 0xb) * (uint)uVar3;\u000a        if (uVar6 <= uVar10) {\u000a          uVar8 = uVar8 - uVar6;\u000a          uVar10 = uVar10 - uVar6;\u000a          *(short *)(iVar12 + 0x1e0) = uVar3 - (uVar3 >> 5);\u000a          goto LAB_00c0cd77;\u000a        }\u000a        *(uint *)(puVar13 + -0x80) = *(int *)(puVar13 + -0x80) - (uint)uVar3;\u000a        *(int *)(puVar13 + -0x80) = *(int *)(puVar13 + -0x80) >> 5;\u000a        *(uint *)(puVar13 + -0x6c) = uVar6;\u000a        iVar1 = *(int *)(puVar13 + -0x40);\u000a        *(short *)(iVar12 + 0x1e0) = uVar3 + (short)*(undefined4 *)(puVar13 + -0x80);\u000a        if (iVar1 != 0) {\u000a          iVar12 = *(int *)(puVar13 + -0x40);\u000a          *(uint *)(puVar13 + -0x54) = (uint)(6 < *(int *)(puVar13 + -0x54)) * 2 + 9;\u000a          uVar16 = *(undefined *)\u000a                    (*(int *)(puVar13 + -0x14) +\u000a                    (*(int *)(puVar13 + -0x40) - *(int *)(puVar13 + -0x58)));\u000a          puVar13[-0x41] = uVar16;\u000a          *(undefined *)(iVar12 + *(int *)(puVar13 + -0x14)) = uVar16;\u000a          *(int *)(puVar13 + -0x40) = iVar12 + 1;\u000a          goto LAB_00c0d170;\u000a        }\u000a        goto LAB_00c0d1bf;\u000a      }\u000a      uVar6 = uVar6 - uVar8;\u000a      uVar10 = uVar10 - uVar8;\u000a      *(short *)(*(int *)(puVar13 + -0x7c) + 0x198) = uVar3 - (uVar3 >> 5);\u000a      if (uVar6 < 0x1000000) {\u000a        if (pbVar17 == *(byte **)(puVar13 + -0x68)) goto LAB_00c0d1bf;\u000a        bVar2 = *pbVar17;\u000a        uVar6 = uVar6 * 0x100;\u000a        pbVar17 = pbVar17 + 1;\u000a        uVar10 = uVar10 * 0x100 | (uint)bVar2;\u000a      }\u000a      uVar3 = *(ushort *)(*(int *)(puVar13 + -0x7c) + 0x1b0);\u000a      uVar8 = (uVar6 >> 0xb) * (uint)uVar3;\u000a      if (uVar10 < uVar8) {\u000a        *(short *)(*(int *)(puVar13 + -0x7c) + 0x1b0) =\u000a             uVar3 + (short)((int)(0x800 - (uint)uVar3) >> 5);\u000a        uVar9 = *(undefined4 *)(puVar13 + -0x5c);\u000a      }\u000a      else {\u000a        uVar10 = uVar10 - uVar8;\u000a        uVar6 = uVar6 - uVar8;\u000a        *(short *)(*(int *)(puVar13 + -0x7c) + 0x1b0) = uVar3 - (uVar3 >> 5);\u000a        if (uVar6 < 0x1000000) {\u000a          if (pbVar17 == *(byte **)(puVar13 + -0x68)) goto LAB_00c0d1bf;\u000a          bVar2 = *pbVar17;\u000a          uVar6 = uVar6 * 0x100;\u000a          pbVar17 = pbVar17 + 1;\u000a          uVar10 = uVar10 * 0x100 | (uint)bVar2;\u000a        }\u000a        uVar3 = *(ushort *)(*(int *)(puVar13 + -0x7c) + 0x1c8);\u000a        uVar8 = (uVar6 >> 0xb) * (uint)uVar3;\u000a        if (uVar10 < uVar8) {\u000a          *(short *)(*(int *)(puVar13 + -0x7c) + 0x1c8) =\u000a               uVar3 + (short)((int)(0x800 - (uint)uVar3) >> 5);\u000a          uVar9 = *(undefined4 *)(puVar13 + -0x60);\u000a        }\u000a        else {\u000a          uVar10 = uVar10 - uVar8;\u000a          uVar8 = uVar6 - uVar8;\u000a          *(short *)(*(int *)(puVar13 + -0x7c) + 0x1c8) = uVar3 - (uVar3 >> 5);\u000a          uVar9 = *(undefined4 *)(puVar13 + -100);\u000a          *(undefined4 *)(puVar13 + -100) = *(undefined4 *)(puVar13 + -0x60);\u000a        }\u000a        *(undefined4 *)(puVar13 + -0x60) = *(undefined4 *)(puVar13 + -0x5c);\u000a      }\u000a      uVar5 = *(undefined4 *)(puVar13 + -0x58);\u000a      *(undefined4 *)(puVar13 + -0x58) = uVar9;\u000a      *(undefined4 *)(puVar13 + -0x5c) = uVar5;\u000aLAB_00c0cd77:\u000a      puVar11 = (ushort *)(*(int *)(puVar13 + -0x3c) + 0xa68);\u000a      *(uint *)(puVar13 + -0x54) = (uint)(6 < *(int *)(puVar13 + -0x54)) * 3 + 8;\u000a      goto LAB_00c0cd93;\u000a    }\u000a    uVar9 = *(undefined4 *)(puVar13 + -0x5c);\u000a    *(undefined4 *)(puVar13 + -100) = *(undefined4 *)(puVar13 + -0x60);\u000a    iVar12 = *(int *)(puVar13 + -0x3c);\u000a    *(short *)(*(int *)(puVar13 + -0x7c) + 0x180) = uVar3 + (short)((int)(0x800 - (uint)uVar3) >> 5)\u000a    ;\u000a    *(undefined4 *)(puVar13 + -0x60) = uVar9;\u000a    *(undefined4 *)(puVar13 + -0x5c) = *(undefined4 *)(puVar13 + -0x58);\u000a    puVar11 = (ushort *)(iVar12 + 0x664);\u000a    *(uint *)(puVar13 + -0x54) = (uint)(6 < *(int *)(puVar13 + -0x54)) * 3;\u000aLAB_00c0cd93:\u000a    if (uVar8 < 0x1000000) {\u000a      if (pbVar17 == *(byte **)(puVar13 + -0x68)) goto LAB_00c0d1bf;\u000a      bVar2 = *pbVar17;\u000a      uVar8 = uVar8 << 8;\u000a      pbVar17 = pbVar17 + 1;\u000a      uVar10 = uVar10 << 8 | (uint)bVar2;\u000a    }\u000a    uVar3 = *puVar11;\u000a    uVar6 = (uVar8 >> 0xb) * (uint)uVar3;\u000a    if (uVar10 < uVar6) {\u000a      *(uint *)(puVar13 + -0x6c) = uVar6;\u000a      *(int *)(puVar13 + -0x70) = *(int *)(puVar13 + -0x70) << 4;\u000a      *(undefined4 *)(puVar13 + -0x88) = 0;\u000a      *puVar11 = uVar3 + (short)((int)(0x800 - (uint)uVar3) >> 5);\u000a      *(int *)(puVar13 + -0xa4) = (int)puVar11 + *(int *)(puVar13 + -0x70) + 4;\u000aLAB_00c0ce64:\u000a      *(undefined4 *)(puVar13 + -0x84) = 3;\u000a    }\u000a    else {\u000a      uVar8 = uVar8 - uVar6;\u000a      uVar10 = uVar10 - uVar6;\u000a      *puVar11 = uVar3 - (uVar3 >> 5);\u000a      if (uVar8 < 0x1000000) {\u000a        if (pbVar17 == *(byte **)(puVar13 + -0x68)) goto LAB_00c0d1bf;\u000a        bVar2 = *pbVar17;\u000a        uVar8 = uVar8 * 0x100;\u000a        pbVar17 = pbVar17 + 1;\u000a        uVar10 = uVar10 * 0x100 | (uint)bVar2;\u000a      }\u000a      uVar3 = puVar11[1];\u000a      uVar6 = (uVar8 >> 0xb) * (uint)uVar3;\u000a      if (uVar10 < uVar6) {\u000a        *(uint *)(puVar13 + -0x6c) = uVar6;\u000a        *(int *)(puVar13 + -0x70) = *(int *)(puVar13 + -0x70) << 4;\u000a        *(undefined4 *)(puVar13 + -0x88) = 8;\u000a        iVar12 = *(int *)(puVar13 + -0x70);\u000a        puVar11[1] = uVar3 + (short)((int)(0x800 - (uint)uVar3) >> 5);\u000a        *(int *)(puVar13 + -0xa4) = (int)puVar11 + iVar12 + 0x104;\u000a        goto LAB_00c0ce64;\u000a      }\u000a      uVar10 = uVar10 - uVar6;\u000a      *(uint *)(puVar13 + -0x6c) = uVar8 - uVar6;\u000a      *(undefined4 *)(puVar13 + -0x88) = 0x10;\u000a      *(undefined4 *)(puVar13 + -0x84) = 8;\u000a      puVar11[1] = uVar3 - (uVar3 >> 5);\u000a      *(ushort **)(puVar13 + -0xa4) = puVar11 + 0x102;\u000a    }\u000a    iVar12 = 1;\u000a    *(undefined4 *)(puVar13 + -0x8c) = *(undefined4 *)(puVar13 + -0x84);\u000a    do {\u000a      iVar12 = iVar12 * 2;\u000a      puVar11 = (ushort *)(*(int *)(puVar13 + -0xa4) + iVar12);\u000a      if (*(uint *)(puVar13 + -0x6c) < 0x1000000) {\u000a        if (pbVar17 == *(byte **)(puVar13 + -0x68)) goto LAB_00c0d1bf;\u000a        *(int *)(puVar13 + -0x6c) = *(int *)(puVar13 + -0x6c) << 8;\u000a        bVar2 = *pbVar17;\u000a        pbVar17 = pbVar17 + 1;\u000a        uVar10 = uVar10 << 8 | (uint)bVar2;\u000a      }\u000a      uVar3 = *puVar11;\u000a      uVar6 = (*(uint *)(puVar13 + -0x6c) >> 0xb) * (uint)uVar3;\u000a      if (uVar10 < uVar6) {\u000a        *(uint *)(puVar13 + -0x6c) = uVar6;\u000a        *puVar11 = uVar3 + (short)((int)(0x800 - (uint)uVar3) >> 5);\u000a      }\u000a      else {\u000a        *(uint *)(puVar13 + -0x6c) = *(int *)(puVar13 + -0x6c) - uVar6;\u000a        uVar10 = uVar10 - uVar6;\u000a        *puVar11 = uVar3 - (uVar3 >> 5);\u000a        iVar12 = iVar12 + 1;\u000a      }\u000a      iVar1 = *(int *)(puVar13 + -0x8c);\u000a      *(int *)(puVar13 + -0x8c) = iVar1 + -1;\u000a    } while (iVar1 + -1 != 0);\u000a    iVar12 = (iVar12 - (1 << (puVar13[-0x84] & 0x1f))) + *(int *)(puVar13 + -0x88);\u000a    *(int *)(puVar13 + -0xa8) = iVar12;\u000a    if (*(int *)(puVar13 + -0x54) < 4) {\u000a      *(int *)(puVar13 + -0x54) = *(int *)(puVar13 + -0x54) + 7;\u000a      if (3 < iVar12) {\u000a        iVar12 = 3;\u000a      }\u000a      *(undefined4 *)(puVar13 + -0x90) = 6;\u000a      *(int *)(puVar13 + -0xac) = *(int *)(puVar13 + -0x3c) + 0x360 + iVar12 * 0x80;\u000a      iVar12 = 1;\u000a      do {\u000a        iVar12 = iVar12 * 2;\u000a        puVar11 = (ushort *)(*(int *)(puVar13 + -0xac) + iVar12);\u000a        if (*(uint *)(puVar13 + -0x6c) < 0x1000000) {\u000a          if (pbVar17 == *(byte **)(puVar13 + -0x68)) goto LAB_00c0d1bf;\u000a          *(int *)(puVar13 + -0x6c) = *(int *)(puVar13 + -0x6c) << 8;\u000a          bVar2 = *pbVar17;\u000a          pbVar17 = pbVar17 + 1;\u000a          uVar10 = uVar10 << 8 | (uint)bVar2;\u000a        }\u000a        uVar3 = *puVar11;\u000a        uVar6 = (*(uint *)(puVar13 + -0x6c) >> 0xb) * (uint)uVar3;\u000a        if (uVar10 < uVar6) {\u000a          *(uint *)(puVar13 + -0x6c) = uVar6;\u000a          *puVar11 = uVar3 + (short)((int)(0x800 - (uint)uVar3) >> 5);\u000a        }\u000a        else {\u000a          *(uint *)(puVar13 + -0x6c) = *(int *)(puVar13 + -0x6c) - uVar6;\u000a          uVar10 = uVar10 - uVar6;\u000a          iVar12 = iVar12 + 1;\u000a          *puVar11 = uVar3 - (uVar3 >> 5);\u000a        }\u000a        iVar1 = *(int *)(puVar13 + -0x90);\u000a        *(int *)(puVar13 + -0x90) = iVar1 + -1;\u000a      } while (iVar1 + -1 != 0);\u000a      uVar6 = iVar12 - 0x40;\u000a      *(uint *)(puVar13 + -0xb4) = uVar6;\u000a      if (3 < (int)uVar6) {\u000a        iVar12 = ((int)uVar6 >> 1) + -1;\u000a        uVar8 = uVar6 & 1 | 2;\u000a        *(int *)(puVar13 + -0x94) = iVar12;\u000a        if ((int)uVar6 < 0xe) {\u000a          iVar12 = uVar8 << ((byte)iVar12 & 0x1f);\u000a          *(int *)(puVar13 + -0xb4) = iVar12;\u000a          *(uint *)(puVar13 + -0xb0) = *(int *)(puVar13 + -0x3c) + iVar12 * 2 + uVar6 * -2 + 0x55e;\u000a        }\u000a        else {\u000a          iVar12 = ((int)uVar6 >> 1) + -5;\u000a          do {\u000a            if (*(uint *)(puVar13 + -0x6c) < 0x1000000) {\u000a              if (pbVar17 == *(byte **)(puVar13 + -0x68)) goto LAB_00c0d1bf;\u000a              *(int *)(puVar13 + -0x6c) = *(int *)(puVar13 + -0x6c) << 8;\u000a              bVar2 = *pbVar17;\u000a              pbVar17 = pbVar17 + 1;\u000a              uVar10 = uVar10 << 8 | (uint)bVar2;\u000a            }\u000a            *(uint *)(puVar13 + -0x6c) = *(uint *)(puVar13 + -0x6c) >> 1;\u000a            uVar8 = uVar8 * 2;\u000a            if (*(uint *)(puVar13 + -0x6c) <= uVar10) {\u000a              uVar10 = uVar10 - *(int *)(puVar13 + -0x6c);\u000a              uVar8 = uVar8 | 1;\u000a            }\u000a            iVar12 = iVar12 + -1;\u000a          } while (iVar12 != 0);\u000a          *(uint *)(puVar13 + -0xb4) = uVar8 << 4;\u000a          *(undefined4 *)(puVar13 + -0x94) = 4;\u000a          *(int *)(puVar13 + -0xb0) = *(int *)(puVar13 + -0x3c) + 0x644;\u000a        }\u000a        *(undefined4 *)(puVar13 + -0x98) = 1;\u000a        iVar12 = 1;\u000a        do {\u000a          *(int *)(puVar13 + -0x9c) = iVar12 * 2;\u000a          puVar11 = (ushort *)(*(int *)(puVar13 + -0xb0) + iVar12 * 2);\u000a          if (*(uint *)(puVar13 + -0x6c) < 0x1000000) {\u000a            if (pbVar17 == *(byte **)(puVar13 + -0x68)) goto LAB_00c0d1bf;\u000a            *(int *)(puVar13 + -0x6c) = *(int *)(puVar13 + -0x6c) << 8;\u000a            bVar2 = *pbVar17;\u000a            pbVar17 = pbVar17 + 1;\u000a            uVar10 = uVar10 << 8 | (uint)bVar2;\u000a          }\u000a          uVar3 = *puVar11;\u000a          uVar6 = (*(uint *)(puVar13 + -0x6c) >> 0xb) * (uint)uVar3;\u000a          if (uVar10 < uVar6) {\u000a            *(uint *)(puVar13 + -0x6c) = uVar6;\u000a            *puVar11 = uVar3 + (short)((int)(0x800 - (uint)uVar3) >> 5);\u000a            iVar12 = *(int *)(puVar13 + -0x9c);\u000a          }\u000a          else {\u000a            *(uint *)(puVar13 + -0x6c) = *(int *)(puVar13 + -0x6c) - uVar6;\u000a            uVar10 = uVar10 - uVar6;\u000a            iVar12 = *(int *)(puVar13 + -0x9c);\u000a            *puVar11 = uVar3 - (uVar3 >> 5);\u000a            iVar12 = iVar12 + 1;\u000a            *(uint *)(puVar13 + -0xb4) = *(uint *)(puVar13 + -0xb4) | *(uint *)(puVar13 + -0x98);\u000a          }\u000a          iVar1 = *(int *)(puVar13 + -0x94);\u000a          *(int *)(puVar13 + -0x98) = *(int *)(puVar13 + -0x98) << 1;\u000a          *(int *)(puVar13 + -0x94) = iVar1 + -1;\u000a        } while (iVar1 + -1 != 0);\u000a      }\u000a      *(int *)(puVar13 + -0x58) = *(int *)(puVar13 + -0xb4) + 1;\u000a      if (*(int *)(puVar13 + -0xb4) + 1 == 0) goto LAB_00c0d181;\u000a    }\u000a    uVar6 = *(uint *)(puVar13 + -0x40);\u000a    iVar12 = *(int *)(puVar13 + -0xa8) + 2;\u000a    if (uVar6 <= *(uint *)(puVar13 + -0x58) && *(uint *)(puVar13 + -0x58) != uVar6)\u000a    goto LAB_00c0d1bf;\u000a    puVar15 = (undefined *)(uVar6 + *(int *)(puVar13 + -0x14));\u000a    puVar18 = (undefined *)((*(int *)(puVar13 + -0x14) - *(int *)(puVar13 + -0x58)) + uVar6);\u000a    while( true ) {\u000a      uVar16 = *puVar18;\u000a      puVar18 = puVar18 + 1;\u000a      puVar13[-0x41] = uVar16;\u000a      *puVar15 = uVar16;\u000a      puVar15 = puVar15 + 1;\u000a      *(int *)(puVar13 + -0x40) = *(int *)(puVar13 + -0x40) + 1;\u000a      iVar12 = iVar12 + -1;\u000a      if (iVar12 == 0) break;\u000a      if (*(uint *)(puVar13 + -0x10) <= *(uint *)(puVar13 + -0x40)) goto LAB_00c0d181;\u000a    }\u000a    goto LAB_00c0d170;\u000a  }\u000aLAB_00c0d1a0:\u000a  uVar9 = *(undefined4 *)(puVar13 + -0x40);\u000a  **(byte ***)(puVar13 + -0x18) = pbVar17 + -*(int *)(puVar13 + -0x20);\u000a  **(undefined4 **)(puVar13 + -0xc) = uVar9;\u000aLAB_00c0d1bf:\u000a  iVar19 = *(int *)(puVar13 + -0x34);\u000a  iVar20 = *(int *)(puVar13 + -0x30);\u000a  puVar15 = *(undefined **)(puVar13 + -0x2c);\u000a  iVar12 = *(int *)(*(int *)(puVar13 + -0x38) + -4);\u000a  iVar1 = *(int *)(*(int *)(puVar13 + -0x38) + -8);\u000a  uVar9 = 0;\u000a  puVar18 = puVar15;\u000a  do {\u000a    puVar14 = puVar18 + -4;\u000a    *(undefined4 *)(puVar18 + -4) = 0;\u000a    puVar18 = puVar18 + -4;\u000a  } while (puVar14 != puVar13 + -0x128);\u000a  if (iVar19 + iVar12 != *(int *)(puVar15 + 0x24) + *(int *)(puVar15 + 0x28)) {\u000a    uVar9 = 0xffffffff;\u000a  }\u000a  **(int **)(puVar15 + 0x30) = (iVar20 + iVar1) - *(int *)(puVar15 + 0x2c);\u000a  *(undefined4 *)(puVar15 + 0x1c) = uVar9;\u000a  return CONCAT44(*(undefined4 *)(puVar15 + 0x14),*(undefined4 *)(puVar15 + 0x1c));\u000aLAB_00c0c9af:\u000a  uVar16 = (undefined)iVar12;\u000a  if (iVar12 < 0x100) {\u000aLAB_00c0c9b7:\u000a    iVar12 = iVar12 * 2;\u000a    puVar11 = (ushort *)(*(int *)(puVar13 + -0xa0) + iVar12);\u000a    if (*(uint *)(puVar13 + -0x6c) < 0x1000000) {\u000a      if (pbVar17 == *(byte **)(puVar13 + -0x68)) goto LAB_00c0d1bf;\u000a      *(int *)(puVar13 + -0x6c) = *(int *)(puVar13 + -0x6c) << 8;\u000a      bVar2 = *pbVar17;\u000a      pbVar17 = pbVar17 + 1;\u000a      uVar10 = uVar10 << 8 | (uint)bVar2;\u000a    }\u000a    uVar3 = *puVar11;\u000a    uVar6 = (*(uint *)(puVar13 + -0x6c) >> 0xb) * (uint)uVar3;\u000a    if (uVar10 < uVar6) {\u000a      *(uint *)(puVar13 + -0x6c) = uVar6;\u000a      *puVar11 = uVar3 + (short)((int)(0x800 - (uint)uVar3) >> 5);\u000a    }\u000a    else {\u000a      *(uint *)(puVar13 + -0x6c) = *(int *)(puVar13 + -0x6c) - uVar6;\u000a      uVar10 = uVar10 - uVar6;\u000a      iVar12 = iVar12 + 1;\u000a      *puVar11 = uVar3 - (uVar3 >> 5);\u000a    }\u000a    goto LAB_00c0c9af;\u000a  }\u000aLAB_00c0ca28:\u000a  iVar12 = *(int *)(puVar13 + -0x40);\u000a  puVar13[-0x41] = uVar16;\u000a  *(undefined *)(iVar12 + *(int *)(puVar13 + -0x14)) = uVar16;\u000a  *(int *)(puVar13 + -0x40) = iVar12 + 1;\u000a  if (*(int *)(puVar13 + -0x54) < 4) {\u000a    *(undefined4 *)(puVar13 + -0x54) = 0;\u000a  }\u000a  else {\u000a    if (*(int *)(puVar13 + -0x54) < 10) {\u000a      *(int *)(puVar13 + -0x54) = *(int *)(puVar13 + -0x54) + -3;\u000a    }\u000a    else {\u000a      *(int *)(puVar13 + -0x54) = *(int *)(puVar13 + -0x54) + -6;\u000a    }\u000a  }\u000aLAB_00c0d170:\u000a  if (*(uint *)(puVar13 + -0x10) <= *(uint *)(puVar13 + -0x40)) goto LAB_00c0d181;\u000a  goto LAB_00c0c83c;\u000aLAB_00c0d181:\u000a  if (*(uint *)(puVar13 + -0x6c) < 0x1000000) {\u000a    if (pbVar17 == *(byte **)(puVar13 + -0x68)) goto LAB_00c0d1bf;\u000a    pbVar17 = pbVar17 + 1;\u000a  }\u000a  goto LAB_00c0d1a0;\u000a}\u000a\u000a
p10
S'CALL 0x00c0d351\nJMP 0x00c0c6e5\nPUSHAD\nMOV ESI,dword ptr [ESP + 0x24]\nMOV EDI,dword ptr [ESP + 0x2c]\nOR EBP,0xffffffff\nMOV EBP,ESP\nMOV EDX,dword ptr [EBP + 0x28]\nLODSB ESI\nDEC EDX\nMOV CL,AL\nAND AL,0x7\nSHR CL,0x3\nMOV EBX,0xfffffd00\nSHL EBX,CL\nLEA ESP,[0xfffff190 + ESP + EBX*0x2]\nAND ESP,0xffffffe0\nPUSH 0x0\nPUSH 0x0\nMOV EBX,ESP\nPUSH EBX\nADD EBX,0x4\nMOV ECX,dword ptr [EBP + 0x30]\nPUSH dword ptr [ECX]\nPUSH EDI\nPUSH EBX\nADD EBX,0x4\nMOV byte ptr [EBX + 0x2],AL\nLODSB ESI\nDEC EDX\nMOV CL,AL\nAND AL,0xf\nMOV byte ptr [EBX],AL\nSHR CL,0x4\nMOV byte ptr [EBX + 0x1],CL\nPUSH EDX\nPUSH ESI\nPUSH EBX\nPUSH EAX\nNOP\nNOP\nNOP\nNOP\nNOP\nNOP\nNOP\nPUSH EBP\nPUSH EDI\nPUSH ESI\nPUSH EBX\nSUB ESP,0x7c\nMOV EDX,dword ptr [0x90 + ESP]\nMOV dword ptr [ESP + 0x74],0x0\nMOV byte ptr [ESP + 0x73],0x0\nMOV EBP,dword ptr [0x9c + ESP]\nLEA EAX,[EDX + 0x4]\nMOV dword ptr [ESP + 0x78],EAX\nMOV EAX,0x1\nMOVZX ECX,byte ptr [EDX + 0x2]\nMOV EBX,EAX\nSHL EBX,CL\nMOV ECX,EBX\nDEC ECX\nMOV dword ptr [ESP + 0x6c],ECX\nMOVZX ECX,byte ptr [EDX + 0x1]\nSHL EAX,CL\nDEC EAX\nMOV dword ptr [ESP + 0x68],EAX\nMOV EAX,dword ptr [0xa8 + ESP]\nMOVZX ESI,byte ptr [EDX]\nMOV dword ptr [EBP],0x0\nMOV dword ptr [ESP + 0x60],0x0\nMOV dword ptr [EAX],0x0\nMOV EAX,0x300\nMOV dword ptr [ESP + 0x64],ESI\nMOV dword ptr [ESP + 0x5c],0x1\nMOV dword ptr [ESP + 0x58],0x1\nMOV dword ptr [ESP + 0x54],0x1\nMOV dword ptr [ESP + 0x50],0x1\nMOVZX ECX,byte ptr [EDX + 0x1]\nADD ECX,ESI\nSHL EAX,CL\nLEA ECX,[0x736 + EAX]\nCMP dword ptr [ESP + 0x74],ECX\nJNC 0x00c0c7f2\nMOV EAX,dword ptr [ESP + 0x78]\nMOV word ptr [EAX],0x400\nADD EAX,0x2\nLOOP 0x00c0c7e8\nMOV EBX,dword ptr [0x94 + ESP]\nXOR EDI,EDI\nMOV dword ptr [ESP + 0x48],0xffffffff\nMOV EDX,EBX\nADD EDX,dword ptr [0x98 + ESP]\nMOV dword ptr [ESP + 0x4c],EDX\nXOR EDX,EDX\nCMP EBX,dword ptr [ESP + 0x4c]\nJZ 0x00c0d198\nMOVZX EAX,byte ptr [EBX]\nSHL EDI,0x8\nINC EDX\nINC EBX\nOR EDI,EAX\nCMP EDX,0x4\nJLE 0x00c0c812\nMOV ECX,dword ptr [0xa4 + ESP]\nCMP dword ptr [ESP + 0x74],ECX\nJNC 0x00c0d1a0\nMOV ESI,dword ptr [ESP + 0x74]\nAND ESI,dword ptr [ESP + 0x6c]\nMOV EAX,dword ptr [ESP + 0x60]\nMOV EDX,dword ptr [ESP + 0x78]\nSHL EAX,0x4\nMOV dword ptr [ESP + 0x44],ESI\nADD EAX,ESI\nCMP dword ptr [ESP + 0x48],0xffffff\nLEA EBP,[EDX + EAX*0x2]\nJA 0x00c0c87a\nCMP EBX,dword ptr [ESP + 0x4c]\nJZ 0x00c0d198\nSHL dword ptr [ESP + 0x48],0x8\nMOVZX EAX,byte ptr [EBX]\nSHL EDI,0x8\nINC EBX\nOR EDI,EAX\nMOV EAX,dword ptr [ESP + 0x48]\nMOV DX,word ptr [EBP]\nSHR EAX,0xb\nMOVZX ECX,DX\nIMUL EAX,ECX\nCMP EDI,EAX\nJNC 0x00c0ca70\nMOV dword ptr [ESP + 0x48],EAX\nMOV EAX,0x800\nSUB EAX,ECX\nMOV CL,byte ptr [ESP + 0x64]\nSAR EAX,0x5\nMOV ESI,0x1\nLEA EAX,[EDX + EAX*0x1]\nMOVZX EDX,byte ptr [ESP + 0x73]\nMOV word ptr [EBP],AX\nMOV EAX,dword ptr [ESP + 0x74]\nAND EAX,dword ptr [ESP + 0x68]\nMOV EBP,dword ptr [ESP + 0x78]\nSHL EAX,CL\nMOV ECX,0x8\nSUB ECX,dword ptr [ESP + 0x64]\nSAR EDX,CL\nADD EAX,EDX\nIMUL EAX,EAX,0x600\nCMP dword ptr [ESP + 0x60],0x6\nLEA EAX,[0xe6c + EBP + EAX*0x1]\nMOV dword ptr [ESP + 0x14],EAX\nJLE 0x00c0c9b7\nMOV EAX,dword ptr [ESP + 0x74]\nSUB EAX,dword ptr [ESP + 0x5c]\nMOV EDX,dword ptr [0xa0 + ESP]\nMOVZX EAX,byte ptr [EDX + EAX*0x1]\nMOV dword ptr [ESP + 0x40],EAX\nSHL dword ptr [ESP + 0x40],1\nMOV ECX,dword ptr [ESP + 0x40]\nLEA EDX,[ESI + ESI*0x1]\nMOV EBP,dword ptr [ESP + 0x14]\nAND ECX,0x100\nCMP dword ptr [ESP + 0x48],0xffffff\nLEA EAX,[EBP + ECX*0x2]\nMOV dword ptr [ESP + 0x3c],ECX\nLEA EBP,[EAX + EDX*0x1]\nJA 0x00c0c946\nCMP EBX,dword ptr [ESP + 0x4c]\nJZ 0x00c0d198\nSHL dword ptr [ESP + 0x48],0x8\nMOVZX EAX,byte ptr [EBX]\nSHL EDI,0x8\nINC EBX\nOR EDI,EAX\nMOV EAX,dword ptr [ESP + 0x48]\nMOV CX,word ptr [0x200 + EBP]\nSHR EAX,0xb\nMOVZX ESI,CX\nIMUL EAX,ESI\nCMP EDI,EAX\nJNC 0x00c0c981\nMOV dword ptr [ESP + 0x48],EAX\nMOV EAX,0x800\nSUB EAX,ESI\nMOV ESI,EDX\nSAR EAX,0x5\nCMP dword ptr [ESP + 0x3c],0x0\nLEA EAX,[ECX + EAX*0x1]\nMOV word ptr [0x200 + EBP],AX\nJZ 0x00c0c9a1\nJMP 0x00c0c9af\nSUB dword ptr [ESP + 0x48],EAX\nSUB EDI,EAX\nMOV EAX,ECX\nLEA ESI,[EDX + 0x1]\nSHR AX,0x5\nSUB CX,AX\nCMP dword ptr [ESP + 0x3c],0x0\nMOV word ptr [0x200 + EBP],CX\nJZ 0x00c0c9af\nCMP ESI,0xff\nJLE 0x00c0c904\nJMP 0x00c0ca28\nCMP ESI,0xff\nJG 0x00c0ca28\nLEA EDX,[ESI + ESI*0x1]\nMOV EBP,dword ptr [ESP + 0x14]\nADD EBP,EDX\nCMP dword ptr [ESP + 0x48],0xffffff\nJA 0x00c0c9e2\nCMP EBX,dword ptr [ESP + 0x4c]\nJZ 0x00c0d198\nSHL dword ptr [ESP + 0x48],0x8\nMOVZX EAX,byte ptr [EBX]\nSHL EDI,0x8\nINC EBX\nOR EDI,EAX\nMOV EAX,dword ptr [ESP + 0x48]\nMOV CX,word ptr [EBP]\nSHR EAX,0xb\nMOVZX ESI,CX\nIMUL EAX,ESI\nCMP EDI,EAX\nJNC 0x00c0ca10\nMOV dword ptr [ESP + 0x48],EAX\nMOV EAX,0x800\nSUB EAX,ESI\nMOV ESI,EDX\nSAR EAX,0x5\nLEA EAX,[ECX + EAX*0x1]\nMOV word ptr [EBP],AX\nJMP 0x00c0c9af\nSUB dword ptr [ESP + 0x48],EAX\nSUB EDI,EAX\nMOV EAX,ECX\nLEA ESI,[EDX + 0x1]\nSHR AX,0x5\nSUB CX,AX\nMOV word ptr [EBP],CX\nJMP 0x00c0c9af\nMOV EDX,dword ptr [ESP + 0x74]\nMOV EAX,ESI\nMOV ECX,dword ptr [0xa0 + ESP]\nMOV byte ptr [ESP + 0x73],AL\nMOV byte ptr [EDX + ECX*0x1],AL\nINC EDX\nCMP dword ptr [ESP + 0x60],0x3\nMOV dword ptr [ESP + 0x74],EDX\nJG 0x00c0ca55\nMOV dword ptr [ESP + 0x60],0x0\nJMP 0x00c0d170\nCMP dword ptr [ESP + 0x60],0x9\nJG 0x00c0ca66\nSUB dword ptr [ESP + 0x60],0x3\nJMP 0x00c0d170\nSUB dword ptr [ESP + 0x60],0x6\nJMP 0x00c0d170\nMOV ECX,dword ptr [ESP + 0x48]\nSUB EDI,EAX\nMOV ESI,dword ptr [ESP + 0x60]\nSUB ECX,EAX\nMOV EAX,EDX\nSHR AX,0x5\nSUB DX,AX\nCMP ECX,0xffffff\nMOV word ptr [EBP],DX\nMOV EBP,dword ptr [ESP + 0x78]\nLEA ESI,[EBP + ESI*0x2]\nMOV dword ptr [ESP + 0x38],ESI\nJA 0x00c0cab3\nCMP EBX,dword ptr [ESP + 0x4c]\nJZ 0x00c0d198\nMOVZX EAX,byte ptr [EBX]\nSHL EDI,0x8\nSHL ECX,0x8\nINC EBX\nOR EDI,EAX\nMOV EBP,dword ptr [ESP + 0x38]\nMOV EAX,ECX\nSHR EAX,0xb\nMOV DX,word ptr [0x180 + EBP]\nMOVZX EBP,DX\nIMUL EAX,EBP\nCMP EDI,EAX\nJNC 0x00c0cb1f\nMOV ESI,EAX\nMOV EAX,0x800\nSUB EAX,EBP\nMOV EBP,dword ptr [ESP + 0x58]\nSAR EAX,0x5\nMOV ECX,dword ptr [ESP + 0x54]\nLEA EAX,[EDX + EAX*0x1]\nMOV EDX,dword ptr [ESP + 0x38]\nMOV dword ptr [ESP + 0x50],ECX\nMOV ECX,dword ptr [ESP + 0x78]\nMOV word ptr [0x180 + EDX],AX\nMOV EAX,dword ptr [ESP + 0x5c]\nMOV dword ptr [ESP + 0x54],EBP\nMOV dword ptr [ESP + 0x58],EAX\nXOR EAX,EAX\nCMP dword ptr [ESP + 0x60],0x6\nSETG AL\nADD ECX,0x664\nLEA EAX,[EAX + EAX*0x2]\nMOV dword ptr [ESP + 0x60],EAX\nJMP 0x00c0cd93\nMOV ESI,ECX\nSUB EDI,EAX\nSUB ESI,EAX\nMOV EAX,EDX\nSHR AX,0x5\nMOV ECX,dword ptr [ESP + 0x38]\nSUB DX,AX\nCMP ESI,0xffffff\nMOV word ptr [0x180 + ECX],DX\nJA 0x00c0cb57\nCMP EBX,dword ptr [ESP + 0x4c]\nJZ 0x00c0d198\nMOVZX EAX,byte ptr [EBX]\nSHL EDI,0x8\nSHL ESI,0x8\nINC EBX\nOR EDI,EAX\nMOV EBP,dword ptr [ESP + 0x38]\nMOV EDX,ESI\nSHR EDX,0xb\nMOV CX,word ptr [0x198 + EBP]\nMOVZX EAX,CX\nIMUL EDX,EAX\nCMP EDI,EDX\nJNC 0x00c0cc58\nMOV EBP,0x800\nMOV ESI,EDX\nSUB EBP,EAX\nMOV dword ptr [ESP + 0x34],0x800\nMOV EAX,EBP\nSAR EAX,0x5\nLEA EAX,[ECX + EAX*0x1]\nMOV ECX,dword ptr [ESP + 0x38]\nMOV word ptr [0x198 + ECX],AX\nMOV EAX,dword ptr [ESP + 0x60]\nMOV ECX,dword ptr [ESP + 0x44]\nSHL EAX,0x5\nADD EAX,dword ptr [ESP + 0x78]\nCMP EDX,0xffffff\nLEA EBP,[EAX + ECX*0x2]\nJA 0x00c0cbc9\nCMP EBX,dword ptr [ESP + 0x4c]\nJZ 0x00c0d198\nMOVZX EAX,byte ptr [EBX]\nSHL EDI,0x8\nSHL ESI,0x8\nINC EBX\nOR EDI,EAX\nMOV DX,word ptr [0x1e0 + EBP]\nMOV EAX,ESI\nSHR EAX,0xb\nMOVZX ECX,DX\nIMUL EAX,ECX\nCMP EDI,EAX\nJNC 0x00c0cc3f\nSUB dword ptr [ESP + 0x34],ECX\nSAR dword ptr [ESP + 0x34],0x5\nMOV ESI,dword ptr [ESP + 0x34]\nMOV dword ptr [ESP + 0x48],EAX\nCMP dword ptr [ESP + 0x74],0x0\nLEA EAX,[EDX + ESI*0x1]\nMOV word ptr [0x1e0 + EBP],AX\nJZ 0x00c0d198\nXOR EAX,EAX\nCMP dword ptr [ESP + 0x60],0x6\nMOV EBP,dword ptr [0xa0 + ESP]\nMOV EDX,dword ptr [ESP + 0x74]\nSETG AL\nLEA EAX,[EAX + EAX*0x1 + 0x9]\nMOV dword ptr [ESP + 0x60],EAX\nMOV EAX,dword ptr [ESP + 0x74]\nSUB EAX,dword ptr [ESP + 0x5c]\nMOV AL,byte ptr [EBP + EAX*0x1]\nMOV byte ptr [ESP + 0x73],AL\nMOV byte ptr [EDX + EBP*0x1],AL\nINC EDX\nMOV dword ptr [ESP + 0x74],EDX\nJMP 0x00c0d170\nSUB ESI,EAX\nSUB EDI,EAX\nMOV EAX,EDX\nSHR AX,0x5\nSUB DX,AX\nMOV word ptr [0x1e0 + EBP],DX\nJMP 0x00c0cd77\nMOV EAX,ECX\nSUB ESI,EDX\nSHR AX,0x5\nMOV EBP,dword ptr [ESP + 0x38]\nSUB CX,AX\nSUB EDI,EDX\nCMP ESI,0xffffff\nMOV word ptr [0x198 + EBP],CX\nJA 0x00c0cc8e\nCMP EBX,dword ptr [ESP + 0x4c]\nJZ 0x00c0d198\nMOVZX EAX,byte ptr [EBX]\nSHL EDI,0x8\nSHL ESI,0x8\nINC EBX\nOR EDI,EAX\nMOV ECX,dword ptr [ESP + 0x38]\nMOV EAX,ESI\nSHR EAX,0xb\nMOV DX,word ptr [0x1b0 + ECX]\nMOVZX ECX,DX\nIMUL EAX,ECX\nCMP EDI,EAX\nJNC 0x00c0cccb\nMOV ESI,EAX\nMOV EAX,0x800\nSUB EAX,ECX\nMOV EBP,dword ptr [ESP + 0x38]\nSAR EAX,0x5\nLEA EAX,[EDX + EAX*0x1]\nMOV word ptr [0x1b0 + EBP],AX\nMOV EAX,dword ptr [ESP + 0x58]\nJMP 0x00c0cd6b\nMOV ECX,ESI\nSUB EDI,EAX\nSUB ECX,EAX\nMOV EAX,EDX\nSHR AX,0x5\nSUB DX,AX\nMOV EAX,dword ptr [ESP + 0x38]\nCMP ECX,0xffffff\nMOV word ptr [0x1b0 + EAX],DX\nJA 0x00c0cd03\nCMP EBX,dword ptr [ESP + 0x4c]\nJZ 0x00c0d198\nMOVZX EAX,byte ptr [EBX]\nSHL EDI,0x8\nSHL ECX,0x8\nINC EBX\nOR EDI,EAX\nMOV ESI,dword ptr [ESP + 0x38]\nMOV EAX,ECX\nSHR EAX,0xb\nMOV DX,word ptr [0x1c8 + ESI]\nMOVZX EBP,DX\nIMUL EAX,EBP\nCMP EDI,EAX\nJNC 0x00c0cd3d\nMOV ESI,EAX\nMOV EAX,0x800\nSUB EAX,EBP\nMOV EBP,dword ptr [ESP + 0x38]\nSAR EAX,0x5\nLEA EAX,[EDX + EAX*0x1]\nMOV word ptr [0x1c8 + EBP],AX\nMOV EAX,dword ptr [ESP + 0x54]\nJMP 0x00c0cd63\nMOV ESI,ECX\nSUB EDI,EAX\nSUB ESI,EAX\nMOV EAX,EDX\nSHR AX,0x5\nSUB DX,AX\nMOV EAX,dword ptr [ESP + 0x38]\nMOV word ptr [0x1c8 + EAX],DX\nMOV EDX,dword ptr [ESP + 0x54]\nMOV EAX,dword ptr [ESP + 0x50]\nMOV dword ptr [ESP + 0x50],EDX\nMOV ECX,dword ptr [ESP + 0x58]\nMOV dword ptr [ESP + 0x54],ECX\nMOV EBP,dword ptr [ESP + 0x5c]\nMOV dword ptr [ESP + 0x5c],EAX\nMOV dword ptr [ESP + 0x58],EBP\nXOR EAX,EAX\nCMP dword ptr [ESP + 0x60],0x6\nMOV ECX,dword ptr [ESP + 0x78]\nSETG AL\nADD ECX,0xa68\nLEA EAX,[EAX + EAX*0x2 + 0x8]\nMOV dword ptr [ESP + 0x60],EAX\nCMP ESI,0xffffff\nJA 0x00c0cdb1\nCMP EBX,dword ptr [ESP + 0x4c]\nJZ 0x00c0d198\nMOVZX EAX,byte ptr [EBX]\nSHL EDI,0x8\nSHL ESI,0x8\nINC EBX\nOR EDI,EAX\nMOV DX,word ptr [ECX]\nMOV EAX,ESI\nSHR EAX,0xb\nMOVZX EBP,DX\nIMUL EAX,EBP\nCMP EDI,EAX\nJNC 0x00c0cdf2\nMOV dword ptr [ESP + 0x48],EAX\nMOV EAX,0x800\nSUB EAX,EBP\nSHL dword ptr [ESP + 0x44],0x4\nSAR EAX,0x5\nMOV dword ptr [ESP + 0x2c],0x0\nLEA EAX,[EDX + EAX*0x1]\nMOV word ptr [ECX],AX\nMOV EAX,dword ptr [ESP + 0x44]\nLEA ECX,[ECX + EAX*0x1 + 0x4]\nMOV dword ptr [ESP + 0x10],ECX\nJMP 0x00c0ce64\nSUB ESI,EAX\nSUB EDI,EAX\nMOV EAX,EDX\nSHR AX,0x5\nSUB DX,AX\nCMP ESI,0xffffff\nMOV word ptr [ECX],DX\nJA 0x00c0ce20\nCMP EBX,dword ptr [ESP + 0x4c]\nJZ 0x00c0d198\nMOVZX EAX,byte ptr [EBX]\nSHL EDI,0x8\nSHL ESI,0x8\nINC EBX\nOR EDI,EAX\nMOV DX,word ptr [ECX + 0x2]\nMOV EAX,ESI\nSHR EAX,0xb\nMOVZX EBP,DX\nIMUL EAX,EBP\nCMP EDI,EAX\nJNC 0x00c0ce6e\nMOV dword ptr [ESP + 0x48],EAX\nMOV EAX,0x800\nSUB EAX,EBP\nSHL dword ptr [ESP + 0x44],0x4\nSAR EAX,0x5\nMOV dword ptr [ESP + 0x2c],0x8\nLEA EAX,[EDX + EAX*0x1]\nMOV EDX,dword ptr [ESP + 0x44]\nMOV word ptr [ECX + 0x2],AX\nLEA ECX,[0x104 + ECX + EDX*0x1]\nMOV dword ptr [ESP + 0x10],ECX\nMOV dword ptr [ESP + 0x30],0x3\nJMP 0x00c0ce9d\nSUB ESI,EAX\nSUB EDI,EAX\nMOV EAX,EDX\nMOV dword ptr [ESP + 0x48],ESI\nSHR AX,0x5\nMOV dword ptr [ESP + 0x2c],0x10\nSUB DX,AX\nMOV dword ptr [ESP + 0x30],0x8\nMOV word ptr [ECX + 0x2],DX\nADD ECX,0x204\nMOV dword ptr [ESP + 0x10],ECX\nMOV ECX,dword ptr [ESP + 0x30]\nMOV EDX,0x1\nMOV dword ptr [ESP + 0x28],ECX\nLEA EBP,[EDX + EDX*0x1]\nMOV ESI,dword ptr [ESP + 0x10]\nADD ESI,EBP\nCMP dword ptr [ESP + 0x48],0xffffff\nJA 0x00c0ced5\nCMP EBX,dword ptr [ESP + 0x4c]\nJZ 0x00c0d198\nSHL dword ptr [ESP + 0x48],0x8\nMOVZX EAX,byte ptr [EBX]\nSHL EDI,0x8\nINC EBX\nOR EDI,EAX\nMOV EAX,dword ptr [ESP + 0x48]\nMOV DX,word ptr [ESI]\nSHR EAX,0xb\nMOVZX ECX,DX\nIMUL EAX,ECX\nCMP EDI,EAX\nJNC 0x00c0cf01\nMOV dword ptr [ESP + 0x48],EAX\nMOV EAX,0x800\nSUB EAX,ECX\nSAR EAX,0x5\nLEA EAX,[EDX + EAX*0x1]\nMOV EDX,EBP\nMOV word ptr [ESI],AX\nJMP 0x00c0cf16\nSUB dword ptr [ESP + 0x48],EAX\nSUB EDI,EAX\nMOV EAX,EDX\nSHR AX,0x5\nSUB DX,AX\nMOV word ptr [ESI],DX\nLEA EDX,[EBP + 0x1]\nMOV ESI,dword ptr [ESP + 0x28]\nDEC ESI\nMOV dword ptr [ESP + 0x28],ESI\nJNZ 0x00c0ceaa\nMOV CL,byte ptr [ESP + 0x30]\nMOV EAX,0x1\nSHL EAX,CL\nSUB EDX,EAX\nADD EDX,dword ptr [ESP + 0x2c]\nCMP dword ptr [ESP + 0x60],0x3\nMOV dword ptr [ESP + 0xc],EDX\nJG 0x00c0d128\nADD dword ptr [ESP + 0x60],0x7\nCMP EDX,0x3\nMOV EAX,EDX\nJLE 0x00c0cf52\nMOV EAX,0x3\nMOV ESI,dword ptr [ESP + 0x78]\nSHL EAX,0x7\nMOV dword ptr [ESP + 0x24],0x6\nLEA EAX,[0x360 + ESI + EAX*0x1]\nMOV dword ptr [ESP + 0x8],EAX\nMOV EAX,0x1\nLEA EBP,[EAX + EAX*0x1]\nMOV ESI,dword ptr [ESP + 0x8]\nADD ESI,EBP\nCMP dword ptr [ESP + 0x48],0xffffff\nJA 0x00c0cf9c\nCMP EBX,dword ptr [ESP + 0x4c]\nJZ 0x00c0d198\nSHL dword ptr [ESP + 0x48],0x8\nMOVZX EAX,byte ptr [EBX]\nSHL EDI,0x8\nINC EBX\nOR EDI,EAX\nMOV EAX,dword ptr [ESP + 0x48]\nMOV DX,word ptr [ESI]\nSHR EAX,0xb\nMOVZX ECX,DX\nIMUL EAX,ECX\nCMP EDI,EAX\nJNC 0x00c0cfc8\nMOV dword ptr [ESP + 0x48],EAX\nMOV EAX,0x800\nSUB EAX,ECX\nSAR EAX,0x5\nLEA EAX,[EDX + EAX*0x1]\nMOV word ptr [ESI],AX\nMOV EAX,EBP\nJMP 0x00c0cfdd\nSUB dword ptr [ESP + 0x48],EAX\nSUB EDI,EAX\nMOV EAX,EDX\nSHR AX,0x5\nSUB DX,AX\nLEA EAX,[EBP + 0x1]\nMOV word ptr [ESI],DX\nMOV EBP,dword ptr [ESP + 0x24]\nDEC EBP\nMOV dword ptr [ESP + 0x24],EBP\nJNZ 0x00c0cf71\nLEA EDX,[EAX + -0x40]\nCMP EDX,0x3\nMOV dword ptr [ESP],EDX\nJLE 0x00c0d11e\nMOV EAX,EDX\nMOV ESI,EDX\nSAR EAX,1\nAND ESI,0x1\nLEA ECX,[EAX + -0x1]\nOR ESI,0x2\nCMP EDX,0xd\nMOV dword ptr [ESP + 0x20],ECX\nJG 0x00c0d02b\nMOV EBP,dword ptr [ESP + 0x78]\nSHL ESI,CL\nADD EDX,EDX\nMOV dword ptr [ESP],ESI\nLEA EAX,[EBP + ESI*0x2]\nSUB EAX,EDX\nADD EAX,0x55e\nMOV dword ptr [ESP + 0x4],EAX\nJMP 0x00c0d081\nLEA EDX,[EAX + -0x5]\nCMP dword ptr [ESP + 0x48],0xffffff\nJA 0x00c0d050\nCMP EBX,dword ptr [ESP + 0x4c]\nJZ 0x00c0d198\nSHL dword ptr [ESP + 0x48],0x8\nMOVZX EAX,byte ptr [EBX]\nSHL EDI,0x8\nINC EBX\nOR EDI,EAX\nSHR dword ptr [ESP + 0x48],1\nADD ESI,ESI\nCMP EDI,dword ptr [ESP + 0x48]\nJC 0x00c0d063\nSUB EDI,dword ptr [ESP + 0x48]\nOR ESI,0x1\nDEC EDX\nJNZ 0x00c0d02e\nMOV EAX,dword ptr [ESP + 0x78]\nSHL ESI,0x4\nMOV dword ptr [ESP],ESI\nADD EAX,0x644\nMOV dword ptr [ESP + 0x20],0x4\nMOV dword ptr [ESP + 0x4],EAX\nMOV dword ptr [ESP + 0x1c],0x1\nMOV EAX,0x1\nMOV EBP,dword ptr [ESP + 0x4]\nADD EAX,EAX\nMOV dword ptr [ESP + 0x18],EAX\nADD EBP,EAX\nCMP dword ptr [ESP + 0x48],0xffffff\nJA 0x00c0d0bc\nCMP EBX,dword ptr [ESP + 0x4c]\nJZ 0x00c0d198\nSHL dword ptr [ESP + 0x48],0x8\nMOVZX EAX,byte ptr [EBX]\nSHL EDI,0x8\nINC EBX\nOR EDI,EAX\nMOV EAX,dword ptr [ESP + 0x48]\nMOV DX,word ptr [EBP]\nSHR EAX,0xb\nMOVZX ESI,DX\nIMUL EAX,ESI\nCMP EDI,EAX\nJNC 0x00c0d0ec\nMOV dword ptr [ESP + 0x48],EAX\nMOV EAX,0x800\nSUB EAX,ESI\nSAR EAX,0x5\nLEA EAX,[EDX + EAX*0x1]\nMOV word ptr [EBP],AX\nMOV EAX,dword ptr [ESP + 0x18]\nJMP 0x00c0d10b\nSUB dword ptr [ESP + 0x48],EAX\nSUB EDI,EAX\nMOV EAX,EDX\nSHR AX,0x5\nSUB DX,AX\nMOV EAX,dword ptr [ESP + 0x18]\nMOV word ptr [EBP],DX\nMOV EDX,dword ptr [ESP + 0x1c]\nINC EAX\nOR dword ptr [ESP],EDX\nMOV ECX,dword ptr [ESP + 0x20]\nSHL dword ptr [ESP + 0x1c],1\nDEC ECX\nMOV dword ptr [ESP + 0x20],ECX\nJNZ 0x00c0d08e\nMOV ESI,dword ptr [ESP]\nINC ESI\nMOV dword ptr [ESP + 0x5c],ESI\nJZ 0x00c0d181\nMOV ECX,dword ptr [ESP + 0xc]\nMOV EBP,dword ptr [ESP + 0x74]\nADD ECX,0x2\nCMP dword ptr [ESP + 0x5c],EBP\nJA 0x00c0d198\nMOV EAX,dword ptr [0xa0 + ESP]\nMOV EDX,EBP\nSUB EAX,dword ptr [ESP + 0x5c]\nADD EDX,dword ptr [0xa0 + ESP]\nLEA ESI,[EAX + EBP*0x1]\nMOV AL,byte ptr [ESI]\nINC ESI\nMOV byte ptr [ESP + 0x73],AL\nMOV byte ptr [EDX],AL\nINC EDX\nINC dword ptr [ESP + 0x74]\nDEC ECX\nJZ 0x00c0d170\nMOV EBP,dword ptr [0xa4 + ESP]\nCMP dword ptr [ESP + 0x74],EBP\nJC 0x00c0d150\nJMP 0x00c0d181\nMOV EAX,dword ptr [0xa4 + ESP]\nCMP dword ptr [ESP + 0x74],EAX\nJC 0x00c0c83c\nCMP dword ptr [ESP + 0x48],0xffffff\nJA 0x00c0d1a0\nCMP EBX,dword ptr [ESP + 0x4c]\nMOV EAX,0x1\nJZ 0x00c0d1bf\nJMP 0x00c0d19f\nMOV EAX,0x1\nJMP 0x00c0d1bf\nINC EBX\nSUB EBX,dword ptr [0x94 + ESP]\nXOR EAX,EAX\nMOV EDX,dword ptr [0x9c + ESP]\nMOV ECX,dword ptr [ESP + 0x74]\nMOV dword ptr [EDX],EBX\nMOV EBX,dword ptr [0xa8 + ESP]\nMOV dword ptr [EBX],ECX\nADD ESP,0x7c\nPOP EBX\nPOP ESI\nPOP EDI\nPOP EBP\nADD ESI,dword ptr [EBX + -0x4]\nADD EDI,dword ptr [EBX + -0x8]\nXOR EAX,EAX\nLEA ECX,[0xffffff00 + ESP]\nMOV ESP,EBP\nPUSH EAX\nCMP ESP,ECX\nJNZ 0x00c0d1d7\nMOV ESP,EBP\nXOR ECX,ECX\nMOV EDX,dword ptr [ESP + 0x24]\nADD EDX,dword ptr [ESP + 0x28]\nCMP ESI,EDX\nJZ 0x00c0d1ed\nDEC EAX\nSUB EDI,dword ptr [ESP + 0x2c]\nMOV EDX,dword ptr [ESP + 0x30]\nMOV dword ptr [EDX],EDI\nMOV dword ptr [ESP + 0x1c],EAX\nPOPAD\nRET\n'
p11
S'e8 7c 0c 00 00\neb 0e\n60\n8b 74 24 24\n8b 7c 24 2c\n83 cd ff\n89 e5\n8b 55 28\nac\n4a\n88 c1\n24 07\nc0 e9 03\nbb 00 fd ff ff\nd3 e3\n8d a4 5c 90 f1 ff ff\n83 e4 e0\n6a 00\n6a 00\n89 e3\n53\n83 c3 04\n8b 4d 30\nff 31\n57\n53\n83 c3 04\n88 43 02\nac\n4a\n88 c1\n24 0f\n88 03\nc0 e9 04\n88 4b 01\n52\n56\n53\n50\n90\n90\n90\n90\n90\n90\n90\n55\n57\n56\n53\n83 ec 7c\n8b 94 24 90 00 00 00\nc7 44 24 74 00 00 00 00\nc6 44 24 73 00\n8b ac 24 9c 00 00 00\n8d 42 04\n89 44 24 78\nb8 01 00 00 00\n0f b6 4a 02\n89 c3\nd3 e3\n89 d9\n49\n89 4c 24 6c\n0f b6 4a 01\nd3 e0\n48\n89 44 24 68\n8b 84 24 a8 00 00 00\n0f b6 32\nc7 45 00 00 00 00 00\nc7 44 24 60 00 00 00 00\nc7 00 00 00 00 00\nb8 00 03 00 00\n89 74 24 64\nc7 44 24 5c 01 00 00 00\nc7 44 24 58 01 00 00 00\nc7 44 24 54 01 00 00 00\nc7 44 24 50 01 00 00 00\n0f b6 4a 01\n01 f1\nd3 e0\n8d 88 36 07 00 00\n39 4c 24 74\n73 0e\n8b 44 24 78\n66 c7 00 00 04\n83 c0 02\ne2 f6\n8b 9c 24 94 00 00 00\n31 ff\nc7 44 24 48 ff ff ff ff\n89 da\n03 94 24 98 00 00 00\n89 54 24 4c\n31 d2\n3b 5c 24 4c\n0f 84 7c 09 00 00\n0f b6 03\nc1 e7 08\n42\n43\n09 c7\n83 fa 04\n7e e7\n8b 8c 24 a4 00 00 00\n39 4c 24 74\n0f 83 64 09 00 00\n8b 74 24 74\n23 74 24 6c\n8b 44 24 60\n8b 54 24 78\nc1 e0 04\n89 74 24 44\n01 f0\n81 7c 24 48 ff ff ff 00\n8d 2c 42\n77 18\n3b 5c 24 4c\n0f 84 2c 09 00 00\nc1 64 24 48 08\n0f b6 03\nc1 e7 08\n43\n09 c7\n8b 44 24 48\n66 8b 55 00\nc1 e8 0b\n0f b7 ca\n0f af c1\n39 c7\n0f 83 dd 01 00 00\n89 44 24 48\nb8 00 08 00 00\n29 c8\n8a 4c 24 64\nc1 f8 05\nbe 01 00 00 00\n8d 04 02\n0f b6 54 24 73\n66 89 45 00\n8b 44 24 74\n23 44 24 68\n8b 6c 24 78\nd3 e0\nb9 08 00 00 00\n2b 4c 24 64\nd3 fa\n01 d0\n69 c0 00 06 00 00\n83 7c 24 60 06\n8d 84 05 6c 0e 00 00\n89 44 24 14\n0f 8e ca 00 00 00\n8b 44 24 74\n2b 44 24 5c\n8b 94 24 a0 00 00 00\n0f b6 04 02\n89 44 24 40\nd1 64 24 40\n8b 4c 24 40\n8d 14 36\n8b 6c 24 14\n81 e1 00 01 00 00\n81 7c 24 48 ff ff ff 00\n8d 44 4d 00\n89 4c 24 3c\n8d 2c 10\n77 18\n3b 5c 24 4c\n0f 84 60 08 00 00\nc1 64 24 48 08\n0f b6 03\nc1 e7 08\n43\n09 c7\n8b 44 24 48\n66 8b 8d 00 02 00 00\nc1 e8 0b\n0f b7 f1\n0f af c6\n39 c7\n73 23\n89 44 24 48\nb8 00 08 00 00\n29 f0\n89 d6\nc1 f8 05\n83 7c 24 3c 00\n8d 04 01\n66 89 85 00 02 00 00\n74 22\neb 2e\n29 44 24 48\n29 c7\n89 c8\n8d 72 01\n66 c1 e8 05\n66 29 c1\n83 7c 24 3c 00\n66 89 8d 00 02 00 00\n74 0e\n81 fe ff 00 00 00\n0f 8e 57 ff ff ff\neb 79\n81 fe ff 00 00 00\n7f 71\n8d 14 36\n8b 6c 24 14\n01 d5\n81 7c 24 48 ff ff ff 00\n77 18\n3b 5c 24 4c\n0f 84 c4 07 00 00\nc1 64 24 48 08\n0f b6 03\nc1 e7 08\n43\n09 c7\n8b 44 24 48\n66 8b 4d 00\nc1 e8 0b\n0f b7 f1\n0f af c6\n39 c7\n73 19\n89 44 24 48\nb8 00 08 00 00\n29 f0\n89 d6\nc1 f8 05\n8d 04 01\n66 89 45 00\neb 9f\n29 44 24 48\n29 c7\n89 c8\n8d 72 01\n66 c1 e8 05\n66 29 c1\n66 89 4d 00\neb 87\n8b 54 24 74\n89 f0\n8b 8c 24 a0 00 00 00\n88 44 24 73\n88 04 0a\n42\n83 7c 24 60 03\n89 54 24 74\n7f 0d\nc7 44 24 60 00 00 00 00\ne9 1b 07 00 00\n83 7c 24 60 09\n7f 0a\n83 6c 24 60 03\ne9 0a 07 00 00\n83 6c 24 60 06\ne9 00 07 00 00\n8b 4c 24 48\n29 c7\n8b 74 24 60\n29 c1\n89 d0\n66 c1 e8 05\n66 29 c2\n81 f9 ff ff ff 00\n66 89 55 00\n8b 6c 24 78\n8d 74 75 00\n89 74 24 38\n77 16\n3b 5c 24 4c\n0f 84 f1 06 00 00\n0f b6 03\nc1 e7 08\nc1 e1 08\n43\n09 c7\n8b 6c 24 38\n89 c8\nc1 e8 0b\n66 8b 95 80 01 00 00\n0f b7 ea\n0f af c5\n39 c7\n73 52\n89 c6\nb8 00 08 00 00\n29 e8\n8b 6c 24 58\nc1 f8 05\n8b 4c 24 54\n8d 04 02\n8b 54 24 38\n89 4c 24 50\n8b 4c 24 78\n66 89 82 80 01 00 00\n8b 44 24 5c\n89 6c 24 54\n89 44 24 58\n31 c0\n83 7c 24 60 06\n0f 9f c0\n81 c1 64 06 00 00\n8d 04 40\n89 44 24 60\ne9 74 02 00 00\n89 ce\n29 c7\n29 c6\n89 d0\n66 c1 e8 05\n8b 4c 24 38\n66 29 c2\n81 fe ff ff ff 00\n66 89 91 80 01 00 00\n77 16\n3b 5c 24 4c\n0f 84 4d 06 00 00\n0f b6 03\nc1 e7 08\nc1 e6 08\n43\n09 c7\n8b 6c 24 38\n89 f2\nc1 ea 0b\n66 8b 8d 98 01 00 00\n0f b7 c1\n0f af d0\n39 d7\n0f 83 e3 00 00 00\nbd 00 08 00 00\n89 d6\n29 c5\nc7 44 24 34 00 08 00 00\n89 e8\nc1 f8 05\n8d 04 01\n8b 4c 24 38\n66 89 81 98 01 00 00\n8b 44 24 60\n8b 4c 24 44\nc1 e0 05\n03 44 24 78\n81 fa ff ff ff 00\n8d 2c 48\n77 16\n3b 5c 24 4c\n0f 84 db 05 00 00\n0f b6 03\nc1 e7 08\nc1 e6 08\n43\n09 c7\n66 8b 95 e0 01 00 00\n89 f0\nc1 e8 0b\n0f b7 ca\n0f af c1\n39 c7\n73 60\n29 4c 24 34\nc1 7c 24 34 05\n8b 74 24 34\n89 44 24 48\n83 7c 24 74 00\n8d 04 32\n66 89 85 e0 01 00 00\n0f 84 93 05 00 00\n31 c0\n83 7c 24 60 06\n8b ac 24 a0 00 00 00\n8b 54 24 74\n0f 9f c0\n8d 44 00 09\n89 44 24 60\n8b 44 24 74\n2b 44 24 5c\n8a 44 05 00\n88 44 24 73\n88 04 2a\n42\n89 54 24 74\ne9 31 05 00 00\n29 c6\n29 c7\n89 d0\n66 c1 e8 05\n66 29 c2\n66 89 95 e0 01 00 00\ne9 1f 01 00 00\n89 c8\n29 d6\n66 c1 e8 05\n8b 6c 24 38\n66 29 c1\n29 d7\n81 fe ff ff ff 00\n66 89 8d 98 01 00 00\n77 16\n3b 5c 24 4c\n0f 84 16 05 00 00\n0f b6 03\nc1 e7 08\nc1 e6 08\n43\n09 c7\n8b 4c 24 38\n89 f0\nc1 e8 0b\n66 8b 91 b0 01 00 00\n0f b7 ca\n0f af c1\n39 c7\n73 23\n89 c6\nb8 00 08 00 00\n29 c8\n8b 6c 24 38\nc1 f8 05\n8d 04 02\n66 89 85 b0 01 00 00\n8b 44 24 58\ne9 a0 00 00 00\n89 f1\n29 c7\n29 c1\n89 d0\n66 c1 e8 05\n66 29 c2\n8b 44 24 38\n81 f9 ff ff ff 00\n66 89 90 b0 01 00 00\n77 16\n3b 5c 24 4c\n0f 84 a1 04 00 00\n0f b6 03\nc1 e7 08\nc1 e1 08\n43\n09 c7\n8b 74 24 38\n89 c8\nc1 e8 0b\n66 8b 96 c8 01 00 00\n0f b7 ea\n0f af c5\n39 c7\n73 20\n89 c6\nb8 00 08 00 00\n29 e8\n8b 6c 24 38\nc1 f8 05\n8d 04 02\n66 89 85 c8 01 00 00\n8b 44 24 54\neb 26\n89 ce\n29 c7\n29 c6\n89 d0\n66 c1 e8 05\n66 29 c2\n8b 44 24 38\n66 89 90 c8 01 00 00\n8b 54 24 54\n8b 44 24 50\n89 54 24 50\n8b 4c 24 58\n89 4c 24 54\n8b 6c 24 5c\n89 44 24 5c\n89 6c 24 58\n31 c0\n83 7c 24 60 06\n8b 4c 24 78\n0f 9f c0\n81 c1 68 0a 00 00\n8d 44 40 08\n89 44 24 60\n81 fe ff ff ff 00\n77 16\n3b 5c 24 4c\n0f 84 f3 03 00 00\n0f b6 03\nc1 e7 08\nc1 e6 08\n43\n09 c7\n66 8b 11\n89 f0\nc1 e8 0b\n0f b7 ea\n0f af c5\n39 c7\n73 2f\n89 44 24 48\nb8 00 08 00 00\n29 e8\nc1 64 24 44 04\nc1 f8 05\nc7 44 24 2c 00 00 00 00\n8d 04 02\n66 89 01\n8b 44 24 44\n8d 4c 01 04\n89 4c 24 10\neb 72\n29 c6\n29 c7\n89 d0\n66 c1 e8 05\n66 29 c2\n81 fe ff ff ff 00\n66 89 11\n77 16\n3b 5c 24 4c\n0f 84 84 03 00 00\n0f b6 03\nc1 e7 08\nc1 e6 08\n43\n09 c7\n66 8b 51 02\n89 f0\nc1 e8 0b\n0f b7 ea\n0f af c5\n39 c7\n73 3b\n89 44 24 48\nb8 00 08 00 00\n29 e8\nc1 64 24 44 04\nc1 f8 05\nc7 44 24 2c 08 00 00 00\n8d 04 02\n8b 54 24 44\n66 89 41 02\n8d 8c 11 04 01 00 00\n89 4c 24 10\nc7 44 24 30 03 00 00 00\neb 2f\n29 c6\n29 c7\n89 d0\n89 74 24 48\n66 c1 e8 05\nc7 44 24 2c 10 00 00 00\n66 29 c2\nc7 44 24 30 08 00 00 00\n66 89 51 02\n81 c1 04 02 00 00\n89 4c 24 10\n8b 4c 24 30\nba 01 00 00 00\n89 4c 24 28\n8d 2c 12\n8b 74 24 10\n01 ee\n81 7c 24 48 ff ff ff 00\n77 18\n3b 5c 24 4c\n0f 84 d1 02 00 00\nc1 64 24 48 08\n0f b6 03\nc1 e7 08\n43\n09 c7\n8b 44 24 48\n66 8b 16\nc1 e8 0b\n0f b7 ca\n0f af c1\n39 c7\n73 18\n89 44 24 48\nb8 00 08 00 00\n29 c8\nc1 f8 05\n8d 04 02\n89 ea\n66 89 06\neb 15\n29 44 24 48\n29 c7\n89 d0\n66 c1 e8 05\n66 29 c2\n66 89 16\n8d 55 01\n8b 74 24 28\n4e\n89 74 24 28\n75 89\n8a 4c 24 30\nb8 01 00 00 00\nd3 e0\n29 c2\n03 54 24 2c\n83 7c 24 60 03\n89 54 24 0c\n0f 8f e7 01 00 00\n83 44 24 60 07\n83 fa 03\n89 d0\n7e 05\nb8 03 00 00 00\n8b 74 24 78\nc1 e0 07\nc7 44 24 24 06 00 00 00\n8d 84 06 60 03 00 00\n89 44 24 08\nb8 01 00 00 00\n8d 2c 00\n8b 74 24 08\n01 ee\n81 7c 24 48 ff ff ff 00\n77 18\n3b 5c 24 4c\n0f 84 0a 02 00 00\nc1 64 24 48 08\n0f b6 03\nc1 e7 08\n43\n09 c7\n8b 44 24 48\n66 8b 16\nc1 e8 0b\n0f b7 ca\n0f af c1\n39 c7\n73 18\n89 44 24 48\nb8 00 08 00 00\n29 c8\nc1 f8 05\n8d 04 02\n66 89 06\n89 e8\neb 15\n29 44 24 48\n29 c7\n89 d0\n66 c1 e8 05\n66 29 c2\n8d 45 01\n66 89 16\n8b 6c 24 24\n4d\n89 6c 24 24\n75 89\n8d 50 c0\n83 fa 03\n89 14 24\n0f 8e 27 01 00 00\n89 d0\n89 d6\nd1 f8\n83 e6 01\n8d 48 ff\n83 ce 02\n83 fa 0d\n89 4c 24 20\n7f 1c\n8b 6c 24 78\nd3 e6\n01 d2\n89 34 24\n8d 44 75 00\n29 d0\n05 5e 05 00 00\n89 44 24 04\neb 56\n8d 50 fb\n81 7c 24 48 ff ff ff 00\n77 18\n3b 5c 24 4c\n0f 84 56 01 00 00\nc1 64 24 48 08\n0f b6 03\nc1 e7 08\n43\n09 c7\nd1 6c 24 48\n01 f6\n3b 7c 24 48\n72 07\n2b 7c 24 48\n83 ce 01\n4a\n75 c8\n8b 44 24 78\nc1 e6 04\n89 34 24\n05 44 06 00 00\nc7 44 24 20 04 00 00 00\n89 44 24 04\nc7 44 24 1c 01 00 00 00\nb8 01 00 00 00\n8b 6c 24 04\n01 c0\n89 44 24 18\n01 c5\n81 7c 24 48 ff ff ff 00\n77 18\n3b 5c 24 4c\n0f 84 ea 00 00 00\nc1 64 24 48 08\n0f b6 03\nc1 e7 08\n43\n09 c7\n8b 44 24 48\n66 8b 55 00\nc1 e8 0b\n0f b7 f2\n0f af c6\n39 c7\n73 1b\n89 44 24 48\nb8 00 08 00 00\n29 f0\nc1 f8 05\n8d 04 02\n66 89 45 00\n8b 44 24 18\neb 1f\n29 44 24 48\n29 c7\n89 d0\n66 c1 e8 05\n66 29 c2\n8b 44 24 18\n66 89 55 00\n8b 54 24 1c\n40\n09 14 24\n8b 4c 24 20\nd1 64 24 1c\n49\n89 4c 24 20\n0f 85 70 ff ff ff\n8b 34 24\n46\n89 74 24 5c\n74 59\n8b 4c 24 0c\n8b 6c 24 74\n83 c1 02\n39 6c 24 5c\n77 5f\n8b 84 24 a0 00 00 00\n89 ea\n2b 44 24 5c\n03 94 24 a0 00 00 00\n8d 34 28\n8a 06\n46\n88 44 24 73\n88 02\n42\nff 44 24 74\n49\n74 0f\n8b ac 24 a4 00 00 00\n39 6c 24 74\n72 e2\neb 11\n8b 84 24 a4 00 00 00\n39 44 24 74\n0f 82 bb f6 ff ff\n81 7c 24 48 ff ff ff 00\n77 15\n3b 5c 24 4c\nb8 01 00 00 00\n74 29\neb 07\nb8 01 00 00 00\neb 20\n43\n2b 9c 24 94 00 00 00\n31 c0\n8b 94 24 9c 00 00 00\n8b 4c 24 74\n89 1a\n8b 9c 24 a8 00 00 00\n89 0b\n83 c4 7c\n5b\n5e\n5f\n5d\n03 73 fc\n03 7b f8\n31 c0\n8d 8c 24 00 ff ff ff\n89 ec\n50\n39 cc\n75 fb\n89 ec\n31 c9\n8b 54 24 24\n03 54 24 28\n39 d6\n74 01\n48\n2b 7c 24 2c\n8b 54 24 30\n89 3a\n89 44 24 1c\n61\nc3\n'
p12
S'segment_0:00c0c6d0\nsegment_0:00c0c6d5\nsegment_0:00c0c6e5\nsegment_0:00c0c6e6\nsegment_0:00c0c6ea\nsegment_0:00c0c6ee\nsegment_0:00c0c6f1\nsegment_0:00c0c6f3\nsegment_0:00c0c6f6\nsegment_0:00c0c6f7\nsegment_0:00c0c6f8\nsegment_0:00c0c6fa\nsegment_0:00c0c6fc\nsegment_0:00c0c6ff\nsegment_0:00c0c704\nsegment_0:00c0c706\nsegment_0:00c0c70d\nsegment_0:00c0c710\nsegment_0:00c0c712\nsegment_0:00c0c714\nsegment_0:00c0c716\nsegment_0:00c0c717\nsegment_0:00c0c71a\nsegment_0:00c0c71d\nsegment_0:00c0c71f\nsegment_0:00c0c720\nsegment_0:00c0c721\nsegment_0:00c0c724\nsegment_0:00c0c727\nsegment_0:00c0c728\nsegment_0:00c0c729\nsegment_0:00c0c72b\nsegment_0:00c0c72d\nsegment_0:00c0c72f\nsegment_0:00c0c732\nsegment_0:00c0c735\nsegment_0:00c0c736\nsegment_0:00c0c737\nsegment_0:00c0c738\nsegment_0:00c0c739\nsegment_0:00c0c73a\nsegment_0:00c0c73b\nsegment_0:00c0c73c\nsegment_0:00c0c73d\nsegment_0:00c0c73e\nsegment_0:00c0c73f\nsegment_0:00c0c740\nsegment_0:00c0c741\nsegment_0:00c0c742\nsegment_0:00c0c743\nsegment_0:00c0c744\nsegment_0:00c0c747\nsegment_0:00c0c74e\nsegment_0:00c0c756\nsegment_0:00c0c75b\nsegment_0:00c0c762\nsegment_0:00c0c765\nsegment_0:00c0c769\nsegment_0:00c0c76e\nsegment_0:00c0c772\nsegment_0:00c0c774\nsegment_0:00c0c776\nsegment_0:00c0c778\nsegment_0:00c0c779\nsegment_0:00c0c77d\nsegment_0:00c0c781\nsegment_0:00c0c783\nsegment_0:00c0c784\nsegment_0:00c0c788\nsegment_0:00c0c78f\nsegment_0:00c0c792\nsegment_0:00c0c799\nsegment_0:00c0c7a1\nsegment_0:00c0c7a7\nsegment_0:00c0c7ac\nsegment_0:00c0c7b0\nsegment_0:00c0c7b8\nsegment_0:00c0c7c0\nsegment_0:00c0c7c8\nsegment_0:00c0c7d0\nsegment_0:00c0c7d4\nsegment_0:00c0c7d6\nsegment_0:00c0c7d8\nsegment_0:00c0c7de\nsegment_0:00c0c7e2\nsegment_0:00c0c7e4\nsegment_0:00c0c7e8\nsegment_0:00c0c7ed\nsegment_0:00c0c7f0\nsegment_0:00c0c7f2\nsegment_0:00c0c7f9\nsegment_0:00c0c7fb\nsegment_0:00c0c803\nsegment_0:00c0c805\nsegment_0:00c0c80c\nsegment_0:00c0c810\nsegment_0:00c0c812\nsegment_0:00c0c816\nsegment_0:00c0c81c\nsegment_0:00c0c81f\nsegment_0:00c0c822\nsegment_0:00c0c823\nsegment_0:00c0c824\nsegment_0:00c0c826\nsegment_0:00c0c829\nsegment_0:00c0c82b\nsegment_0:00c0c832\nsegment_0:00c0c836\nsegment_0:00c0c83c\nsegment_0:00c0c840\nsegment_0:00c0c844\nsegment_0:00c0c848\nsegment_0:00c0c84c\nsegment_0:00c0c84f\nsegment_0:00c0c853\nsegment_0:00c0c855\nsegment_0:00c0c85d\nsegment_0:00c0c860\nsegment_0:00c0c862\nsegment_0:00c0c866\nsegment_0:00c0c86c\nsegment_0:00c0c871\nsegment_0:00c0c874\nsegment_0:00c0c877\nsegment_0:00c0c878\nsegment_0:00c0c87a\nsegment_0:00c0c87e\nsegment_0:00c0c882\nsegment_0:00c0c885\nsegment_0:00c0c888\nsegment_0:00c0c88b\nsegment_0:00c0c88d\nsegment_0:00c0c893\nsegment_0:00c0c897\nsegment_0:00c0c89c\nsegment_0:00c0c89e\nsegment_0:00c0c8a2\nsegment_0:00c0c8a5\nsegment_0:00c0c8aa\nsegment_0:00c0c8ad\nsegment_0:00c0c8b2\nsegment_0:00c0c8b6\nsegment_0:00c0c8ba\nsegment_0:00c0c8be\nsegment_0:00c0c8c2\nsegment_0:00c0c8c4\nsegment_0:00c0c8c9\nsegment_0:00c0c8cd\nsegment_0:00c0c8cf\nsegment_0:00c0c8d1\nsegment_0:00c0c8d7\nsegment_0:00c0c8dc\nsegment_0:00c0c8e3\nsegment_0:00c0c8e7\nsegment_0:00c0c8ed\nsegment_0:00c0c8f1\nsegment_0:00c0c8f5\nsegment_0:00c0c8fc\nsegment_0:00c0c900\nsegment_0:00c0c904\nsegment_0:00c0c908\nsegment_0:00c0c90c\nsegment_0:00c0c90f\nsegment_0:00c0c913\nsegment_0:00c0c919\nsegment_0:00c0c921\nsegment_0:00c0c925\nsegment_0:00c0c929\nsegment_0:00c0c92c\nsegment_0:00c0c92e\nsegment_0:00c0c932\nsegment_0:00c0c938\nsegment_0:00c0c93d\nsegment_0:00c0c940\nsegment_0:00c0c943\nsegment_0:00c0c944\nsegment_0:00c0c946\nsegment_0:00c0c94a\nsegment_0:00c0c951\nsegment_0:00c0c954\nsegment_0:00c0c957\nsegment_0:00c0c95a\nsegment_0:00c0c95c\nsegment_0:00c0c95e\nsegment_0:00c0c962\nsegment_0:00c0c967\nsegment_0:00c0c969\nsegment_0:00c0c96b\nsegment_0:00c0c96e\nsegment_0:00c0c973\nsegment_0:00c0c976\nsegment_0:00c0c97d\nsegment_0:00c0c97f\nsegment_0:00c0c981\nsegment_0:00c0c985\nsegment_0:00c0c987\nsegment_0:00c0c989\nsegment_0:00c0c98c\nsegment_0:00c0c990\nsegment_0:00c0c993\nsegment_0:00c0c998\nsegment_0:00c0c99f\nsegment_0:00c0c9a1\nsegment_0:00c0c9a7\nsegment_0:00c0c9ad\nsegment_0:00c0c9af\nsegment_0:00c0c9b5\nsegment_0:00c0c9b7\nsegment_0:00c0c9ba\nsegment_0:00c0c9be\nsegment_0:00c0c9c0\nsegment_0:00c0c9c8\nsegment_0:00c0c9ca\nsegment_0:00c0c9ce\nsegment_0:00c0c9d4\nsegment_0:00c0c9d9\nsegment_0:00c0c9dc\nsegment_0:00c0c9df\nsegment_0:00c0c9e0\nsegment_0:00c0c9e2\nsegment_0:00c0c9e6\nsegment_0:00c0c9ea\nsegment_0:00c0c9ed\nsegment_0:00c0c9f0\nsegment_0:00c0c9f3\nsegment_0:00c0c9f5\nsegment_0:00c0c9f7\nsegment_0:00c0c9fb\nsegment_0:00c0ca00\nsegment_0:00c0ca02\nsegment_0:00c0ca04\nsegment_0:00c0ca07\nsegment_0:00c0ca0a\nsegment_0:00c0ca0e\nsegment_0:00c0ca10\nsegment_0:00c0ca14\nsegment_0:00c0ca16\nsegment_0:00c0ca18\nsegment_0:00c0ca1b\nsegment_0:00c0ca1f\nsegment_0:00c0ca22\nsegment_0:00c0ca26\nsegment_0:00c0ca28\nsegment_0:00c0ca2c\nsegment_0:00c0ca2e\nsegment_0:00c0ca35\nsegment_0:00c0ca39\nsegment_0:00c0ca3c\nsegment_0:00c0ca3d\nsegment_0:00c0ca42\nsegment_0:00c0ca46\nsegment_0:00c0ca48\nsegment_0:00c0ca50\nsegment_0:00c0ca55\nsegment_0:00c0ca5a\nsegment_0:00c0ca5c\nsegment_0:00c0ca61\nsegment_0:00c0ca66\nsegment_0:00c0ca6b\nsegment_0:00c0ca70\nsegment_0:00c0ca74\nsegment_0:00c0ca76\nsegment_0:00c0ca7a\nsegment_0:00c0ca7c\nsegment_0:00c0ca7e\nsegment_0:00c0ca82\nsegment_0:00c0ca85\nsegment_0:00c0ca8b\nsegment_0:00c0ca8f\nsegment_0:00c0ca93\nsegment_0:00c0ca97\nsegment_0:00c0ca9b\nsegment_0:00c0ca9d\nsegment_0:00c0caa1\nsegment_0:00c0caa7\nsegment_0:00c0caaa\nsegment_0:00c0caad\nsegment_0:00c0cab0\nsegment_0:00c0cab1\nsegment_0:00c0cab3\nsegment_0:00c0cab7\nsegment_0:00c0cab9\nsegment_0:00c0cabc\nsegment_0:00c0cac3\nsegment_0:00c0cac6\nsegment_0:00c0cac9\nsegment_0:00c0cacb\nsegment_0:00c0cacd\nsegment_0:00c0cacf\nsegment_0:00c0cad4\nsegment_0:00c0cad6\nsegment_0:00c0cada\nsegment_0:00c0cadd\nsegment_0:00c0cae1\nsegment_0:00c0cae4\nsegment_0:00c0cae8\nsegment_0:00c0caec\nsegment_0:00c0caf0\nsegment_0:00c0caf7\nsegment_0:00c0cafb\nsegment_0:00c0caff\nsegment_0:00c0cb03\nsegment_0:00c0cb05\nsegment_0:00c0cb0a\nsegment_0:00c0cb0d\nsegment_0:00c0cb13\nsegment_0:00c0cb16\nsegment_0:00c0cb1a\nsegment_0:00c0cb1f\nsegment_0:00c0cb21\nsegment_0:00c0cb23\nsegment_0:00c0cb25\nsegment_0:00c0cb27\nsegment_0:00c0cb2b\nsegment_0:00c0cb2f\nsegment_0:00c0cb32\nsegment_0:00c0cb38\nsegment_0:00c0cb3f\nsegment_0:00c0cb41\nsegment_0:00c0cb45\nsegment_0:00c0cb4b\nsegment_0:00c0cb4e\nsegment_0:00c0cb51\nsegment_0:00c0cb54\nsegment_0:00c0cb55\nsegment_0:00c0cb57\nsegment_0:00c0cb5b\nsegment_0:00c0cb5d\nsegment_0:00c0cb60\nsegment_0:00c0cb67\nsegment_0:00c0cb6a\nsegment_0:00c0cb6d\nsegment_0:00c0cb6f\nsegment_0:00c0cb75\nsegment_0:00c0cb7a\nsegment_0:00c0cb7c\nsegment_0:00c0cb7e\nsegment_0:00c0cb86\nsegment_0:00c0cb88\nsegment_0:00c0cb8b\nsegment_0:00c0cb8e\nsegment_0:00c0cb92\nsegment_0:00c0cb99\nsegment_0:00c0cb9d\nsegment_0:00c0cba1\nsegment_0:00c0cba4\nsegment_0:00c0cba8\nsegment_0:00c0cbae\nsegment_0:00c0cbb1\nsegment_0:00c0cbb3\nsegment_0:00c0cbb7\nsegment_0:00c0cbbd\nsegment_0:00c0cbc0\nsegment_0:00c0cbc3\nsegment_0:00c0cbc6\nsegment_0:00c0cbc7\nsegment_0:00c0cbc9\nsegment_0:00c0cbd0\nsegment_0:00c0cbd2\nsegment_0:00c0cbd5\nsegment_0:00c0cbd8\nsegment_0:00c0cbdb\nsegment_0:00c0cbdd\nsegment_0:00c0cbdf\nsegment_0:00c0cbe3\nsegment_0:00c0cbe8\nsegment_0:00c0cbec\nsegment_0:00c0cbf0\nsegment_0:00c0cbf5\nsegment_0:00c0cbf8\nsegment_0:00c0cbff\nsegment_0:00c0cc05\nsegment_0:00c0cc07\nsegment_0:00c0cc0c\nsegment_0:00c0cc13\nsegment_0:00c0cc17\nsegment_0:00c0cc1a\nsegment_0:00c0cc1e\nsegment_0:00c0cc22\nsegment_0:00c0cc26\nsegment_0:00c0cc2a\nsegment_0:00c0cc2e\nsegment_0:00c0cc32\nsegment_0:00c0cc35\nsegment_0:00c0cc36\nsegment_0:00c0cc3a\nsegment_0:00c0cc3f\nsegment_0:00c0cc41\nsegment_0:00c0cc43\nsegment_0:00c0cc45\nsegment_0:00c0cc49\nsegment_0:00c0cc4c\nsegment_0:00c0cc53\nsegment_0:00c0cc58\nsegment_0:00c0cc5a\nsegment_0:00c0cc5c\nsegment_0:00c0cc60\nsegment_0:00c0cc64\nsegment_0:00c0cc67\nsegment_0:00c0cc69\nsegment_0:00c0cc6f\nsegment_0:00c0cc76\nsegment_0:00c0cc78\nsegment_0:00c0cc7c\nsegment_0:00c0cc82\nsegment_0:00c0cc85\nsegment_0:00c0cc88\nsegment_0:00c0cc8b\nsegment_0:00c0cc8c\nsegment_0:00c0cc8e\nsegment_0:00c0cc92\nsegment_0:00c0cc94\nsegment_0:00c0cc97\nsegment_0:00c0cc9e\nsegment_0:00c0cca1\nsegment_0:00c0cca4\nsegment_0:00c0cca6\nsegment_0:00c0cca8\nsegment_0:00c0ccaa\nsegment_0:00c0ccaf\nsegment_0:00c0ccb1\nsegment_0:00c0ccb5\nsegment_0:00c0ccb8\nsegment_0:00c0ccbb\nsegment_0:00c0ccc2\nsegment_0:00c0ccc6\nsegment_0:00c0cccb\nsegment_0:00c0cccd\nsegment_0:00c0cccf\nsegment_0:00c0ccd1\nsegment_0:00c0ccd3\nsegment_0:00c0ccd7\nsegment_0:00c0ccda\nsegment_0:00c0ccde\nsegment_0:00c0cce4\nsegment_0:00c0cceb\nsegment_0:00c0cced\nsegment_0:00c0ccf1\nsegment_0:00c0ccf7\nsegment_0:00c0ccfa\nsegment_0:00c0ccfd\nsegment_0:00c0cd00\nsegment_0:00c0cd01\nsegment_0:00c0cd03\nsegment_0:00c0cd07\nsegment_0:00c0cd09\nsegment_0:00c0cd0c\nsegment_0:00c0cd13\nsegment_0:00c0cd16\nsegment_0:00c0cd19\nsegment_0:00c0cd1b\nsegment_0:00c0cd1d\nsegment_0:00c0cd1f\nsegment_0:00c0cd24\nsegment_0:00c0cd26\nsegment_0:00c0cd2a\nsegment_0:00c0cd2d\nsegment_0:00c0cd30\nsegment_0:00c0cd37\nsegment_0:00c0cd3b\nsegment_0:00c0cd3d\nsegment_0:00c0cd3f\nsegment_0:00c0cd41\nsegment_0:00c0cd43\nsegment_0:00c0cd45\nsegment_0:00c0cd49\nsegment_0:00c0cd4c\nsegment_0:00c0cd50\nsegment_0:00c0cd57\nsegment_0:00c0cd5b\nsegment_0:00c0cd5f\nsegment_0:00c0cd63\nsegment_0:00c0cd67\nsegment_0:00c0cd6b\nsegment_0:00c0cd6f\nsegment_0:00c0cd73\nsegment_0:00c0cd77\nsegment_0:00c0cd79\nsegment_0:00c0cd7e\nsegment_0:00c0cd82\nsegment_0:00c0cd85\nsegment_0:00c0cd8b\nsegment_0:00c0cd8f\nsegment_0:00c0cd93\nsegment_0:00c0cd99\nsegment_0:00c0cd9b\nsegment_0:00c0cd9f\nsegment_0:00c0cda5\nsegment_0:00c0cda8\nsegment_0:00c0cdab\nsegment_0:00c0cdae\nsegment_0:00c0cdaf\nsegment_0:00c0cdb1\nsegment_0:00c0cdb4\nsegment_0:00c0cdb6\nsegment_0:00c0cdb9\nsegment_0:00c0cdbc\nsegment_0:00c0cdbf\nsegment_0:00c0cdc1\nsegment_0:00c0cdc3\nsegment_0:00c0cdc7\nsegment_0:00c0cdcc\nsegment_0:00c0cdce\nsegment_0:00c0cdd3\nsegment_0:00c0cdd6\nsegment_0:00c0cdde\nsegment_0:00c0cde1\nsegment_0:00c0cde4\nsegment_0:00c0cde8\nsegment_0:00c0cdec\nsegment_0:00c0cdf0\nsegment_0:00c0cdf2\nsegment_0:00c0cdf4\nsegment_0:00c0cdf6\nsegment_0:00c0cdf8\nsegment_0:00c0cdfc\nsegment_0:00c0cdff\nsegment_0:00c0ce05\nsegment_0:00c0ce08\nsegment_0:00c0ce0a\nsegment_0:00c0ce0e\nsegment_0:00c0ce14\nsegment_0:00c0ce17\nsegment_0:00c0ce1a\nsegment_0:00c0ce1d\nsegment_0:00c0ce1e\nsegment_0:00c0ce20\nsegment_0:00c0ce24\nsegment_0:00c0ce26\nsegment_0:00c0ce29\nsegment_0:00c0ce2c\nsegment_0:00c0ce2f\nsegment_0:00c0ce31\nsegment_0:00c0ce33\nsegment_0:00c0ce37\nsegment_0:00c0ce3c\nsegment_0:00c0ce3e\nsegment_0:00c0ce43\nsegment_0:00c0ce46\nsegment_0:00c0ce4e\nsegment_0:00c0ce51\nsegment_0:00c0ce55\nsegment_0:00c0ce59\nsegment_0:00c0ce60\nsegment_0:00c0ce64\nsegment_0:00c0ce6c\nsegment_0:00c0ce6e\nsegment_0:00c0ce70\nsegment_0:00c0ce72\nsegment_0:00c0ce74\nsegment_0:00c0ce78\nsegment_0:00c0ce7c\nsegment_0:00c0ce84\nsegment_0:00c0ce87\nsegment_0:00c0ce8f\nsegment_0:00c0ce93\nsegment_0:00c0ce99\nsegment_0:00c0ce9d\nsegment_0:00c0cea1\nsegment_0:00c0cea6\nsegment_0:00c0ceaa\nsegment_0:00c0cead\nsegment_0:00c0ceb1\nsegment_0:00c0ceb3\nsegment_0:00c0cebb\nsegment_0:00c0cebd\nsegment_0:00c0cec1\nsegment_0:00c0cec7\nsegment_0:00c0cecc\nsegment_0:00c0cecf\nsegment_0:00c0ced2\nsegment_0:00c0ced3\nsegment_0:00c0ced5\nsegment_0:00c0ced9\nsegment_0:00c0cedc\nsegment_0:00c0cedf\nsegment_0:00c0cee2\nsegment_0:00c0cee5\nsegment_0:00c0cee7\nsegment_0:00c0cee9\nsegment_0:00c0ceed\nsegment_0:00c0cef2\nsegment_0:00c0cef4\nsegment_0:00c0cef7\nsegment_0:00c0cefa\nsegment_0:00c0cefc\nsegment_0:00c0ceff\nsegment_0:00c0cf01\nsegment_0:00c0cf05\nsegment_0:00c0cf07\nsegment_0:00c0cf09\nsegment_0:00c0cf0d\nsegment_0:00c0cf10\nsegment_0:00c0cf13\nsegment_0:00c0cf16\nsegment_0:00c0cf1a\nsegment_0:00c0cf1b\nsegment_0:00c0cf1f\nsegment_0:00c0cf21\nsegment_0:00c0cf25\nsegment_0:00c0cf2a\nsegment_0:00c0cf2c\nsegment_0:00c0cf2e\nsegment_0:00c0cf32\nsegment_0:00c0cf37\nsegment_0:00c0cf3b\nsegment_0:00c0cf41\nsegment_0:00c0cf46\nsegment_0:00c0cf49\nsegment_0:00c0cf4b\nsegment_0:00c0cf4d\nsegment_0:00c0cf52\nsegment_0:00c0cf56\nsegment_0:00c0cf59\nsegment_0:00c0cf61\nsegment_0:00c0cf68\nsegment_0:00c0cf6c\nsegment_0:00c0cf71\nsegment_0:00c0cf74\nsegment_0:00c0cf78\nsegment_0:00c0cf7a\nsegment_0:00c0cf82\nsegment_0:00c0cf84\nsegment_0:00c0cf88\nsegment_0:00c0cf8e\nsegment_0:00c0cf93\nsegment_0:00c0cf96\nsegment_0:00c0cf99\nsegment_0:00c0cf9a\nsegment_0:00c0cf9c\nsegment_0:00c0cfa0\nsegment_0:00c0cfa3\nsegment_0:00c0cfa6\nsegment_0:00c0cfa9\nsegment_0:00c0cfac\nsegment_0:00c0cfae\nsegment_0:00c0cfb0\nsegment_0:00c0cfb4\nsegment_0:00c0cfb9\nsegment_0:00c0cfbb\nsegment_0:00c0cfbe\nsegment_0:00c0cfc1\nsegment_0:00c0cfc4\nsegment_0:00c0cfc6\nsegment_0:00c0cfc8\nsegment_0:00c0cfcc\nsegment_0:00c0cfce\nsegment_0:00c0cfd0\nsegment_0:00c0cfd4\nsegment_0:00c0cfd7\nsegment_0:00c0cfda\nsegment_0:00c0cfdd\nsegment_0:00c0cfe1\nsegment_0:00c0cfe2\nsegment_0:00c0cfe6\nsegment_0:00c0cfe8\nsegment_0:00c0cfeb\nsegment_0:00c0cfee\nsegment_0:00c0cff1\nsegment_0:00c0cff7\nsegment_0:00c0cff9\nsegment_0:00c0cffb\nsegment_0:00c0cffd\nsegment_0:00c0d000\nsegment_0:00c0d003\nsegment_0:00c0d006\nsegment_0:00c0d009\nsegment_0:00c0d00d\nsegment_0:00c0d00f\nsegment_0:00c0d013\nsegment_0:00c0d015\nsegment_0:00c0d017\nsegment_0:00c0d01a\nsegment_0:00c0d01e\nsegment_0:00c0d020\nsegment_0:00c0d025\nsegment_0:00c0d029\nsegment_0:00c0d02b\nsegment_0:00c0d02e\nsegment_0:00c0d036\nsegment_0:00c0d038\nsegment_0:00c0d03c\nsegment_0:00c0d042\nsegment_0:00c0d047\nsegment_0:00c0d04a\nsegment_0:00c0d04d\nsegment_0:00c0d04e\nsegment_0:00c0d050\nsegment_0:00c0d054\nsegment_0:00c0d056\nsegment_0:00c0d05a\nsegment_0:00c0d05c\nsegment_0:00c0d060\nsegment_0:00c0d063\nsegment_0:00c0d064\nsegment_0:00c0d066\nsegment_0:00c0d06a\nsegment_0:00c0d06d\nsegment_0:00c0d070\nsegment_0:00c0d075\nsegment_0:00c0d07d\nsegment_0:00c0d081\nsegment_0:00c0d089\nsegment_0:00c0d08e\nsegment_0:00c0d092\nsegment_0:00c0d094\nsegment_0:00c0d098\nsegment_0:00c0d09a\nsegment_0:00c0d0a2\nsegment_0:00c0d0a4\nsegment_0:00c0d0a8\nsegment_0:00c0d0ae\nsegment_0:00c0d0b3\nsegment_0:00c0d0b6\nsegment_0:00c0d0b9\nsegment_0:00c0d0ba\nsegment_0:00c0d0bc\nsegment_0:00c0d0c0\nsegment_0:00c0d0c4\nsegment_0:00c0d0c7\nsegment_0:00c0d0ca\nsegment_0:00c0d0cd\nsegment_0:00c0d0cf\nsegment_0:00c0d0d1\nsegment_0:00c0d0d5\nsegment_0:00c0d0da\nsegment_0:00c0d0dc\nsegment_0:00c0d0df\nsegment_0:00c0d0e2\nsegment_0:00c0d0e6\nsegment_0:00c0d0ea\nsegment_0:00c0d0ec\nsegment_0:00c0d0f0\nsegment_0:00c0d0f2\nsegment_0:00c0d0f4\nsegment_0:00c0d0f8\nsegment_0:00c0d0fb\nsegment_0:00c0d0ff\nsegment_0:00c0d103\nsegment_0:00c0d107\nsegment_0:00c0d108\nsegment_0:00c0d10b\nsegment_0:00c0d10f\nsegment_0:00c0d113\nsegment_0:00c0d114\nsegment_0:00c0d118\nsegment_0:00c0d11e\nsegment_0:00c0d121\nsegment_0:00c0d122\nsegment_0:00c0d126\nsegment_0:00c0d128\nsegment_0:00c0d12c\nsegment_0:00c0d130\nsegment_0:00c0d133\nsegment_0:00c0d137\nsegment_0:00c0d139\nsegment_0:00c0d140\nsegment_0:00c0d142\nsegment_0:00c0d146\nsegment_0:00c0d14d\nsegment_0:00c0d150\nsegment_0:00c0d152\nsegment_0:00c0d153\nsegment_0:00c0d157\nsegment_0:00c0d159\nsegment_0:00c0d15a\nsegment_0:00c0d15e\nsegment_0:00c0d15f\nsegment_0:00c0d161\nsegment_0:00c0d168\nsegment_0:00c0d16c\nsegment_0:00c0d16e\nsegment_0:00c0d170\nsegment_0:00c0d177\nsegment_0:00c0d17b\nsegment_0:00c0d181\nsegment_0:00c0d189\nsegment_0:00c0d18b\nsegment_0:00c0d18f\nsegment_0:00c0d194\nsegment_0:00c0d196\nsegment_0:00c0d198\nsegment_0:00c0d19d\nsegment_0:00c0d19f\nsegment_0:00c0d1a0\nsegment_0:00c0d1a7\nsegment_0:00c0d1a9\nsegment_0:00c0d1b0\nsegment_0:00c0d1b4\nsegment_0:00c0d1b6\nsegment_0:00c0d1bd\nsegment_0:00c0d1bf\nsegment_0:00c0d1c2\nsegment_0:00c0d1c3\nsegment_0:00c0d1c4\nsegment_0:00c0d1c5\nsegment_0:00c0d1c6\nsegment_0:00c0d1c9\nsegment_0:00c0d1cc\nsegment_0:00c0d1ce\nsegment_0:00c0d1d5\nsegment_0:00c0d1d7\nsegment_0:00c0d1d8\nsegment_0:00c0d1da\nsegment_0:00c0d1dc\nsegment_0:00c0d1de\nsegment_0:00c0d1e0\nsegment_0:00c0d1e4\nsegment_0:00c0d1e8\nsegment_0:00c0d1ea\nsegment_0:00c0d1ec\nsegment_0:00c0d1ed\nsegment_0:00c0d1f1\nsegment_0:00c0d1f5\nsegment_0:00c0d1f7\nsegment_0:00c0d1fb\nsegment_0:00c0d1fc\n'
p13
tp14
sS'FUN_00c0d351'
p15
(S'\n__cdecl FUN_00c0d351()\n'
p16
V\u000a/* WARNING: Control flow encountered bad instruction data */\u000a/* WARNING: Instruction at (ram,0x00c0d3cd) overlaps instruction at (ram,0x00c0d3cc)\u000a    */\u000a/* WARNING: Globals starting with '_' overlap smaller symbols at the same address */\u000a\u000avoid FUN_00c0d351(byte *pbParm1)\u000a\u000a{\u000a  uint *puVar1;\u000a  undefined uVar2;\u000a  int *piVar3;\u000a  undefined *puVar4;\u000a  char cVar5;\u000a  bool bVar6;\u000a  byte bVar7;\u000a  byte bVar8;\u000a  ushort uVar9;\u000a  undefined4 uVar10;\u000a  int *piVar11;\u000a  char *pcVar12;\u000a  byte *pbVar13;\u000a  uint *puVar14;\u000a  uint uVar15;\u000a  int **ppiVar16;\u000a  uint extraout_ECX;\u000a  int iVar17;\u000a  uint uVar18;\u000a  int iVar19;\u000a  char *unaff_EBX;\u000a  undefined *puVar20;\u000a  code **ppcVar21;\u000a  int *piVar22;\u000a  undefined2 *puVar23;\u000a  undefined *puVar24;\u000a  code *pcVar25;\u000a  code *pcVar26;\u000a  undefined4 *unaff_ESI;\u000a  int unaff_EDI;\u000a  byte **ppbVar27;\u000a  byte **ppbVar28;\u000a  int iVar29;\u000a  undefined2 in_ES;\u000a  undefined2 in_DS;\u000a  bool bVar30;\u000a  bool in_PF;\u000a  undefined8 uVar31;\u000a  undefined2 *unaff_retaddr;\u000a  \u000a  bVar8 = 0;\u000a  pcVar12 = (char *)FUN_00c0d304();\u000a  *pcVar12 = *pcVar12 + (char)pcVar12;\u000a  ppbVar27 = (byte **)(unaff_EDI + -1);\u000a  pbVar13 = (byte *)(pcVar12 + 0x460e0000);\u000a  bVar7 = (byte)pbVar13 | *pbVar13;\u000a  ppcVar21 = (code **)((uint)pbVar13 & 0xffffff00 | (uint)bVar7);\u000a  *unaff_EBX = *unaff_EBX - bVar7;\u000a  *unaff_EBX = *unaff_EBX + (char)(extraout_ECX >> 8);\u000a  bVar30 = false;\u000a  *pbParm1 = *pbParm1 ^ (byte)((uint)unaff_retaddr >> 8);\u000a  uVar18 = extraout_ECX;\u000a  if (*pbParm1 != 0) {\u000acode_r0x00c0d375:\u000a    puVar14 = (uint *)((int)ppbVar27 + (uint)bVar8 * -2 + 1);\u000a    uVar2 = in((short)unaff_retaddr);\u000a    *(undefined *)ppbVar27 = uVar2;\u000a    uVar15 = *(uint *)((int)puVar14 + -0x235ba5be);\u000a    pbVar13 = pbParm1 + (uint)bVar30 + *(uint *)((int)puVar14 + -0x235ba5be);\u000a    _DAT_784eb1cb = pbVar13;\u000a    _DAT_784eb1cf = ppcVar21;\u000a    *(byte *)(unaff_retaddr + -4) = *(byte *)(unaff_retaddr + -4) & (byte)unaff_EBX;\u000a    _DAT_784eb1c7 = 0x825e;\u000a    uRam784eb1c9 = 0xf807;\u000a    puVar1 = (uint *)((int)puVar14 * 8 + 0x784eb170);\u000a    _DAT_784eb1c5 = in_DS;\u000a    *puVar1 = *puVar1 ^ (uint)ppcVar21;\u000a    bVar6 = false;\u000a    puVar24 = (undefined *)(CONCAT22(_DAT_784eb1c7,_DAT_784eb1c5) | 0x784eb1c9);\u000a    if (uVar18 != 1) {\u000aLAB_00c0d403:\u000a      ppiVar16 = (int **)(pbVar13 + 1);\u000a      piVar3 = (code **)*ppiVar16;\u000a      piVar3 = *ppiVar16;\u000a      *ppiVar16 = (int *)((int)(int *)((int)piVar3 - (int)ppcVar21) - (int)(int *)(uint)bVar6);\u000a      piVar11 = (int *)((int)*(undefined6 *)(puVar24 + (int)ppcVar21 * 8) + -0x1fada42d);\u000a      *piVar11 = (*piVar11 - (int)puVar24) -\u000a                 (uint)(piVar3 < ppcVar21 ||\u000a                       (int *)((int)piVar3 - (int)ppcVar21) < (int *)(uint)bVar6);\u000a      if (*piVar11 < 0) {\u000a        puVar1 = (uint *)((int)unaff_retaddr * 2 + 0x19a12504);\u000a        *puVar1 = *puVar1 >> 4 | *puVar1 << 0x1c;\u000a                    /* WARNING: Bad instruction - Truncating control flow here */\u000a        halt_baddata();\u000a      }\u000a      in((short)unaff_retaddr);\u000a                    /* WARNING: Bad instruction - Truncating control flow here */\u000a      halt_baddata();\u000a    }\u000a    ppcVar21 = (code **)((int)ppcVar21 + 1);\u000a    iVar17 = -1;\u000a    bVar30 = 9 < ((byte)_DAT_c133d3f0 & 0xf) ||\u000a             (((uint)pbParm1 & 0xfffffff) + (uVar15 & 0xfffffff) + (uint)bVar30 & 0x10000000) != 0;\u000a    uVar9 = CONCAT11((char)(_DAT_c133d3f0 >> 8) + bVar30,(byte)_DAT_c133d3f0 + bVar30 * 6) & 0xff0f;\u000a    bVar8 = (byte)uVar9;\u000a    bVar6 = 9 < bVar8 || bVar30;\u000a    bVar8 = bVar8 + bVar6 * 6;\u000a    bVar7 = 0x90 < (bVar8 & 0xf0) | bVar30 | bVar6 * (0xf9 < bVar8);\u000a    ppbVar28 = (byte **)(_DAT_c133d3f0 & 0xffff0000 | (uint)uVar9 & 0xffffff00 |\u000a                        (uint)(byte)(bVar8 + bVar7 * '`'));\u000a    cVar5 = (char)_DAT_784eb1c5;\u000a    puVar4 = puVar24 + -_DAT_0c436758;\u000a    iVar19 = -(uint)bVar7;\u000a    unaff_retaddr = (undefined2 *)((int)unaff_retaddr + -1);\u000a    *puVar14 = *puVar14 | (uint)(puVar4 + iVar19);\u000a    pbVar13 = *ppbVar28;\u000a    *ppbVar28 = *ppbVar28 + -(int)(puVar4 + iVar19);\u000a    unaff_EBX = (char *)(uint)(byte)(((cVar5 + -1) - *(char *)unaff_retaddr) -\u000a                                    (pbVar13 < puVar4 + iVar19));\u000a    *(code ***)(puVar4 + iVar19 + -4) = ppcVar21;\u000a    piVar11 = (int *)(puVar4 + iVar19 + -4);\u000a    do {\u000a      piVar22 = piVar11;\u000a      unaff_EBX = (char *)((uint)unaff_EBX & 0xff);\u000a      unaff_retaddr = (undefined2 *)((int)unaff_retaddr + -1);\u000a      bVar30 = puVar14 < (uint *)0x808ed400;\u000a      pbParm1 = (byte *)in((short)unaff_retaddr);\u000a      while( true ) {\u000a        unaff_retaddr = (undefined2 *)((int)unaff_retaddr + -1);\u000a        out(0x21,(char)pbParm1);\u000a        uVar18 = iVar17 - 1;\u000a        if (uVar18 != 0 && unaff_retaddr == (undefined2 *)0x0) {\u000a          bVar8 = 0;\u000a          ppbVar27 = ppbVar28 + 1;\u000a          *ppbVar28 = pbParm1;\u000a          goto code_r0x00c0d375;\u000a        }\u000a        *unaff_retaddr = in_ES;\u000a        iVar29 = *piVar22;\u000a        unaff_EBX = (char *)piVar22[4];\u000a        unaff_retaddr = (undefined2 *)piVar22[5];\u000a        iVar19 = piVar22[6];\u000a        uVar15 = piVar22[7];\u000a        ppbVar27 = (byte **)(iVar29 + 1);\u000a        uVar18 = piVar22[1] + 1;\u000a        piVar22[7] = 0x8f5fb3d1;\u000a        *(byte *)ppbVar27 = *(byte *)ppbVar27 & (byte)((uint)unaff_EBX >> 8);\u000a        *(int **)(piVar22 + 6) = piVar22 + 7;\u000a        ppcVar21 = (code **)piVar22[6];\u000a        puVar14 = (uint *)(uVar15 + 0xce4e5c53);\u000a        pbVar13 = (byte *)(unaff_EBX + (int)ppbVar27 * 4 + -0x45);\u000a        *pbVar13 = *pbVar13 ^ 0xcf;\u000a        iVar17 = iVar19 + -1;\u000a        piVar11 = piVar22 + 7;\u000a        ppbVar28 = ppbVar27;\u000a        if (iVar17 != 0 && *pbVar13 == 0) break;\u000a        puVar23 = (undefined2 *)((int)piVar22 + 0x1a);\u000a        puVar24 = (undefined *)((int)piVar22 + 0x1a);\u000a        piVar22 = (int *)((int)piVar22 + 0x1a);\u000a        *puVar23 = in_DS;\u000a        iVar17 = iVar19 + -2;\u000a        bVar7 = (byte)uVar18 ^ (unaff_EBX + -0x53a7b8a2)[(int)unaff_retaddr];\u000a        ppbVar28 = (byte **)(iVar29 + 2);\u000a        *(byte *)ppbVar27 = bVar7;\u000a        bVar6 = 9 < (bVar7 & 0xf) || ((uVar15 & 0xfffffff) + 0xfe4e5c53 & 0x10000000) != 0;\u000a        cVar5 = bVar7 + bVar6 * 6;\u000a        bVar7 = (char)(uVar18 >> 8) + bVar6;\u000a        pbVar13 = (byte *)(uVar18 & 0xffff0000 | (uint)(CONCAT11(bVar7,cVar5) & 0xff0f));\u000a        if (!in_PF) goto LAB_00c0d403;\u000a        bVar30 = CARRY1(bVar7,(byte)unaff_retaddr);\u000a        pbParm1 = (byte *)(uVar18 & 0xffff0000 |\u000a                          (uint)(CONCAT11(bVar7 + (byte)unaff_retaddr,cVar5) & 0xff0f));\u000a      }\u000a    } while( true );\u000a  }\u000a  pcVar26 = *ppcVar21;\u000a  uVar18 = extraout_ECX;\u000a  ppcVar21 = ppcVar21 + 1;\u000a  while( true ) {\u000a    *(undefined4 *)((undefined *)ppcVar21 + -4) = 0xffffffff;\u000a    *(undefined4 *)((undefined *)ppcVar21 + -8) = 0x32;\u000a    *(undefined4 *)((undefined *)ppcVar21 + -0xc) = 7;\u000a    *(uint *)((undefined *)ppcVar21 + -0x10) =\u000a         uVar18 & 0xffff0000 | (uint)CONCAT11(0x10,(char)uVar18);\u000a    *(byte **)((undefined *)ppcVar21 + -0x14) = pbParm1;\u000a    *(undefined4 *)((undefined *)ppcVar21 + -0x18) = 0x5a;\u000a    pcVar25 = (code *)swi(0x80);\u000a    iVar19 = (*pcVar25)();\u000a    puVar20 = (undefined *)ppcVar21 + -0x10;\u000a    pcVar25 = pcVar26;\u000a    if (iVar19 == *(int *)((undefined *)ppcVar21 + -0x14)) break;\u000a    *(undefined4 *)((undefined *)ppcVar21 + -0x14) = 0x1d;\u000a                    /* WARNING: Call to offcut address within same function */\u000a    *(undefined4 *)((undefined *)ppcVar21 + -0x14) = 0xc0d2d7;\u000a    uVar31 = func_0x00c0d2f4();\u000a    iVar19 = (int)((ulonglong)uVar31 >> 0x20);\u000a    *(int *)((undefined *)ppcVar21 + -0x14) = (int)uVar31;\u000a    *(int *)((undefined *)ppcVar21 + -0x18) = iVar19;\u000a    *(undefined **)((undefined *)ppcVar21 + -0x1c) = (undefined *)ppcVar21 + -0x18;\u000a    uVar10 = *(undefined4 *)((undefined *)ppcVar21 + -0x18);\u000a    puVar20 = (undefined *)ppcVar21 + -0x14;\u000a    pcVar25 = pcVar26 + 2;\u000a    if (SCARRY4((int)((undefined *)ppcVar21 + -0x14),1) != (int)((undefined *)ppcVar21 + -0x13) < 0)\u000a    break;\u000a    *(int *)((undefined *)ppcVar21 + -0x18) = iVar19;\u000a    *(undefined **)((undefined *)ppcVar21 + -0x1c) = (undefined *)ppcVar21 + -0x18;\u000a    *(undefined4 *)((undefined *)ppcVar21 + -0x1c) = *(undefined4 *)((undefined *)ppcVar21 + -0x1c);\u000a    *(int *)((undefined *)ppcVar21 + -0x20) = iVar19;\u000a    *(undefined **)((undefined *)ppcVar21 + -0x24) = (undefined *)ppcVar21 + -0x20;\u000a    *(byte *)((int)unaff_ESI + 0x61) = *(byte *)((int)unaff_ESI + 0x61) & (byte)((uint)uVar10 >> 8);\u000a    pcVar26 = (code *)(*(int *)(pcVar26 + 0x67) * 0x6a590a2e);\u000a    pcVar25 = (code *)swi(0x80);\u000a    (*pcVar25)();\u000a    *(undefined4 *)((undefined *)ppcVar21 + -0x24) = 1;\u000a    pcVar25 = (code *)swi(0x80);\u000a    (*pcVar25)();\u000a    unaff_ESI = *(undefined4 **)((undefined *)ppcVar21 + -0x1c);\u000a    piVar11 = (int *)((int)(pcVar26 + -9) - *(int *)(pcVar26 + -9));\u000a    pbParm1 = (byte *)((int)piVar11 + piVar11[0x12] + 0xfff & 0xfffff000);\u000a    *(undefined4 *)((undefined *)ppcVar21 + -0x1c) = 1;\u000a    *(byte **)((undefined *)ppcVar21 + -0x20) = pbParm1;\u000a    uVar18 = 0;\u000a    ppcVar21 = (code **)((undefined *)ppcVar21 + -0x20);\u000a  }\u000a  uVar10 = *unaff_ESI;\u000a  *(undefined4 *)(puVar20 + -4) = uVar10;\u000a  *(undefined4 *)(puVar20 + -8) = uVar10;\u000a  *(undefined **)(puVar20 + -0xc) = puVar20 + -4;\u000a  *(int *)(puVar20 + -0x10) = iVar19;\u000a  *(undefined4 *)(puVar20 + -0x14) = unaff_ESI[1];\u000a  *(undefined4 *)(puVar20 + -8) = unaff_ESI[2];\u000a  *(undefined4 **)(puVar20 + -0x18) = unaff_ESI + 3;\u000a  *(undefined4 *)(puVar20 + -0x1c) = 0xc0d34d;\u000a  (*pcVar25)();\u000a  return;\u000a}\u000a\u000a
p17
S'POP EBP\nCALL 0x00c0d304\nPOP EDX\nPUSH ES\nADD byte ptr [EAX],AL\nDEC EDI\nADD EAX,0x460e0000\nOR AL,byte ptr [EAX]\nSBB byte ptr [EBX],AL\nADD byte ptr [EBX],CH\nXCHG EAX,EBP\nTEST EAX,0xcb0348d7\nXOR byte ptr [EDX],AH\nPOP SS\nXCHG EAX,EDX\nJBE 0x00c0d31f\nINSB ES:EDI,DX\nADC EAX,dword ptr [0xdca45a42 + EDI]\nMOV ESP,0x784eb1d3\nPUSH EBP\nPUSH EAX\nAND byte ptr [EDX + -0x8],BL\nPUSH 0xf807825e\nPUSH DS\nXOR dword ptr [ESP + EDI*0x8 + -0x55],EBP\nCMP AL,0x3c\nPOP EBX\nOR ESP,EBX\nLOOP 0x00c0d403\nBOUND ECX,dword ptr [0x02984b10]\nCLD\nINC EBP\nDEC ECX\nMOV EAX,[0xc133d3f0]\nAAA\nDAA\nDEC EBX\nSBB ESP,dword ptr [0x0c436758]\nCLD\nADD BH,byte ptr [EBP + -0x12]\nJECXZ 0x00c0d341\nDEC EDX\nOR dword ptr [EDI],ESP\nSBB dword ptr [EAX],ESP\nSBB BL,byte ptr [EDX]\nPUSH EBP\nXCHG EAX,EDI\nMOV BH,0x3f\nSTC\nDEC EDX\nSUB EAX,0x808ed400\nLODSD ESI\nIN EAX,DX\nFCMOVNBE ST0,ST1\nDEC EDX\nOUT 0x21,AL\nLOOPZ 0x00c0d38e\nADC EAX,0xc1f6a20f\nMOV word ptr [EDX],SS\nADD AL,0x25\nMOV EAX,[0x9d22a419]\nPOPAD\nCMPSB ES:EDI,ESI\nPUSH 0x8f5fb3d1\nAND byte ptr [EDI],BH\nPUSH ESP\nPOP EBP\nSBB EAX,0x31b1a3ad\nXOR byte ptr [EBX + EDI*0x4 + -0x45],0xcf\nLOOPZ 0x00c0d3be\nPUSH DS\nDEC ECX\nXCHG EAX,ESI\nXOR AL,byte ptr [0xac58475e + EBX + EDX*0x1]\nSTOSB ES:EDI\nAAA\nJP 0x00c0d3c3\nINC EAX\nSBB EDI,EDI\nSBB dword ptr [EAX],EBP\nLES ECX,[ESP + EBP*0x8]\nSBB dword ptr [0xe0525bd3 + ECX],ESP\nMOV EBX,0x7f95ddc9\nJS 0x00c0d3cd\nINC ESI\nCMPSD ES:EDI,ESI\nIN AL,DX\nMOV DH,0x8b\nADD AL,CL\nTEST EAX,0xc1065c00\nMOV AL,[0x6bf3c3d9]\nDEC ESP\nLODSB ESI\nXCHG EAX,EBP\nPOP ECX\n'
p18
S'5d\ne8 ad ff ff ff\n5a\n06\n00 00\n4f\n05 00 00 0e 46\n0a 00\n18 03\n00 2b\n95\n67 a9 d7 48 03 cb\n30 22\n64 17\n92\n76 aa\n6c\n13 87 42 5a a4 dc\nbc d3 b1 4e 78\n55\n50\n20 5a f8\n68 5e 82 07 f8\n1e\n31 6c fc ab\n3c 3c\n5b\n09 dc\ne2 6c\n62 0d 10 4b 98 02\nfc\n45\n49\na1 f0 d3 33 c1\n37\n27\n4b\n1b 25 58 67 43 0c\nfc\n02 7d ee\ne3 8d\n4a\n09 27\n19 20\n1a 1a\n55\n3e 97\nb7 3f\nf9\n4a\n2d 00 d4 8e 80\nad\ned\ndb d1\n4a\ne6 21\ne1 be\n15 0f a2 f6 c1\n8c 12\n04 25\na1 19 a4 22 9d\n61\na6\n68 d1 b3 5f 8f\n20 3f\n54\n5d\n1d ad a3 b1 31\n82 74 bb bb cf\ne1 c9\n1e\n49\n96\n32 84 13 5e 47 58 ac\naa\n37\n7a c0\n40\n1b ff\n19 28\nc4 0c ec\n19 a1 d3 5b 52 e0\nbb c9 dd 95 7f\n78 b5\n46\na7\nec\nb6 8b\n02 c1\na9 00 5c 06 c1\na0 d9 c3 f3 6b\n4c\nac\n2e 95\n59\n'
p19
S'segment_0:00c0d351\nsegment_0:00c0d352\nsegment_0:00c0d357\nsegment_0:00c0d358\nsegment_0:00c0d359\nsegment_0:00c0d35b\nsegment_0:00c0d35c\nsegment_0:00c0d361\nsegment_0:00c0d363\nsegment_0:00c0d365\nsegment_0:00c0d367\nsegment_0:00c0d368\nsegment_0:00c0d36e\nsegment_0:00c0d370\nsegment_0:00c0d372\nsegment_0:00c0d373\nsegment_0:00c0d375\nsegment_0:00c0d376\nsegment_0:00c0d37c\nsegment_0:00c0d381\nsegment_0:00c0d382\nsegment_0:00c0d383\nsegment_0:00c0d386\nsegment_0:00c0d38b\nsegment_0:00c0d38c\nsegment_0:00c0d390\nsegment_0:00c0d392\nsegment_0:00c0d393\nsegment_0:00c0d395\nsegment_0:00c0d397\nsegment_0:00c0d39d\nsegment_0:00c0d39e\nsegment_0:00c0d39f\nsegment_0:00c0d3a0\nsegment_0:00c0d3a5\nsegment_0:00c0d3a6\nsegment_0:00c0d3a7\nsegment_0:00c0d3a8\nsegment_0:00c0d3ae\nsegment_0:00c0d3af\nsegment_0:00c0d3b2\nsegment_0:00c0d3b4\nsegment_0:00c0d3b5\nsegment_0:00c0d3b7\nsegment_0:00c0d3b9\nsegment_0:00c0d3bb\nsegment_0:00c0d3bc\nsegment_0:00c0d3be\nsegment_0:00c0d3c0\nsegment_0:00c0d3c1\nsegment_0:00c0d3c2\nsegment_0:00c0d3c7\nsegment_0:00c0d3c8\nsegment_0:00c0d3c9\nsegment_0:00c0d3cb\nsegment_0:00c0d3cc\nsegment_0:00c0d3ce\nsegment_0:00c0d3d0\nsegment_0:00c0d3d5\nsegment_0:00c0d3d7\nsegment_0:00c0d3d9\nsegment_0:00c0d3de\nsegment_0:00c0d3df\nsegment_0:00c0d3e0\nsegment_0:00c0d3e5\nsegment_0:00c0d3e7\nsegment_0:00c0d3e8\nsegment_0:00c0d3e9\nsegment_0:00c0d3ee\nsegment_0:00c0d3f3\nsegment_0:00c0d3f5\nsegment_0:00c0d3f6\nsegment_0:00c0d3f7\nsegment_0:00c0d3f8\nsegment_0:00c0d3ff\nsegment_0:00c0d400\nsegment_0:00c0d401\nsegment_0:00c0d403\nsegment_0:00c0d404\nsegment_0:00c0d406\nsegment_0:00c0d408\nsegment_0:00c0d40b\nsegment_0:00c0d411\nsegment_0:00c0d416\nsegment_0:00c0d418\nsegment_0:00c0d419\nsegment_0:00c0d41a\nsegment_0:00c0d41b\nsegment_0:00c0d41d\nsegment_0:00c0d41f\nsegment_0:00c0d424\nsegment_0:00c0d429\nsegment_0:00c0d42a\nsegment_0:00c0d42b\nsegment_0:00c0d42d\n'
p20
tp21
s.